gplink-1.5.0 #1285 (Sep 12 2016)
Copyright (c) 1998-2016 gputils project
Listing File Generated: 11-23-2017  12:11:57


Address  Value    Disassembly              Source
-------  -----    -----------              ------
                                           ;--------------------------------------------------------
                                           ; File Created by SDCC : free open source ANSI-C Compiler
                                           ; Version 3.6.0 #9615 (MINGW64)
                                           ;--------------------------------------------------------
                                           ; PIC16 port for the Microchip 16-bit core micros
                                           ;--------------------------------------------------------
                                           	list	p=18f4550
                                           	radix	dec


                                           ;--------------------------------------------------------
                                           ; public variables in this module
                                           ;--------------------------------------------------------
                                           	global	_rtcInit
                                           	global	_BCD2UpperCh
                                           	global	_BCD2LowerCh
                                           	global	_rtcStore
                                           	global	_rtcStoreInt
                                           	global	_rtcRead
                                           	global	_rtcReadInt
                                           	global	_rtcStart
                                           	global	_rtcMin
                                           	global	_rtcHour
                                           	global	_rtcDay
                                           	global	_rtcDate
                                           	global	_rtcMonth
                                           	global	_rtcYear

                                           ;--------------------------------------------------------
                                           ; extern variables in this module
                                           ;--------------------------------------------------------
                                           	extern	_SPPCFGbits
                                           	extern	_SPPEPSbits
                                           	extern	_SPPCONbits
                                           	extern	_UFRMLbits
                                           	extern	_UFRMHbits
                                           	extern	_UIRbits
                                           	extern	_UIEbits
                                           	extern	_UEIRbits
                                           	extern	_UEIEbits
                                           	extern	_USTATbits
                                           	extern	_UCONbits
                                           	extern	_UADDRbits
                                           	extern	_UCFGbits
                                           	extern	_UEP0bits
                                           	extern	_UEP1bits
                                           	extern	_UEP2bits
                                           	extern	_UEP3bits
                                           	extern	_UEP4bits
                                           	extern	_UEP5bits
                                           	extern	_UEP6bits
                                           	extern	_UEP7bits
                                           	extern	_UEP8bits
                                           	extern	_UEP9bits
                                           	extern	_UEP10bits
                                           	extern	_UEP11bits
                                           	extern	_UEP12bits
                                           	extern	_UEP13bits
                                           	extern	_UEP14bits
                                           	extern	_UEP15bits
                                           	extern	_PORTAbits
                                           	extern	_PORTBbits
                                           	extern	_PORTCbits
                                           	extern	_PORTDbits
                                           	extern	_PORTEbits
                                           	extern	_LATAbits
                                           	extern	_LATBbits
                                           	extern	_LATCbits
                                           	extern	_LATDbits
                                           	extern	_LATEbits
                                           	extern	_DDRAbits
                                           	extern	_TRISAbits
                                           	extern	_DDRBbits
                                           	extern	_TRISBbits
                                           	extern	_DDRCbits
                                           	extern	_TRISCbits
                                           	extern	_DDRDbits
                                           	extern	_TRISDbits
                                           	extern	_DDREbits
                                           	extern	_TRISEbits
                                           	extern	_OSCTUNEbits
                                           	extern	_PIE1bits
                                           	extern	_PIR1bits
                                           	extern	_IPR1bits
                                           	extern	_PIE2bits
                                           	extern	_PIR2bits
                                           	extern	_IPR2bits
                                           	extern	_EECON1bits
                                           	extern	_RCSTAbits
                                           	extern	_TXSTAbits
                                           	extern	_T3CONbits
                                           	extern	_CMCONbits
                                           	extern	_CVRCONbits
                                           	extern	_CCP1ASbits
                                           	extern	_ECCP1ASbits
                                           	extern	_CCP1DELbits
                                           	extern	_ECCP1DELbits
                                           	extern	_BAUDCONbits
                                           	extern	_BAUDCTLbits
                                           	extern	_CCP2CONbits
                                           	extern	_CCP1CONbits
                                           	extern	_ECCP1CONbits
                                           	extern	_ADCON2bits
                                           	extern	_ADCON1bits
                                           	extern	_ADCON0bits
                                           	extern	_SSPCON2bits
                                           	extern	_SSPCON1bits
                                           	extern	_SSPSTATbits
                                           	extern	_T2CONbits
                                           	extern	_T1CONbits
                                           	extern	_RCONbits
                                           	extern	_WDTCONbits
                                           	extern	_HLVDCONbits
                                           	extern	_LVDCONbits
                                           	extern	_OSCCONbits
                                           	extern	_T0CONbits
                                           	extern	_STATUSbits
                                           	extern	_INTCON3bits
                                           	extern	_INTCON2bits
                                           	extern	_INTCONbits
                                           	extern	_STKPTRbits
                                           	extern	_SPPDATA
                                           	extern	_SPPCFG
                                           	extern	_SPPEPS
                                           	extern	_SPPCON
                                           	extern	_UFRM
                                           	extern	_UFRML
                                           	extern	_UFRMH
                                           	extern	_UIR
                                           	extern	_UIE
                                           	extern	_UEIR
                                           	extern	_UEIE
                                           	extern	_USTAT
                                           	extern	_UCON
                                           	extern	_UADDR
                                           	extern	_UCFG
                                           	extern	_UEP0
                                           	extern	_UEP1
                                           	extern	_UEP2
                                           	extern	_UEP3
                                           	extern	_UEP4
                                           	extern	_UEP5
                                           	extern	_UEP6
                                           	extern	_UEP7
                                           	extern	_UEP8
                                           	extern	_UEP9
                                           	extern	_UEP10
                                           	extern	_UEP11
                                           	extern	_UEP12
                                           	extern	_UEP13
                                           	extern	_UEP14
                                           	extern	_UEP15
                                           	extern	_PORTA
                                           	extern	_PORTB
                                           	extern	_PORTC
                                           	extern	_PORTD
                                           	extern	_PORTE
                                           	extern	_LATA
                                           	extern	_LATB
                                           	extern	_LATC
                                           	extern	_LATD
                                           	extern	_LATE
                                           	extern	_DDRA
                                           	extern	_TRISA
                                           	extern	_DDRB
                                           	extern	_TRISB
                                           	extern	_DDRC
                                           	extern	_TRISC
                                           	extern	_DDRD
                                           	extern	_TRISD
                                           	extern	_DDRE
                                           	extern	_TRISE
                                           	extern	_OSCTUNE
                                           	extern	_PIE1
                                           	extern	_PIR1
                                           	extern	_IPR1
                                           	extern	_PIE2
                                           	extern	_PIR2
                                           	extern	_IPR2
                                           	extern	_EECON1
                                           	extern	_EECON2
                                           	extern	_EEDATA
                                           	extern	_EEADR
                                           	extern	_RCSTA
                                           	extern	_TXSTA
                                           	extern	_TXREG
                                           	extern	_RCREG
                                           	extern	_SPBRG
                                           	extern	_SPBRGH
                                           	extern	_T3CON
                                           	extern	_TMR3
                                           	extern	_TMR3L
                                           	extern	_TMR3H
                                           	extern	_CMCON
                                           	extern	_CVRCON
                                           	extern	_CCP1AS
                                           	extern	_ECCP1AS
                                           	extern	_CCP1DEL
                                           	extern	_ECCP1DEL
                                           	extern	_BAUDCON
                                           	extern	_BAUDCTL
                                           	extern	_CCP2CON
                                           	extern	_CCPR2
                                           	extern	_CCPR2L
                                           	extern	_CCPR2H
                                           	extern	_CCP1CON
                                           	extern	_ECCP1CON
                                           	extern	_CCPR1
                                           	extern	_CCPR1L
                                           	extern	_CCPR1H
                                           	extern	_ADCON2
                                           	extern	_ADCON1
                                           	extern	_ADCON0
                                           	extern	_ADRES
                                           	extern	_ADRESL
                                           	extern	_ADRESH
                                           	extern	_SSPCON2
                                           	extern	_SSPCON1
                                           	extern	_SSPSTAT
                                           	extern	_SSPADD
                                           	extern	_SSPBUF
                                           	extern	_T2CON
                                           	extern	_PR2
                                           	extern	_TMR2
                                           	extern	_T1CON
                                           	extern	_TMR1
                                           	extern	_TMR1L
                                           	extern	_TMR1H
                                           	extern	_RCON
                                           	extern	_WDTCON
                                           	extern	_HLVDCON
                                           	extern	_LVDCON
                                           	extern	_OSCCON
                                           	extern	_T0CON
                                           	extern	_TMR0
                                           	extern	_TMR0L
                                           	extern	_TMR0H
                                           	extern	_STATUS
                                           	extern	_FSR2L
                                           	extern	_FSR2H
                                           	extern	_PLUSW2
                                           	extern	_PREINC2
                                           	extern	_POSTDEC2
                                           	extern	_POSTINC2
                                           	extern	_INDF2
                                           	extern	_BSR
                                           	extern	_FSR1L
                                           	extern	_FSR1H
                                           	extern	_PLUSW1
                                           	extern	_PREINC1
                                           	extern	_POSTDEC1
                                           	extern	_POSTINC1
                                           	extern	_INDF1
                                           	extern	_WREG
                                           	extern	_FSR0L
                                           	extern	_FSR0H
                                           	extern	_PLUSW0
                                           	extern	_PREINC0
                                           	extern	_POSTDEC0
                                           	extern	_POSTINC0
                                           	extern	_INDF0
                                           	extern	_INTCON3
                                           	extern	_INTCON2
                                           	extern	_INTCON
                                           	extern	_PROD
                                           	extern	_PRODL
                                           	extern	_PRODH
                                           	extern	_TABLAT
                                           	extern	_TBLPTR
                                           	extern	_TBLPTRL
                                           	extern	_TBLPTRH
                                           	extern	_TBLPTRU
                                           	extern	_PC
                                           	extern	_PCL
                                           	extern	_PCLATH
                                           	extern	_PCLATU
                                           	extern	_STKPTR
                                           	extern	_TOS
                                           	extern	_TOSL
                                           	extern	_TOSH
                                           	extern	_TOSU
                                           	extern	_i2cInit
                                           	extern	_i2cStart
                                           	extern	_i2cRestart
                                           	extern	_i2cStop
                                           	extern	_i2cSend
                                           	extern	_i2cRead
                                           	extern	_lcdCommand

                                           ;--------------------------------------------------------
                                           ;	Equates to used internal registers
                                           ;--------------------------------------------------------
                                           WREG	equ	0xfe8
                                           FSR1L	equ	0xfe1
                                           FSR2L	equ	0xfd9
                                           POSTINC1	equ	0xfe6
                                           POSTDEC1	equ	0xfe5
                                           PREINC1	equ	0xfe4
                                           PLUSW2	equ	0xfdb
                                           PRODL	equ	0xff3


                                           ; Internal registers
                                           .registers	udata_ovr	0x0000
                                           r0x00	res	1
                                           r0x01	res	1
                                           r0x02	res	1
                                           r0x03	res	1
                                           r0x04	res	1
                                           r0x05	res	1

                                           ;--------------------------------------------------------
                                           ; global & static initialisations
                                           ;--------------------------------------------------------
                                           ; I code from now on!
                                           ; ; Starting pCode block
                                           S_rtc__rtcYear	code
                                           _rtcYear:
                                           ;	.line	123; rtc.c	void rtcYear(unsigned char year){
0049aa   cfd9     movff   0xfd9, 0xfe5     	MOVFF	FSR2L, POSTDEC1
0049ac   ffe5
0049ae   cfe1     movff   0xfe1, 0xfd9     	MOVFF	FSR1L, FSR2L
0049b0   ffd9
0049b2   c000     movff   0x000, 0xfe5     	MOVFF	r0x00, POSTDEC1
0049b4   ffe5
0049b6   0e02     movlw   0x02             	MOVLW	0x02
0049b8   cfdb     movff   0xfdb, 0x000     	MOVFF	PLUSW2, r0x00
0049ba   f000
                                           ;	.line	124; rtc.c	i2cStart();
0049bc   eca0     call    0x004f40, 0x0    	CALL	_i2cStart
0049be   f027
                                           ;	.line	125; rtc.c	i2cSend(0xD0);
0049c0   0ed0     movlw   0xd0             	MOVLW	0xd0
0049c2   6ee5     movwf   0xe5, 0x0        	MOVWF	POSTDEC1
0049c4   ecf6     call    0x004fec, 0x0    	CALL	_i2cSend
0049c6   f027
0049c8   52e6     movf    0xe6, 0x1, 0x0   	MOVF	POSTINC1, F
                                           ;	.line	126; rtc.c	i2cSend(0x06);
0049ca   0e06     movlw   0x06             	MOVLW	0x06
0049cc   6ee5     movwf   0xe5, 0x0        	MOVWF	POSTDEC1
0049ce   ecf6     call    0x004fec, 0x0    	CALL	_i2cSend
0049d0   f027
0049d2   52e6     movf    0xe6, 0x1, 0x0   	MOVF	POSTINC1, F
                                           ;	.line	127; rtc.c	i2cSend(year);	
0049d4   5000     movf    0x00, 0x0, 0x0   	MOVF	r0x00, W
0049d6   6ee5     movwf   0xe5, 0x0        	MOVWF	POSTDEC1
0049d8   ecf6     call    0x004fec, 0x0    	CALL	_i2cSend
0049da   f027
0049dc   52e6     movf    0xe6, 0x1, 0x0   	MOVF	POSTINC1, F
                                           ;	.line	128; rtc.c	i2cStop();
0049de   ec7c     call    0x004ef8, 0x0    	CALL	_i2cStop
0049e0   f027
                                           ;	.line	129; rtc.c	lcdCommand(0x01);
0049e2   0e01     movlw   0x01             	MOVLW	0x01
0049e4   6ee5     movwf   0xe5, 0x0        	MOVWF	POSTDEC1
0049e6   ec2c     call    0x002858, 0x0    	CALL	_lcdCommand
0049e8   f014
0049ea   52e6     movf    0xe6, 0x1, 0x0   	MOVF	POSTINC1, F
0049ec   cfe4     movff   0xfe4, 0x000     	MOVFF	PREINC1, r0x00
0049ee   f000
0049f0   cfe4     movff   0xfe4, 0xfd9     	MOVFF	PREINC1, FSR2L
0049f2   ffd9
0049f4   0012     return  0x0              	RETURN	

                                           ; ; Starting pCode block
                                           S_rtc__rtcMonth	code
                                           _rtcMonth:
                                           ;	.line	114; rtc.c	void rtcMonth(unsigned char month){
0049f6   cfd9     movff   0xfd9, 0xfe5     	MOVFF	FSR2L, POSTDEC1
0049f8   ffe5
0049fa   cfe1     movff   0xfe1, 0xfd9     	MOVFF	FSR1L, FSR2L
0049fc   ffd9
0049fe   c000     movff   0x000, 0xfe5     	MOVFF	r0x00, POSTDEC1
004a00   ffe5
004a02   0e02     movlw   0x02             	MOVLW	0x02
004a04   cfdb     movff   0xfdb, 0x000     	MOVFF	PLUSW2, r0x00
004a06   f000
                                           ;	.line	115; rtc.c	i2cStart();
004a08   eca0     call    0x004f40, 0x0    	CALL	_i2cStart
004a0a   f027
                                           ;	.line	116; rtc.c	i2cSend(0xD0);
004a0c   0ed0     movlw   0xd0             	MOVLW	0xd0
004a0e   6ee5     movwf   0xe5, 0x0        	MOVWF	POSTDEC1
004a10   ecf6     call    0x004fec, 0x0    	CALL	_i2cSend
004a12   f027
004a14   52e6     movf    0xe6, 0x1, 0x0   	MOVF	POSTINC1, F
                                           ;	.line	117; rtc.c	i2cSend(0x05);
004a16   0e05     movlw   0x05             	MOVLW	0x05
004a18   6ee5     movwf   0xe5, 0x0        	MOVWF	POSTDEC1
004a1a   ecf6     call    0x004fec, 0x0    	CALL	_i2cSend
004a1c   f027
004a1e   52e6     movf    0xe6, 0x1, 0x0   	MOVF	POSTINC1, F
                                           ;	.line	118; rtc.c	i2cSend(month);	
004a20   5000     movf    0x00, 0x0, 0x0   	MOVF	r0x00, W
004a22   6ee5     movwf   0xe5, 0x0        	MOVWF	POSTDEC1
004a24   ecf6     call    0x004fec, 0x0    	CALL	_i2cSend
004a26   f027
004a28   52e6     movf    0xe6, 0x1, 0x0   	MOVF	POSTINC1, F
                                           ;	.line	119; rtc.c	i2cStop();
004a2a   ec7c     call    0x004ef8, 0x0    	CALL	_i2cStop
004a2c   f027
                                           ;	.line	120; rtc.c	lcdCommand(0x01);
004a2e   0e01     movlw   0x01             	MOVLW	0x01
004a30   6ee5     movwf   0xe5, 0x0        	MOVWF	POSTDEC1
004a32   ec2c     call    0x002858, 0x0    	CALL	_lcdCommand
004a34   f014
004a36   52e6     movf    0xe6, 0x1, 0x0   	MOVF	POSTINC1, F
004a38   cfe4     movff   0xfe4, 0x000     	MOVFF	PREINC1, r0x00
004a3a   f000
004a3c   cfe4     movff   0xfe4, 0xfd9     	MOVFF	PREINC1, FSR2L
004a3e   ffd9
004a40   0012     return  0x0              	RETURN	

                                           ; ; Starting pCode block
                                           S_rtc__rtcDate	code
                                           _rtcDate:
                                           ;	.line	105; rtc.c	void rtcDate(unsigned char date){
004a42   cfd9     movff   0xfd9, 0xfe5     	MOVFF	FSR2L, POSTDEC1
004a44   ffe5
004a46   cfe1     movff   0xfe1, 0xfd9     	MOVFF	FSR1L, FSR2L
004a48   ffd9
004a4a   c000     movff   0x000, 0xfe5     	MOVFF	r0x00, POSTDEC1
004a4c   ffe5
004a4e   0e02     movlw   0x02             	MOVLW	0x02
004a50   cfdb     movff   0xfdb, 0x000     	MOVFF	PLUSW2, r0x00
004a52   f000
                                           ;	.line	106; rtc.c	i2cStart();
004a54   eca0     call    0x004f40, 0x0    	CALL	_i2cStart
004a56   f027
                                           ;	.line	107; rtc.c	i2cSend(0xD0);
004a58   0ed0     movlw   0xd0             	MOVLW	0xd0
004a5a   6ee5     movwf   0xe5, 0x0        	MOVWF	POSTDEC1
004a5c   ecf6     call    0x004fec, 0x0    	CALL	_i2cSend
004a5e   f027
004a60   52e6     movf    0xe6, 0x1, 0x0   	MOVF	POSTINC1, F
                                           ;	.line	108; rtc.c	i2cSend(0x04);
004a62   0e04     movlw   0x04             	MOVLW	0x04
004a64   6ee5     movwf   0xe5, 0x0        	MOVWF	POSTDEC1
004a66   ecf6     call    0x004fec, 0x0    	CALL	_i2cSend
004a68   f027
004a6a   52e6     movf    0xe6, 0x1, 0x0   	MOVF	POSTINC1, F
                                           ;	.line	109; rtc.c	i2cSend(date);	
004a6c   5000     movf    0x00, 0x0, 0x0   	MOVF	r0x00, W
004a6e   6ee5     movwf   0xe5, 0x0        	MOVWF	POSTDEC1
004a70   ecf6     call    0x004fec, 0x0    	CALL	_i2cSend
004a72   f027
004a74   52e6     movf    0xe6, 0x1, 0x0   	MOVF	POSTINC1, F
                                           ;	.line	110; rtc.c	i2cStop();
004a76   ec7c     call    0x004ef8, 0x0    	CALL	_i2cStop
004a78   f027
                                           ;	.line	111; rtc.c	lcdCommand(0x01);
004a7a   0e01     movlw   0x01             	MOVLW	0x01
004a7c   6ee5     movwf   0xe5, 0x0        	MOVWF	POSTDEC1
004a7e   ec2c     call    0x002858, 0x0    	CALL	_lcdCommand
004a80   f014
004a82   52e6     movf    0xe6, 0x1, 0x0   	MOVF	POSTINC1, F
004a84   cfe4     movff   0xfe4, 0x000     	MOVFF	PREINC1, r0x00
004a86   f000
004a88   cfe4     movff   0xfe4, 0xfd9     	MOVFF	PREINC1, FSR2L
004a8a   ffd9
004a8c   0012     return  0x0              	RETURN	

                                           ; ; Starting pCode block
                                           S_rtc__rtcDay	code
                                           _rtcDay:
                                           ;	.line	96; rtc.c	void rtcDay(unsigned char day){
004a8e   cfd9     movff   0xfd9, 0xfe5     	MOVFF	FSR2L, POSTDEC1
004a90   ffe5
004a92   cfe1     movff   0xfe1, 0xfd9     	MOVFF	FSR1L, FSR2L
004a94   ffd9
004a96   c000     movff   0x000, 0xfe5     	MOVFF	r0x00, POSTDEC1
004a98   ffe5
004a9a   0e02     movlw   0x02             	MOVLW	0x02
004a9c   cfdb     movff   0xfdb, 0x000     	MOVFF	PLUSW2, r0x00
004a9e   f000
                                           ;	.line	97; rtc.c	i2cStart();
004aa0   eca0     call    0x004f40, 0x0    	CALL	_i2cStart
004aa2   f027
                                           ;	.line	98; rtc.c	i2cSend(0xD0);
004aa4   0ed0     movlw   0xd0             	MOVLW	0xd0
004aa6   6ee5     movwf   0xe5, 0x0        	MOVWF	POSTDEC1
004aa8   ecf6     call    0x004fec, 0x0    	CALL	_i2cSend
004aaa   f027
004aac   52e6     movf    0xe6, 0x1, 0x0   	MOVF	POSTINC1, F
                                           ;	.line	99; rtc.c	i2cSend(0x03);
004aae   0e03     movlw   0x03             	MOVLW	0x03
004ab0   6ee5     movwf   0xe5, 0x0        	MOVWF	POSTDEC1
004ab2   ecf6     call    0x004fec, 0x0    	CALL	_i2cSend
004ab4   f027
004ab6   52e6     movf    0xe6, 0x1, 0x0   	MOVF	POSTINC1, F
                                           ;	.line	100; rtc.c	i2cSend(day);	
004ab8   5000     movf    0x00, 0x0, 0x0   	MOVF	r0x00, W
004aba   6ee5     movwf   0xe5, 0x0        	MOVWF	POSTDEC1
004abc   ecf6     call    0x004fec, 0x0    	CALL	_i2cSend
004abe   f027
004ac0   52e6     movf    0xe6, 0x1, 0x0   	MOVF	POSTINC1, F
                                           ;	.line	101; rtc.c	i2cStop();
004ac2   ec7c     call    0x004ef8, 0x0    	CALL	_i2cStop
004ac4   f027
                                           ;	.line	102; rtc.c	lcdCommand(0x01);
004ac6   0e01     movlw   0x01             	MOVLW	0x01
004ac8   6ee5     movwf   0xe5, 0x0        	MOVWF	POSTDEC1
004aca   ec2c     call    0x002858, 0x0    	CALL	_lcdCommand
004acc   f014
004ace   52e6     movf    0xe6, 0x1, 0x0   	MOVF	POSTINC1, F
004ad0   cfe4     movff   0xfe4, 0x000     	MOVFF	PREINC1, r0x00
004ad2   f000
004ad4   cfe4     movff   0xfe4, 0xfd9     	MOVFF	PREINC1, FSR2L
004ad6   ffd9
004ad8   0012     return  0x0              	RETURN	

                                           ; ; Starting pCode block
                                           S_rtc__rtcHour	code
                                           _rtcHour:
                                           ;	.line	87; rtc.c	void rtcHour(unsigned char hour){
004ada   cfd9     movff   0xfd9, 0xfe5     	MOVFF	FSR2L, POSTDEC1
004adc   ffe5
004ade   cfe1     movff   0xfe1, 0xfd9     	MOVFF	FSR1L, FSR2L
004ae0   ffd9
004ae2   c000     movff   0x000, 0xfe5     	MOVFF	r0x00, POSTDEC1
004ae4   ffe5
004ae6   0e02     movlw   0x02             	MOVLW	0x02
004ae8   cfdb     movff   0xfdb, 0x000     	MOVFF	PLUSW2, r0x00
004aea   f000
                                           ;	.line	88; rtc.c	i2cStart();
004aec   eca0     call    0x004f40, 0x0    	CALL	_i2cStart
004aee   f027
                                           ;	.line	89; rtc.c	i2cSend(0xD0);
004af0   0ed0     movlw   0xd0             	MOVLW	0xd0
004af2   6ee5     movwf   0xe5, 0x0        	MOVWF	POSTDEC1
004af4   ecf6     call    0x004fec, 0x0    	CALL	_i2cSend
004af6   f027
004af8   52e6     movf    0xe6, 0x1, 0x0   	MOVF	POSTINC1, F
                                           ;	.line	90; rtc.c	i2cSend(0x02);
004afa   0e02     movlw   0x02             	MOVLW	0x02
004afc   6ee5     movwf   0xe5, 0x0        	MOVWF	POSTDEC1
004afe   ecf6     call    0x004fec, 0x0    	CALL	_i2cSend
004b00   f027
004b02   52e6     movf    0xe6, 0x1, 0x0   	MOVF	POSTINC1, F
                                           ;	.line	91; rtc.c	i2cSend(hour);	
004b04   5000     movf    0x00, 0x0, 0x0   	MOVF	r0x00, W
004b06   6ee5     movwf   0xe5, 0x0        	MOVWF	POSTDEC1
004b08   ecf6     call    0x004fec, 0x0    	CALL	_i2cSend
004b0a   f027
004b0c   52e6     movf    0xe6, 0x1, 0x0   	MOVF	POSTINC1, F
                                           ;	.line	92; rtc.c	i2cStop();
004b0e   ec7c     call    0x004ef8, 0x0    	CALL	_i2cStop
004b10   f027
                                           ;	.line	93; rtc.c	lcdCommand(0x01);
004b12   0e01     movlw   0x01             	MOVLW	0x01
004b14   6ee5     movwf   0xe5, 0x0        	MOVWF	POSTDEC1
004b16   ec2c     call    0x002858, 0x0    	CALL	_lcdCommand
004b18   f014
004b1a   52e6     movf    0xe6, 0x1, 0x0   	MOVF	POSTINC1, F
004b1c   cfe4     movff   0xfe4, 0x000     	MOVFF	PREINC1, r0x00
004b1e   f000
004b20   cfe4     movff   0xfe4, 0xfd9     	MOVFF	PREINC1, FSR2L
004b22   ffd9
004b24   0012     return  0x0              	RETURN	

                                           ; ; Starting pCode block
                                           S_rtc__rtcMin	code
                                           _rtcMin:
                                           ;	.line	78; rtc.c	void rtcMin(unsigned char min){
004b26   cfd9     movff   0xfd9, 0xfe5     	MOVFF	FSR2L, POSTDEC1
004b28   ffe5
004b2a   cfe1     movff   0xfe1, 0xfd9     	MOVFF	FSR1L, FSR2L
004b2c   ffd9
004b2e   c000     movff   0x000, 0xfe5     	MOVFF	r0x00, POSTDEC1
004b30   ffe5
004b32   0e02     movlw   0x02             	MOVLW	0x02
004b34   cfdb     movff   0xfdb, 0x000     	MOVFF	PLUSW2, r0x00
004b36   f000
                                           ;	.line	79; rtc.c	i2cStart();
004b38   eca0     call    0x004f40, 0x0    	CALL	_i2cStart
004b3a   f027
                                           ;	.line	80; rtc.c	i2cSend(0xD0);
004b3c   0ed0     movlw   0xd0             	MOVLW	0xd0
004b3e   6ee5     movwf   0xe5, 0x0        	MOVWF	POSTDEC1
004b40   ecf6     call    0x004fec, 0x0    	CALL	_i2cSend
004b42   f027
004b44   52e6     movf    0xe6, 0x1, 0x0   	MOVF	POSTINC1, F
                                           ;	.line	81; rtc.c	i2cSend(0x01);
004b46   0e01     movlw   0x01             	MOVLW	0x01
004b48   6ee5     movwf   0xe5, 0x0        	MOVWF	POSTDEC1
004b4a   ecf6     call    0x004fec, 0x0    	CALL	_i2cSend
004b4c   f027
004b4e   52e6     movf    0xe6, 0x1, 0x0   	MOVF	POSTINC1, F
                                           ;	.line	82; rtc.c	i2cSend(min);	
004b50   5000     movf    0x00, 0x0, 0x0   	MOVF	r0x00, W
004b52   6ee5     movwf   0xe5, 0x0        	MOVWF	POSTDEC1
004b54   ecf6     call    0x004fec, 0x0    	CALL	_i2cSend
004b56   f027
004b58   52e6     movf    0xe6, 0x1, 0x0   	MOVF	POSTINC1, F
                                           ;	.line	83; rtc.c	i2cStop();
004b5a   ec7c     call    0x004ef8, 0x0    	CALL	_i2cStop
004b5c   f027
                                           ;	.line	84; rtc.c	lcdCommand(0x01);
004b5e   0e01     movlw   0x01             	MOVLW	0x01
004b60   6ee5     movwf   0xe5, 0x0        	MOVWF	POSTDEC1
004b62   ec2c     call    0x002858, 0x0    	CALL	_lcdCommand
004b64   f014
004b66   52e6     movf    0xe6, 0x1, 0x0   	MOVF	POSTINC1, F
004b68   cfe4     movff   0xfe4, 0x000     	MOVFF	PREINC1, r0x00
004b6a   f000
004b6c   cfe4     movff   0xfe4, 0xfd9     	MOVFF	PREINC1, FSR2L
004b6e   ffd9
004b70   0012     return  0x0              	RETURN	

                                           ; ; Starting pCode block
                                           S_rtc__rtcStart	code
                                           _rtcStart:
                                           ;	.line	68; rtc.c	void rtcStart(void){
004c00   cfd9     movff   0xfd9, 0xfe5     	MOVFF	FSR2L, POSTDEC1
004c02   ffe5
004c04   cfe1     movff   0xfe1, 0xfd9     	MOVFF	FSR1L, FSR2L
004c06   ffd9
                                           ;	.line	69; rtc.c	i2cStart();
004c08   eca0     call    0x004f40, 0x0    	CALL	_i2cStart
004c0a   f027
                                           ;	.line	70; rtc.c	i2cSend(0xD0);
004c0c   0ed0     movlw   0xd0             	MOVLW	0xd0
004c0e   6ee5     movwf   0xe5, 0x0        	MOVWF	POSTDEC1
004c10   ecf6     call    0x004fec, 0x0    	CALL	_i2cSend
004c12   f027
004c14   52e6     movf    0xe6, 0x1, 0x0   	MOVF	POSTINC1, F
                                           ;	.line	71; rtc.c	i2cSend(0x00);
004c16   0e00     movlw   0x00             	MOVLW	0x00
004c18   6ee5     movwf   0xe5, 0x0        	MOVWF	POSTDEC1
004c1a   ecf6     call    0x004fec, 0x0    	CALL	_i2cSend
004c1c   f027
004c1e   52e6     movf    0xe6, 0x1, 0x0   	MOVF	POSTINC1, F
                                           ;	.line	72; rtc.c	i2cSend(0x00);	
004c20   0e00     movlw   0x00             	MOVLW	0x00
004c22   6ee5     movwf   0xe5, 0x0        	MOVWF	POSTDEC1
004c24   ecf6     call    0x004fec, 0x0    	CALL	_i2cSend
004c26   f027
004c28   52e6     movf    0xe6, 0x1, 0x0   	MOVF	POSTINC1, F
                                           ;	.line	73; rtc.c	i2cStop();
004c2a   ec7c     call    0x004ef8, 0x0    	CALL	_i2cStop
004c2c   f027
                                           ;	.line	74; rtc.c	lcdCommand(0x01);
004c2e   0e01     movlw   0x01             	MOVLW	0x01
004c30   6ee5     movwf   0xe5, 0x0        	MOVWF	POSTDEC1
004c32   ec2c     call    0x002858, 0x0    	CALL	_lcdCommand
004c34   f014
004c36   52e6     movf    0xe6, 0x1, 0x0   	MOVF	POSTINC1, F
004c38   cfe4     movff   0xfe4, 0xfd9     	MOVFF	PREINC1, FSR2L
004c3a   ffd9
004c3c   0012     return  0x0              	RETURN	

                                           ; ; Starting pCode block
                                           S_rtc__rtcReadInt	code
                                           _rtcReadInt:
                                           ;	.line	56; rtc.c	int rtcReadInt(unsigned char address){
00434a   cfd9     movff   0xfd9, 0xfe5     	MOVFF	FSR2L, POSTDEC1
00434c   ffe5
00434e   cfe1     movff   0xfe1, 0xfd9     	MOVFF	FSR1L, FSR2L
004350   ffd9
004352   c000     movff   0x000, 0xfe5     	MOVFF	r0x00, POSTDEC1
004354   ffe5
004356   c001     movff   0x001, 0xfe5     	MOVFF	r0x01, POSTDEC1
004358   ffe5
00435a   c002     movff   0x002, 0xfe5     	MOVFF	r0x02, POSTDEC1
00435c   ffe5
00435e   c003     movff   0x003, 0xfe5     	MOVFF	r0x03, POSTDEC1
004360   ffe5
004362   c004     movff   0x004, 0xfe5     	MOVFF	r0x04, POSTDEC1
004364   ffe5
004366   c005     movff   0x005, 0xfe5     	MOVFF	r0x05, POSTDEC1
004368   ffe5
00436a   0e02     movlw   0x02             	MOVLW	0x02
00436c   cfdb     movff   0xfdb, 0x000     	MOVFF	PLUSW2, r0x00
00436e   f000
                                           ;	.line	60; rtc.c	valH = rtcRead(address);  
004370   5000     movf    0x00, 0x0, 0x0   	MOVF	r0x00, W
004372   6ee5     movwf   0xe5, 0x0        	MOVWF	POSTDEC1
004374   ecae     call    0x00495c, 0x0    	CALL	_rtcRead
004376   f024
004378   6e01     movwf   0x01, 0x0        	MOVWF	r0x01
00437a   52e6     movf    0xe6, 0x1, 0x0   	MOVF	POSTINC1, F
                                           ;	.line	61; rtc.c	valL = rtcRead(address+1);	
00437c   2a00     incf    0x00, 0x1, 0x0   	INCF	r0x00, F
00437e   5000     movf    0x00, 0x0, 0x0   	MOVF	r0x00, W
004380   6ee5     movwf   0xe5, 0x0        	MOVWF	POSTDEC1
004382   ecae     call    0x00495c, 0x0    	CALL	_rtcRead
004384   f024
004386   6e00     movwf   0x00, 0x0        	MOVWF	r0x00
004388   52e6     movf    0xe6, 0x1, 0x0   	MOVF	POSTINC1, F
                                           ;	.line	62; rtc.c	val = (valH << 8);
00438a   6a02     clrf    0x02, 0x0        	CLRF	r0x02
00438c   5001     movf    0x01, 0x0, 0x0   	MOVF	r0x01, W
00438e   6e04     movwf   0x04, 0x0        	MOVWF	r0x04
004390   6a03     clrf    0x03, 0x0        	CLRF	r0x03
                                           ;	.line	63; rtc.c	val = val + valL;      
004392   6a05     clrf    0x05, 0x0        	CLRF	r0x05
004394   5000     movf    0x00, 0x0, 0x0   	MOVF	r0x00, W
004396   2603     addwf   0x03, 0x1, 0x0   	ADDWF	r0x03, F
004398   5005     movf    0x05, 0x0, 0x0   	MOVF	r0x05, W
00439a   2204     addwfc  0x04, 0x1, 0x0   	ADDWFC	r0x04, F
                                           ;	.line	65; rtc.c	return val;
00439c   c004     movff   0x004, 0xff3     	MOVFF	r0x04, PRODL
00439e   fff3
0043a0   5003     movf    0x03, 0x0, 0x0   	MOVF	r0x03, W
0043a2   cfe4     movff   0xfe4, 0x005     	MOVFF	PREINC1, r0x05
0043a4   f005
0043a6   cfe4     movff   0xfe4, 0x004     	MOVFF	PREINC1, r0x04
0043a8   f004
0043aa   cfe4     movff   0xfe4, 0x003     	MOVFF	PREINC1, r0x03
0043ac   f003
0043ae   cfe4     movff   0xfe4, 0x002     	MOVFF	PREINC1, r0x02
0043b0   f002
0043b2   cfe4     movff   0xfe4, 0x001     	MOVFF	PREINC1, r0x01
0043b4   f001
0043b6   cfe4     movff   0xfe4, 0x000     	MOVFF	PREINC1, r0x00
0043b8   f000
0043ba   cfe4     movff   0xfe4, 0xfd9     	MOVFF	PREINC1, FSR2L
0043bc   ffd9
0043be   0012     return  0x0              	RETURN	

                                           ; ; Starting pCode block
                                           S_rtc__rtcRead	code
                                           _rtcRead:
                                           ;	.line	44; rtc.c	char rtcRead(unsigned char address){
00495c   cfd9     movff   0xfd9, 0xfe5     	MOVFF	FSR2L, POSTDEC1
00495e   ffe5
004960   cfe1     movff   0xfe1, 0xfd9     	MOVFF	FSR1L, FSR2L
004962   ffd9
004964   c000     movff   0x000, 0xfe5     	MOVFF	r0x00, POSTDEC1
004966   ffe5
004968   0e02     movlw   0x02             	MOVLW	0x02
00496a   cfdb     movff   0xfdb, 0x000     	MOVFF	PLUSW2, r0x00
00496c   f000
                                           ;	.line	46; rtc.c	i2cStart();
00496e   eca0     call    0x004f40, 0x0    	CALL	_i2cStart
004970   f027
                                           ;	.line	47; rtc.c	i2cSend(0xD0);
004972   0ed0     movlw   0xd0             	MOVLW	0xd0
004974   6ee5     movwf   0xe5, 0x0        	MOVWF	POSTDEC1
004976   ecf6     call    0x004fec, 0x0    	CALL	_i2cSend
004978   f027
00497a   52e6     movf    0xe6, 0x1, 0x0   	MOVF	POSTINC1, F
                                           ;	.line	48; rtc.c	i2cSend(address);
00497c   5000     movf    0x00, 0x0, 0x0   	MOVF	r0x00, W
00497e   6ee5     movwf   0xe5, 0x0        	MOVWF	POSTDEC1
004980   ecf6     call    0x004fec, 0x0    	CALL	_i2cSend
004982   f027
004984   52e6     movf    0xe6, 0x1, 0x0   	MOVF	POSTINC1, F
                                           ;	.line	49; rtc.c	i2cRestart();
004986   ec8e     call    0x004f1c, 0x0    	CALL	_i2cRestart
004988   f027
                                           ;	.line	50; rtc.c	i2cSend(0xD1);
00498a   0ed1     movlw   0xd1             	MOVLW	0xd1
00498c   6ee5     movwf   0xe5, 0x0        	MOVWF	POSTDEC1
00498e   ecf6     call    0x004fec, 0x0    	CALL	_i2cSend
004990   f027
004992   52e6     movf    0xe6, 0x1, 0x0   	MOVF	POSTINC1, F
                                           ;	.line	51; rtc.c	val = i2cRead();
004994   ec1f     call    0x004c3e, 0x0    	CALL	_i2cRead
004996   f026
004998   6e00     movwf   0x00, 0x0        	MOVWF	r0x00
                                           ;	.line	52; rtc.c	i2cStop();	
00499a   ec7c     call    0x004ef8, 0x0    	CALL	_i2cStop
00499c   f027
                                           ;	.line	53; rtc.c	return val;
00499e   5000     movf    0x00, 0x0, 0x0   	MOVF	r0x00, W
0049a0   cfe4     movff   0xfe4, 0x000     	MOVFF	PREINC1, r0x00
0049a2   f000
0049a4   cfe4     movff   0xfe4, 0xfd9     	MOVFF	PREINC1, FSR2L
0049a6   ffd9
0049a8   0012     return  0x0              	RETURN	

                                           ; ; Starting pCode block
                                           S_rtc__rtcStoreInt	code
                                           _rtcStoreInt:
                                           ;	.line	34; rtc.c	void rtcStoreInt(unsigned char address, int val)
0042ce   cfd9     movff   0xfd9, 0xfe5     	MOVFF	FSR2L, POSTDEC1
0042d0   ffe5
0042d2   cfe1     movff   0xfe1, 0xfd9     	MOVFF	FSR1L, FSR2L
0042d4   ffd9
0042d6   c000     movff   0x000, 0xfe5     	MOVFF	r0x00, POSTDEC1
0042d8   ffe5
0042da   c001     movff   0x001, 0xfe5     	MOVFF	r0x01, POSTDEC1
0042dc   ffe5
0042de   c002     movff   0x002, 0xfe5     	MOVFF	r0x02, POSTDEC1
0042e0   ffe5
0042e2   c003     movff   0x003, 0xfe5     	MOVFF	r0x03, POSTDEC1
0042e4   ffe5
0042e6   0e02     movlw   0x02             	MOVLW	0x02
0042e8   cfdb     movff   0xfdb, 0x000     	MOVFF	PLUSW2, r0x00
0042ea   f000
0042ec   0e03     movlw   0x03             	MOVLW	0x03
0042ee   cfdb     movff   0xfdb, 0x001     	MOVFF	PLUSW2, r0x01
0042f0   f001
0042f2   0e04     movlw   0x04             	MOVLW	0x04
0042f4   cfdb     movff   0xfdb, 0x002     	MOVFF	PLUSW2, r0x02
0042f6   f002
                                           ;	.line	36; rtc.c	i2cStart();
0042f8   eca0     call    0x004f40, 0x0    	CALL	_i2cStart
0042fa   f027
                                           ;	.line	37; rtc.c	i2cSend(0xD0);
0042fc   0ed0     movlw   0xd0             	MOVLW	0xd0
0042fe   6ee5     movwf   0xe5, 0x0        	MOVWF	POSTDEC1
004300   ecf6     call    0x004fec, 0x0    	CALL	_i2cSend
004302   f027
004304   52e6     movf    0xe6, 0x1, 0x0   	MOVF	POSTINC1, F
                                           ;	.line	38; rtc.c	i2cSend(address);	
004306   5000     movf    0x00, 0x0, 0x0   	MOVF	r0x00, W
004308   6ee5     movwf   0xe5, 0x0        	MOVWF	POSTDEC1
00430a   ecf6     call    0x004fec, 0x0    	CALL	_i2cSend
00430c   f027
00430e   52e6     movf    0xe6, 0x1, 0x0   	MOVF	POSTINC1, F
                                           ;	.line	39; rtc.c	i2cSend(val >> 8);    
004310   5002     movf    0x02, 0x0, 0x0   	MOVF	r0x02, W
004312   6e00     movwf   0x00, 0x0        	MOVWF	r0x00
004314   6a03     clrf    0x03, 0x0        	CLRF	r0x03
004316   be00     btfsc   0x00, 0x7, 0x0   	BTFSC	r0x00, 7
004318   6803     setf    0x03, 0x0        	SETF	r0x03
00431a   5000     movf    0x00, 0x0, 0x0   	MOVF	r0x00, W
00431c   6ee5     movwf   0xe5, 0x0        	MOVWF	POSTDEC1
00431e   ecf6     call    0x004fec, 0x0    	CALL	_i2cSend
004320   f027
004322   52e6     movf    0xe6, 0x1, 0x0   	MOVF	POSTINC1, F
                                           ;	.line	40; rtc.c	i2cSend(val & 0x00FF);
004324   6a02     clrf    0x02, 0x0        	CLRF	r0x02
004326   5001     movf    0x01, 0x0, 0x0   	MOVF	r0x01, W
004328   6ee5     movwf   0xe5, 0x0        	MOVWF	POSTDEC1
00432a   ecf6     call    0x004fec, 0x0    	CALL	_i2cSend
00432c   f027
00432e   52e6     movf    0xe6, 0x1, 0x0   	MOVF	POSTINC1, F
                                           ;	.line	41; rtc.c	i2cStop();
004330   ec7c     call    0x004ef8, 0x0    	CALL	_i2cStop
004332   f027
004334   cfe4     movff   0xfe4, 0x003     	MOVFF	PREINC1, r0x03
004336   f003
004338   cfe4     movff   0xfe4, 0x002     	MOVFF	PREINC1, r0x02
00433a   f002
00433c   cfe4     movff   0xfe4, 0x001     	MOVFF	PREINC1, r0x01
00433e   f001
004340   cfe4     movff   0xfe4, 0x000     	MOVFF	PREINC1, r0x00
004342   f000
004344   cfe4     movff   0xfe4, 0xfd9     	MOVFF	PREINC1, FSR2L
004346   ffd9
004348   0012     return  0x0              	RETURN	

                                           ; ; Starting pCode block
                                           S_rtc__rtcStore	code
                                           _rtcStore:
                                           ;	.line	25; rtc.c	void rtcStore(unsigned char address, char val)
0048bc   cfd9     movff   0xfd9, 0xfe5     	MOVFF	FSR2L, POSTDEC1
0048be   ffe5
0048c0   cfe1     movff   0xfe1, 0xfd9     	MOVFF	FSR1L, FSR2L
0048c2   ffd9
0048c4   c000     movff   0x000, 0xfe5     	MOVFF	r0x00, POSTDEC1
0048c6   ffe5
0048c8   c001     movff   0x001, 0xfe5     	MOVFF	r0x01, POSTDEC1
0048ca   ffe5
0048cc   0e02     movlw   0x02             	MOVLW	0x02
0048ce   cfdb     movff   0xfdb, 0x000     	MOVFF	PLUSW2, r0x00
0048d0   f000
0048d2   0e03     movlw   0x03             	MOVLW	0x03
0048d4   cfdb     movff   0xfdb, 0x001     	MOVFF	PLUSW2, r0x01
0048d6   f001
                                           ;	.line	27; rtc.c	i2cStart();
0048d8   eca0     call    0x004f40, 0x0    	CALL	_i2cStart
0048da   f027
                                           ;	.line	28; rtc.c	i2cSend(0xD0);
0048dc   0ed0     movlw   0xd0             	MOVLW	0xd0
0048de   6ee5     movwf   0xe5, 0x0        	MOVWF	POSTDEC1
0048e0   ecf6     call    0x004fec, 0x0    	CALL	_i2cSend
0048e2   f027
0048e4   52e6     movf    0xe6, 0x1, 0x0   	MOVF	POSTINC1, F
                                           ;	.line	29; rtc.c	i2cSend(address);	
0048e6   5000     movf    0x00, 0x0, 0x0   	MOVF	r0x00, W
0048e8   6ee5     movwf   0xe5, 0x0        	MOVWF	POSTDEC1
0048ea   ecf6     call    0x004fec, 0x0    	CALL	_i2cSend
0048ec   f027
0048ee   52e6     movf    0xe6, 0x1, 0x0   	MOVF	POSTINC1, F
                                           ;	.line	30; rtc.c	i2cSend(val);
0048f0   5001     movf    0x01, 0x0, 0x0   	MOVF	r0x01, W
0048f2   6ee5     movwf   0xe5, 0x0        	MOVWF	POSTDEC1
0048f4   ecf6     call    0x004fec, 0x0    	CALL	_i2cSend
0048f6   f027
0048f8   52e6     movf    0xe6, 0x1, 0x0   	MOVF	POSTINC1, F
                                           ;	.line	31; rtc.c	i2cStop();   
0048fa   ec7c     call    0x004ef8, 0x0    	CALL	_i2cStop
0048fc   f027
0048fe   cfe4     movff   0xfe4, 0x001     	MOVFF	PREINC1, r0x01
004900   f001
004902   cfe4     movff   0xfe4, 0x000     	MOVFF	PREINC1, r0x00
004904   f000
004906   cfe4     movff   0xfe4, 0xfd9     	MOVFF	PREINC1, FSR2L
004908   ffd9
00490a   0012     return  0x0              	RETURN	

                                           ; ; Starting pCode block
                                           S_rtc__BCD2LowerCh	code
                                           _BCD2LowerCh:
                                           ;	.line	17; rtc.c	unsigned char BCD2LowerCh(unsigned char bcd)
004eac   cfd9     movff   0xfd9, 0xfe5     	MOVFF	FSR2L, POSTDEC1
004eae   ffe5
004eb0   cfe1     movff   0xfe1, 0xfd9     	MOVFF	FSR1L, FSR2L
004eb2   ffd9
004eb4   c000     movff   0x000, 0xfe5     	MOVFF	r0x00, POSTDEC1
004eb6   ffe5
004eb8   0e02     movlw   0x02             	MOVLW	0x02
004eba   cfdb     movff   0xfdb, 0x000     	MOVFF	PLUSW2, r0x00
004ebc   f000
                                           ;	.line	20; rtc.c	temp = bcd & 0x0F; //Making the Upper 4-bits
004ebe   0e0f     movlw   0x0f             	MOVLW	0x0f
004ec0   1600     andwf   0x00, 0x1, 0x0   	ANDWF	r0x00, F
                                           ;	.line	21; rtc.c	temp = temp | 0x30;
004ec2   0e30     movlw   0x30             	MOVLW	0x30
004ec4   1200     iorwf   0x00, 0x1, 0x0   	IORWF	r0x00, F
                                           ;	.line	22; rtc.c	return(temp);
004ec6   5000     movf    0x00, 0x0, 0x0   	MOVF	r0x00, W
004ec8   cfe4     movff   0xfe4, 0x000     	MOVFF	PREINC1, r0x00
004eca   f000
004ecc   cfe4     movff   0xfe4, 0xfd9     	MOVFF	PREINC1, FSR2L
004ece   ffd9
004ed0   0012     return  0x0              	RETURN	

                                           ; ; Starting pCode block
                                           S_rtc__BCD2UpperCh	code
                                           _BCD2UpperCh:
                                           ;	.line	10; rtc.c	unsigned char BCD2UpperCh(unsigned char bcd)
004e0c   cfd9     movff   0xfd9, 0xfe5     	MOVFF	FSR2L, POSTDEC1
004e0e   ffe5
004e10   cfe1     movff   0xfe1, 0xfd9     	MOVFF	FSR1L, FSR2L
004e12   ffd9
004e14   c000     movff   0x000, 0xfe5     	MOVFF	r0x00, POSTDEC1
004e16   ffe5
004e18   0e02     movlw   0x02             	MOVLW	0x02
004e1a   cfdb     movff   0xfdb, 0x000     	MOVFF	PLUSW2, r0x00
004e1c   f000
                                           ;	.line	13; rtc.c	temp = bcd >> 4;
004e1e   3800     swapf   0x00, 0x0, 0x0   	SWAPF	r0x00, W
004e20   0b0f     andlw   0x0f             	ANDLW	0x0f
004e22   6e00     movwf   0x00, 0x0        	MOVWF	r0x00
                                           ;	.line	14; rtc.c	temp = temp | 0x30;
004e24   0e30     movlw   0x30             	MOVLW	0x30
004e26   1200     iorwf   0x00, 0x1, 0x0   	IORWF	r0x00, F
                                           ;	.line	15; rtc.c	return(temp);	
004e28   5000     movf    0x00, 0x0, 0x0   	MOVF	r0x00, W
004e2a   cfe4     movff   0xfe4, 0x000     	MOVFF	PREINC1, r0x00
004e2c   f000
004e2e   cfe4     movff   0xfe4, 0xfd9     	MOVFF	PREINC1, FSR2L
004e30   ffd9
004e32   0012     return  0x0              	RETURN	

                                           ; ; Starting pCode block
                                           S_rtc__rtcInit	code
                                           _rtcInit:
                                           ;	.line	6; rtc.c	void rtcInit(void) {
005066   cfd9     movff   0xfd9, 0xfe5     	MOVFF	FSR2L, POSTDEC1
005068   ffe5
00506a   cfe1     movff   0xfe1, 0xfd9     	MOVFF	FSR1L, FSR2L
00506c   ffd9
                                           ;	.line	7; rtc.c	i2cInit();
00506e   ece6     call    0x004fcc, 0x0    	CALL	_i2cInit
005070   f027
005072   cfe4     movff   0xfe4, 0xfd9     	MOVFF	PREINC1, FSR2L
005074   ffd9
005076   0012     return  0x0              	RETURN	



                                           ; Statistics:
                                           ; code size:	 1014 (0x03f6) bytes ( 0.77%)
                                           ;           	  507 (0x01fb) words
                                           ; udata size:	    0 (0x0000) bytes ( 0.00%)
                                           ; access size:	    6 (0x0006) bytes


                                           	end
                                           ;--------------------------------------------------------
                                           ; File Created by SDCC : free open source ANSI-C Compiler
                                           ; Version 3.6.0 #9615 (MINGW64)
                                           ;--------------------------------------------------------
                                           ; PIC16 port for the Microchip 16-bit core micros
                                           ;--------------------------------------------------------
                                           	list	p=18f4550
                                           	radix	dec


                                           ;--------------------------------------------------------
                                           ; public variables in this module
                                           ;--------------------------------------------------------
                                           	global	_adcInit
                                           	global	_adcAN
                                           	global	_adcRead
                                           	global	_adcScale

                                           ;--------------------------------------------------------
                                           ; extern variables in this module
                                           ;--------------------------------------------------------
                                           	extern	___uint2fs
                                           	extern	___fsmul
                                           	extern	___fs2uint

                                           ;--------------------------------------------------------
                                           ;	Equates to used internal registers
                                           ;--------------------------------------------------------
                                           STATUS	equ	0xfd8
                                           PCL	equ	0xff9
                                           PCLATH	equ	0xffa
                                           PCLATU	equ	0xffb
                                           WREG	equ	0xfe8
                                           FSR0L	equ	0xfe9
                                           FSR1L	equ	0xfe1
                                           FSR2L	equ	0xfd9
                                           INDF0	equ	0xfef
                                           POSTINC1	equ	0xfe6
                                           POSTDEC1	equ	0xfe5
                                           PREINC1	equ	0xfe4
                                           PLUSW2	equ	0xfdb
                                           PRODL	equ	0xff3
                                           PRODH	equ	0xff4


                                           ; Internal registers
                                           .registers	udata_ovr	0x0000
                                           r0x00	res	1
                                           r0x01	res	1
                                           r0x02	res	1
                                           r0x03	res	1
                                           r0x04	res	1
                                           r0x05	res	1

                                           ;--------------------------------------------------------
                                           ; global & static initialisations
                                           ;--------------------------------------------------------
                                           ; I code from now on!
                                           ; ; Starting pCode block
                                           S_adc__adcScale	code
                                           _adcScale:
                                           ;	.line	49; adc.c	int adcScale(char ch, unsigned int scale)
003122   cfd9     movff   0xfd9, 0xfe5     	MOVFF	FSR2L, POSTDEC1
003124   ffe5
003126   cfe1     movff   0xfe1, 0xfd9     	MOVFF	FSR1L, FSR2L
003128   ffd9
00312a   c000     movff   0x000, 0xfe5     	MOVFF	r0x00, POSTDEC1
00312c   ffe5
00312e   c001     movff   0x001, 0xfe5     	MOVFF	r0x01, POSTDEC1
003130   ffe5
003132   c002     movff   0x002, 0xfe5     	MOVFF	r0x02, POSTDEC1
003134   ffe5
003136   c003     movff   0x003, 0xfe5     	MOVFF	r0x03, POSTDEC1
003138   ffe5
00313a   c004     movff   0x004, 0xfe5     	MOVFF	r0x04, POSTDEC1
00313c   ffe5
00313e   c005     movff   0x005, 0xfe5     	MOVFF	r0x05, POSTDEC1
003140   ffe5
003142   0e02     movlw   0x02             	MOVLW	0x02
003144   cfdb     movff   0xfdb, 0x000     	MOVFF	PLUSW2, r0x00
003146   f000
                                           ;	.line	53; adc.c	ADCON1 = 0x06; //At o AN8  analogico, a referencia  baseada na fonte
003148   ee0f     lfsr    0x0, 0xfc1       	LFSR	0x00, 0xfc1
00314a   f0c1
00314c   0e06     movlw   0x06             	MOVLW	0x06
00314e   6eef     movwf   0xef, 0x0        	MOVWF	INDF0
                                           ;	.line	54; adc.c	switch(ch){        
003150   5000     movf    0x00, 0x0, 0x0   	MOVF	r0x00, W
003152   e00a     bz      0x003168         	BZ	_00143_DS_
003154   5000     movf    0x00, 0x0, 0x0   	MOVF	r0x00, W
003156   0a01     xorlw   0x01             	XORLW	0x01
003158   e00c     bz      0x003172         	BZ	_00144_DS_
00315a   5000     movf    0x00, 0x0, 0x0   	MOVF	r0x00, W
00315c   0a02     xorlw   0x02             	XORLW	0x02
00315e   e00e     bz      0x00317c         	BZ	_00145_DS_
003160   5000     movf    0x00, 0x0, 0x0   	MOVF	r0x00, W
003162   0a04     xorlw   0x04             	XORLW	0x04
003164   e010     bz      0x003186         	BZ	_00146_DS_
003166   d013     bra     0x00318e         	BRA	_00147_DS_
                                           _00143_DS_:
                                           ;	.line	55; adc.c	case DIA: ADCON0 = 0b00001001; convert = scale/1023; break;//seleciona o canal 2 e liga o ad        
003168   ee0f     lfsr    0x0, 0xfc2       	LFSR	0x00, 0xfc2
00316a   f0c2
00316c   0e09     movlw   0x09             	MOVLW	0x09
00316e   6eef     movwf   0xef, 0x0        	MOVWF	INDF0
003170   d00e     bra     0x00318e         	BRA	_00147_DS_
                                           _00144_DS_:
                                           ;	.line	56; adc.c	case DIB: ADCON0 = 0b00001101; convert = scale/1023; break;//seleciona o canal 3 e liga o ad
003172   ee0f     lfsr    0x0, 0xfc2       	LFSR	0x00, 0xfc2
003174   f0c2
003176   0e0d     movlw   0x0d             	MOVLW	0x0d
003178   6eef     movwf   0xef, 0x0        	MOVWF	INDF0
00317a   d009     bra     0x00318e         	BRA	_00147_DS_
                                           _00145_DS_:
                                           ;	.line	57; adc.c	case POT: ADCON0 = 0b00010001; convert = scale/675; break;//seleciona o canal 4 e liga o ad       
00317c   ee0f     lfsr    0x0, 0xfc2       	LFSR	0x00, 0xfc2
00317e   f0c2
003180   0e11     movlw   0x11             	MOVLW	0x11
003182   6eef     movwf   0xef, 0x0        	MOVWF	INDF0
003184   d004     bra     0x00318e         	BRA	_00147_DS_
                                           _00146_DS_:
                                           ;	.line	58; adc.c	case AN1: ADCON0 = 0b00011101; convert = scale/1023; break;  //seleciona o canal 7 e liga o ad        
003186   ee0f     lfsr    0x0, 0xfc2       	LFSR	0x00, 0xfc2
003188   f0c2
00318a   0e1d     movlw   0x1d             	MOVLW	0x1d
00318c   6eef     movwf   0xef, 0x0        	MOVWF	INDF0
                                           _00147_DS_:
                                           ;	.line	61; adc.c	ADCON0 |= 0b00000010;	 //inicia conversao
00318e   ee0f     lfsr    0x0, 0xfc2       	LFSR	0x00, 0xfc2
003190   f0c2
003192   cfef     movff   0xfef, 0x000     	MOVFF	INDF0, r0x00
003194   f000
003196   8200     bsf     0x00, 0x1, 0x0   	BSF	r0x00, 1
003198   ee0f     lfsr    0x0, 0xfc2       	LFSR	0x00, 0xfc2
00319a   f0c2
00319c   c000     movff   0x000, 0xfef     	MOVFF	r0x00, INDF0
00319e   ffef
                                           _00148_DS_:
                                           ;	.line	63; adc.c	while(bitTst(ADCON0,1)); // espera terminar a converso;
0031a0   ee0f     lfsr    0x0, 0xfc2       	LFSR	0x00, 0xfc2
0031a2   f0c2
0031a4   cfef     movff   0xfef, 0x000     	MOVFF	INDF0, r0x00
0031a6   f000
0031a8   b200     btfsc   0x00, 0x1, 0x0   	BTFSC	r0x00, 1
0031aa   d7fa     bra     0x0031a0         	BRA	_00148_DS_
                                           ;	.line	65; adc.c	ADvalor = ADRESH ; // le o resultado
0031ac   ee0f     lfsr    0x0, 0xfc4       	LFSR	0x00, 0xfc4
0031ae   f0c4
0031b0   cfef     movff   0xfef, 0x000     	MOVFF	INDF0, r0x00
0031b2   f000
0031b4   6a01     clrf    0x01, 0x0        	CLRF	r0x01
                                           ;	.line	66; adc.c	ADvalor <<= 8;
0031b6   5000     movf    0x00, 0x0, 0x0   	MOVF	r0x00, W
0031b8   6e01     movwf   0x01, 0x0        	MOVWF	r0x01
0031ba   6a00     clrf    0x00, 0x0        	CLRF	r0x00
                                           ;	.line	67; adc.c	ADvalor += ADRESL;
0031bc   ee0f     lfsr    0x0, 0xfc3       	LFSR	0x00, 0xfc3
0031be   f0c3
0031c0   cfef     movff   0xfef, 0x002     	MOVFF	INDF0, r0x02
0031c2   f002
0031c4   6a03     clrf    0x03, 0x0        	CLRF	r0x03
0031c6   5002     movf    0x02, 0x0, 0x0   	MOVF	r0x02, W
0031c8   2600     addwf   0x00, 0x1, 0x0   	ADDWF	r0x00, F
0031ca   5003     movf    0x03, 0x0, 0x0   	MOVF	r0x03, W
0031cc   2201     addwfc  0x01, 0x1, 0x0   	ADDWFC	r0x01, F
                                           ;	.line	69; adc.c	ADvalor = ADvalor * 1.515556; //Converte a escala de 0-675(3.3V) para 0-1023
0031ce   5001     movf    0x01, 0x0, 0x0   	MOVF	r0x01, W
0031d0   6ee5     movwf   0xe5, 0x0        	MOVWF	POSTDEC1
0031d2   5000     movf    0x00, 0x0, 0x0   	MOVF	r0x00, W
0031d4   6ee5     movwf   0xe5, 0x0        	MOVWF	POSTDEC1
0031d6   ec8b     call    0x004516, 0x0    	CALL	___uint2fs
0031d8   f022
0031da   6e02     movwf   0x02, 0x0        	MOVWF	r0x02
0031dc   cff3     movff   0xff3, 0x003     	MOVFF	PRODL, r0x03
0031de   f003
0031e0   cff4     movff   0xff4, 0x004     	MOVFF	PRODH, r0x04
0031e2   f004
0031e4   cfe9     movff   0xfe9, 0x005     	MOVFF	FSR0L, r0x05
0031e6   f005
0031e8   52e6     movf    0xe6, 0x1, 0x0   	MOVF	POSTINC1, F
0031ea   52e6     movf    0xe6, 0x1, 0x0   	MOVF	POSTINC1, F
0031ec   5005     movf    0x05, 0x0, 0x0   	MOVF	r0x05, W
0031ee   6ee5     movwf   0xe5, 0x0        	MOVWF	POSTDEC1
0031f0   5004     movf    0x04, 0x0, 0x0   	MOVF	r0x04, W
0031f2   6ee5     movwf   0xe5, 0x0        	MOVWF	POSTDEC1
0031f4   5003     movf    0x03, 0x0, 0x0   	MOVF	r0x03, W
0031f6   6ee5     movwf   0xe5, 0x0        	MOVWF	POSTDEC1
0031f8   5002     movf    0x02, 0x0, 0x0   	MOVF	r0x02, W
0031fa   6ee5     movwf   0xe5, 0x0        	MOVWF	POSTDEC1
0031fc   0e3f     movlw   0x3f             	MOVLW	0x3f
0031fe   6ee5     movwf   0xe5, 0x0        	MOVWF	POSTDEC1
003200   0ec1     movlw   0xc1             	MOVLW	0xc1
003202   6ee5     movwf   0xe5, 0x0        	MOVWF	POSTDEC1
003204   0efd     movlw   0xfd             	MOVLW	0xfd
003206   6ee5     movwf   0xe5, 0x0        	MOVWF	POSTDEC1
003208   0ebd     movlw   0xbd             	MOVLW	0xbd
00320a   6ee5     movwf   0xe5, 0x0        	MOVWF	POSTDEC1
00320c   ec90     call    0x001520, 0x0    	CALL	___fsmul
00320e   f00a
003210   6e02     movwf   0x02, 0x0        	MOVWF	r0x02
003212   cff3     movff   0xff3, 0x003     	MOVFF	PRODL, r0x03
003214   f003
003216   cff4     movff   0xff4, 0x004     	MOVFF	PRODH, r0x04
003218   f004
00321a   cfe9     movff   0xfe9, 0x005     	MOVFF	FSR0L, r0x05
00321c   f005
00321e   0e08     movlw   0x08             	MOVLW	0x08
003220   26e1     addwf   0xe1, 0x1, 0x0   	ADDWF	FSR1L, F
003222   5005     movf    0x05, 0x0, 0x0   	MOVF	r0x05, W
003224   6ee5     movwf   0xe5, 0x0        	MOVWF	POSTDEC1
003226   5004     movf    0x04, 0x0, 0x0   	MOVF	r0x04, W
003228   6ee5     movwf   0xe5, 0x0        	MOVWF	POSTDEC1
00322a   5003     movf    0x03, 0x0, 0x0   	MOVF	r0x03, W
00322c   6ee5     movwf   0xe5, 0x0        	MOVWF	POSTDEC1
00322e   5002     movf    0x02, 0x0, 0x0   	MOVF	r0x02, W
003230   6ee5     movwf   0xe5, 0x0        	MOVWF	POSTDEC1
003232   ec40     call    0x003e80, 0x0    	CALL	___fs2uint
003234   f01f
003236   6e00     movwf   0x00, 0x0        	MOVWF	r0x00
003238   cff3     movff   0xff3, 0x001     	MOVFF	PRODL, r0x01
00323a   f001
00323c   0e04     movlw   0x04             	MOVLW	0x04
00323e   26e1     addwf   0xe1, 0x1, 0x0   	ADDWF	FSR1L, F
                                           ;	.line	70; adc.c	adcInit(); //Define as portas como digitais, para ser possivel utilizar o LCD
003240   eca0     call    0x004140, 0x0    	CALL	_adcInit
003242   f020
                                           ;	.line	71; adc.c	return ADvalor;
003244   c001     movff   0x001, 0xff3     	MOVFF	r0x01, PRODL
003246   fff3
003248   5000     movf    0x00, 0x0, 0x0   	MOVF	r0x00, W
00324a   cfe4     movff   0xfe4, 0x005     	MOVFF	PREINC1, r0x05
00324c   f005
00324e   cfe4     movff   0xfe4, 0x004     	MOVFF	PREINC1, r0x04
003250   f004
003252   cfe4     movff   0xfe4, 0x003     	MOVFF	PREINC1, r0x03
003254   f003
003256   cfe4     movff   0xfe4, 0x002     	MOVFF	PREINC1, r0x02
003258   f002
00325a   cfe4     movff   0xfe4, 0x001     	MOVFF	PREINC1, r0x01
00325c   f001
00325e   cfe4     movff   0xfe4, 0x000     	MOVFF	PREINC1, r0x00
003260   f000
003262   cfe4     movff   0xfe4, 0xfd9     	MOVFF	PREINC1, FSR2L
003264   ffd9
003266   0012     return  0x0              	RETURN	

                                           ; ; Starting pCode block
                                           S_adc__adcRead	code
                                           _adcRead:
                                           ;	.line	24; adc.c	int adcRead(char ch)
003574   cfd9     movff   0xfd9, 0xfe5     	MOVFF	FSR2L, POSTDEC1
003576   ffe5
003578   cfe1     movff   0xfe1, 0xfd9     	MOVFF	FSR1L, FSR2L
00357a   ffd9
00357c   c000     movff   0x000, 0xfe5     	MOVFF	r0x00, POSTDEC1
00357e   ffe5
003580   c001     movff   0x001, 0xfe5     	MOVFF	r0x01, POSTDEC1
003582   ffe5
003584   c002     movff   0x002, 0xfe5     	MOVFF	r0x02, POSTDEC1
003586   ffe5
003588   c003     movff   0x003, 0xfe5     	MOVFF	r0x03, POSTDEC1
00358a   ffe5
00358c   0e02     movlw   0x02             	MOVLW	0x02
00358e   cfdb     movff   0xfdb, 0x000     	MOVFF	PLUSW2, r0x00
003590   f000
                                           ;	.line	28; adc.c	ADCON1 = 0x06; //At o AN8  analogico, a referencia  baseada na fonte
003592   ee0f     lfsr    0x0, 0xfc1       	LFSR	0x00, 0xfc1
003594   f0c1
003596   0e06     movlw   0x06             	MOVLW	0x06
003598   6eef     movwf   0xef, 0x0        	MOVWF	INDF0
                                           ;	.line	30; adc.c	switch(ch){        
00359a   0e05     movlw   0x05             	MOVLW	0x05
00359c   5c00     subwf   0x00, 0x0, 0x0   	SUBWF	r0x00, W
00359e   e231     bc      0x003602         	BC	_00120_DS_
0035a0   6afa     clrf    0xfa, 0x0        	CLRF	PCLATH
0035a2   6afb     clrf    0xfb, 0x0        	CLRF	PCLATU
0035a4   3400     rlcf    0x00, 0x0, 0x0   	RLCF	r0x00, W
0035a6   36fa     rlcf    0xfa, 0x1, 0x0   	RLCF	PCLATH, F
0035a8   34e8     rlcf    0xe8, 0x0, 0x0   	RLCF	WREG, W
0035aa   36fa     rlcf    0xfa, 0x1, 0x0   	RLCF	PCLATH, F
0035ac   0bfc     andlw   0xfc             	ANDLW	0xfc
0035ae   0fbe     addlw   0xbe             	ADDLW	LOW(_00136_DS_)
0035b0   6ee5     movwf   0xe5, 0x0        	MOVWF	POSTDEC1
0035b2   0e35     movlw   0x35             	MOVLW	HIGH(_00136_DS_)
0035b4   22fa     addwfc  0xfa, 0x1, 0x0   	ADDWFC	PCLATH, F
0035b6   0e00     movlw   0x00             	MOVLW	UPPER(_00136_DS_)
0035b8   22fb     addwfc  0xfb, 0x1, 0x0   	ADDWFC	PCLATU, F
0035ba   50e4     movf    0xe4, 0x0, 0x0   	MOVF	PREINC1, W
0035bc   6ef9     movwf   0xf9, 0x0        	MOVWF	PCL
                                           _00136_DS_:
0035be   efe9     goto    0x0035d2         	GOTO	_00115_DS_
0035c0   f01a
0035c2   efee     goto    0x0035dc         	GOTO	_00116_DS_
0035c4   f01a
0035c6   eff3     goto    0x0035e6         	GOTO	_00117_DS_
0035c8   f01a
0035ca   eff8     goto    0x0035f0         	GOTO	_00118_DS_
0035cc   f01a
0035ce   effd     goto    0x0035fa         	GOTO	_00119_DS_
0035d0   f01a
                                           _00115_DS_:
                                           ;	.line	31; adc.c	case DIA: ADCON0 = 0b00001001; break;//seleciona o canal 2 e liga o ad        
0035d2   ee0f     lfsr    0x0, 0xfc2       	LFSR	0x00, 0xfc2
0035d4   f0c2
0035d6   0e09     movlw   0x09             	MOVLW	0x09
0035d8   6eef     movwf   0xef, 0x0        	MOVWF	INDF0
0035da   d013     bra     0x003602         	BRA	_00120_DS_
                                           _00116_DS_:
                                           ;	.line	32; adc.c	case DIB: ADCON0 = 0b00001101; break;//seleciona o canal 3 e liga o ad
0035dc   ee0f     lfsr    0x0, 0xfc2       	LFSR	0x00, 0xfc2
0035de   f0c2
0035e0   0e0d     movlw   0x0d             	MOVLW	0x0d
0035e2   6eef     movwf   0xef, 0x0        	MOVWF	INDF0
0035e4   d00e     bra     0x003602         	BRA	_00120_DS_
                                           _00117_DS_:
                                           ;	.line	33; adc.c	case POT: ADCON0 = 0b00010001; break;//seleciona o canal 4 e liga o ad
0035e6   ee0f     lfsr    0x0, 0xfc2       	LFSR	0x00, 0xfc2
0035e8   f0c2
0035ea   0e11     movlw   0x11             	MOVLW	0x11
0035ec   6eef     movwf   0xef, 0x0        	MOVWF	INDF0
0035ee   d009     bra     0x003602         	BRA	_00120_DS_
                                           _00118_DS_:
                                           ;	.line	34; adc.c	case KP: ADCON0 = 0b00010101; break;//seleciona o canal 5 e liga o ad
0035f0   ee0f     lfsr    0x0, 0xfc2       	LFSR	0x00, 0xfc2
0035f2   f0c2
0035f4   0e15     movlw   0x15             	MOVLW	0x15
0035f6   6eef     movwf   0xef, 0x0        	MOVWF	INDF0
0035f8   d004     bra     0x003602         	BRA	_00120_DS_
                                           _00119_DS_:
                                           ;	.line	35; adc.c	case AN1: ADCON0 = 0b00011101; break;  //seleciona o canal 7 e liga o ad        
0035fa   ee0f     lfsr    0x0, 0xfc2       	LFSR	0x00, 0xfc2
0035fc   f0c2
0035fe   0e1d     movlw   0x1d             	MOVLW	0x1d
003600   6eef     movwf   0xef, 0x0        	MOVWF	INDF0
                                           _00120_DS_:
                                           ;	.line	38; adc.c	ADCON0 |= 0b00000010;	 //inicia conversao
003602   ee0f     lfsr    0x0, 0xfc2       	LFSR	0x00, 0xfc2
003604   f0c2
003606   cfef     movff   0xfef, 0x000     	MOVFF	INDF0, r0x00
003608   f000
00360a   8200     bsf     0x00, 0x1, 0x0   	BSF	r0x00, 1
00360c   ee0f     lfsr    0x0, 0xfc2       	LFSR	0x00, 0xfc2
00360e   f0c2
003610   c000     movff   0x000, 0xfef     	MOVFF	r0x00, INDF0
003612   ffef
                                           _00121_DS_:
                                           ;	.line	40; adc.c	while(bitTst(ADCON0,1)); // espera terminar a converso;
003614   ee0f     lfsr    0x0, 0xfc2       	LFSR	0x00, 0xfc2
003616   f0c2
003618   cfef     movff   0xfef, 0x000     	MOVFF	INDF0, r0x00
00361a   f000
00361c   b200     btfsc   0x00, 0x1, 0x0   	BTFSC	r0x00, 1
00361e   d7fa     bra     0x003614         	BRA	_00121_DS_
                                           ;	.line	42; adc.c	ADvalor = ADRESH ; // le o resultado
003620   ee0f     lfsr    0x0, 0xfc4       	LFSR	0x00, 0xfc4
003622   f0c4
003624   cfef     movff   0xfef, 0x000     	MOVFF	INDF0, r0x00
003626   f000
003628   6a01     clrf    0x01, 0x0        	CLRF	r0x01
                                           ;	.line	43; adc.c	ADvalor <<= 8;
00362a   5000     movf    0x00, 0x0, 0x0   	MOVF	r0x00, W
00362c   6e01     movwf   0x01, 0x0        	MOVWF	r0x01
00362e   6a00     clrf    0x00, 0x0        	CLRF	r0x00
                                           ;	.line	44; adc.c	ADvalor += ADRESL;
003630   ee0f     lfsr    0x0, 0xfc3       	LFSR	0x00, 0xfc3
003632   f0c3
003634   cfef     movff   0xfef, 0x002     	MOVFF	INDF0, r0x02
003636   f002
003638   6a03     clrf    0x03, 0x0        	CLRF	r0x03
00363a   5002     movf    0x02, 0x0, 0x0   	MOVF	r0x02, W
00363c   2600     addwf   0x00, 0x1, 0x0   	ADDWF	r0x00, F
00363e   5003     movf    0x03, 0x0, 0x0   	MOVF	r0x03, W
003640   2201     addwfc  0x01, 0x1, 0x0   	ADDWFC	r0x01, F
                                           ;	.line	45; adc.c	adcInit(); //Define as portas como digitais, para ser possivel utilizar o LCD
003642   eca0     call    0x004140, 0x0    	CALL	_adcInit
003644   f020
                                           ;	.line	46; adc.c	return ADvalor;
003646   c001     movff   0x001, 0xff3     	MOVFF	r0x01, PRODL
003648   fff3
00364a   5000     movf    0x00, 0x0, 0x0   	MOVF	r0x00, W
00364c   cfe4     movff   0xfe4, 0x003     	MOVFF	PREINC1, r0x03
00364e   f003
003650   cfe4     movff   0xfe4, 0x002     	MOVFF	PREINC1, r0x02
003652   f002
003654   cfe4     movff   0xfe4, 0x001     	MOVFF	PREINC1, r0x01
003656   f001
003658   cfe4     movff   0xfe4, 0x000     	MOVFF	PREINC1, r0x00
00365a   f000
00365c   cfe4     movff   0xfe4, 0xfd9     	MOVFF	PREINC1, FSR2L
00365e   ffd9
003660   0012     return  0x0              	RETURN	

                                           ; ; Starting pCode block
                                           S_adc__adcAN	code
                                           _adcAN:
                                           ;	.line	17; adc.c	void adcAN(void)
004ed2   cfd9     movff   0xfd9, 0xfe5     	MOVFF	FSR2L, POSTDEC1
004ed4   ffe5
004ed6   cfe1     movff   0xfe1, 0xfd9     	MOVFF	FSR1L, FSR2L
004ed8   ffd9
                                           ;	.line	19; adc.c	ADCON0 = 0b00010001; //Liga o ad
004eda   ee0f     lfsr    0x0, 0xfc2       	LFSR	0x00, 0xfc2
004edc   f0c2
004ede   0e11     movlw   0x11             	MOVLW	0x11
004ee0   6eef     movwf   0xef, 0x0        	MOVWF	INDF0
                                           ;	.line	20; adc.c	ADCON1 = 0x06; //At o AN8  analogico, a referencia  baseada na fonte
004ee2   ee0f     lfsr    0x0, 0xfc1       	LFSR	0x00, 0xfc1
004ee4   f0c1
004ee6   0e06     movlw   0x06             	MOVLW	0x06
004ee8   6eef     movwf   0xef, 0x0        	MOVWF	INDF0
                                           ;	.line	21; adc.c	ADCON2 = 0b10101010; //FOSC /32, Alinhamento  direita e tempo de conv = 12 TAD
004eea   ee0f     lfsr    0x0, 0xfc0       	LFSR	0x00, 0xfc0
004eec   f0c0
004eee   0eaa     movlw   0xaa             	MOVLW	0xaa
004ef0   6eef     movwf   0xef, 0x0        	MOVWF	INDF0
004ef2   cfe4     movff   0xfe4, 0xfd9     	MOVFF	PREINC1, FSR2L
004ef4   ffd9
004ef6   0012     return  0x0              	RETURN	

                                           ; ; Starting pCode block
                                           S_adc__adcInit	code
                                           _adcInit:
                                           ;	.line	5; adc.c	void adcInit(void)
004140   cfd9     movff   0xfd9, 0xfe5     	MOVFF	FSR2L, POSTDEC1
004142   ffe5
004144   cfe1     movff   0xfe1, 0xfd9     	MOVFF	FSR1L, FSR2L
004146   ffd9
004148   c000     movff   0x000, 0xfe5     	MOVFF	r0x00, POSTDEC1
00414a   ffe5
                                           ;	.line	7; adc.c	bitClr(TRISA,0); //Inicializa o pino conectado ao RS do LCD como output
00414c   ee0f     lfsr    0x0, 0xf92       	LFSR	0x00, 0xf92
00414e   f092
004150   cfef     movff   0xfef, 0x000     	MOVFF	INDF0, r0x00
004152   f000
004154   9000     bcf     0x00, 0x0, 0x0   	BCF	r0x00, 0
004156   ee0f     lfsr    0x0, 0xf92       	LFSR	0x00, 0xf92
004158   f092
00415a   c000     movff   0x000, 0xfef     	MOVFF	r0x00, INDF0
00415c   ffef
                                           ;	.line	8; adc.c	bitClr(TRISA,1); //Inicializa o pino conectado ao EN do LCD como output
00415e   ee0f     lfsr    0x0, 0xf92       	LFSR	0x00, 0xf92
004160   f092
004162   cfef     movff   0xfef, 0x000     	MOVFF	INDF0, r0x00
004164   f000
004166   9200     bcf     0x00, 0x1, 0x0   	BCF	r0x00, 1
004168   ee0f     lfsr    0x0, 0xf92       	LFSR	0x00, 0xf92
00416a   f092
00416c   c000     movff   0x000, 0xfef     	MOVFF	r0x00, INDF0
00416e   ffef
                                           ;	.line	9; adc.c	bitSet(TRISA,2); 	
004170   ee0f     lfsr    0x0, 0xf92       	LFSR	0x00, 0xf92
004172   f092
004174   cfef     movff   0xfef, 0x000     	MOVFF	INDF0, r0x00
004176   f000
004178   8400     bsf     0x00, 0x2, 0x0   	BSF	r0x00, 2
00417a   ee0f     lfsr    0x0, 0xf92       	LFSR	0x00, 0xf92
00417c   f092
00417e   c000     movff   0x000, 0xfef     	MOVFF	r0x00, INDF0
004180   ffef
                                           ;	.line	10; adc.c	bitSet(TRISA,3);
004182   ee0f     lfsr    0x0, 0xf92       	LFSR	0x00, 0xf92
004184   f092
004186   cfef     movff   0xfef, 0x000     	MOVFF	INDF0, r0x00
004188   f000
00418a   8600     bsf     0x00, 0x3, 0x0   	BSF	r0x00, 3
00418c   ee0f     lfsr    0x0, 0xf92       	LFSR	0x00, 0xf92
00418e   f092
004190   c000     movff   0x000, 0xfef     	MOVFF	r0x00, INDF0
004192   ffef
                                           ;	.line	11; adc.c	bitSet(TRISA,5);    
004194   ee0f     lfsr    0x0, 0xf92       	LFSR	0x00, 0xf92
004196   f092
004198   cfef     movff   0xfef, 0x000     	MOVFF	INDF0, r0x00
00419a   f000
00419c   8a00     bsf     0x00, 0x5, 0x0   	BSF	r0x00, 5
00419e   ee0f     lfsr    0x0, 0xf92       	LFSR	0x00, 0xf92
0041a0   f092
0041a2   c000     movff   0x000, 0xfef     	MOVFF	r0x00, INDF0
0041a4   ffef
                                           ;	.line	12; adc.c	ADCON0 = 0b00010000; //Desliga o ad
0041a6   ee0f     lfsr    0x0, 0xfc2       	LFSR	0x00, 0xfc2
0041a8   f0c2
0041aa   0e10     movlw   0x10             	MOVLW	0x10
0041ac   6eef     movwf   0xef, 0x0        	MOVWF	INDF0
                                           ;	.line	13; adc.c	ADCON1 = 0x0F; //Todos Digitais, a referencia  baseada na fonte
0041ae   ee0f     lfsr    0x0, 0xfc1       	LFSR	0x00, 0xfc1
0041b0   f0c1
0041b2   0e0f     movlw   0x0f             	MOVLW	0x0f
0041b4   6eef     movwf   0xef, 0x0        	MOVWF	INDF0
                                           ;	.line	14; adc.c	ADCON2 = 0b10101010; //FOSC /32, Alinhamento  direita e tempo de conv = 12 TAD
0041b6   ee0f     lfsr    0x0, 0xfc0       	LFSR	0x00, 0xfc0
0041b8   f0c0
0041ba   0eaa     movlw   0xaa             	MOVLW	0xaa
0041bc   6eef     movwf   0xef, 0x0        	MOVWF	INDF0
0041be   cfe4     movff   0xfe4, 0x000     	MOVFF	PREINC1, r0x00
0041c0   f000
0041c2   cfe4     movff   0xfe4, 0xfd9     	MOVFF	PREINC1, FSR2L
0041c4   ffd9
0041c6   0012     return  0x0              	RETURN	



                                           ; Statistics:
                                           ; code size:	  738 (0x02e2) bytes ( 0.56%)
                                           ;           	  369 (0x0171) words
                                           ; udata size:	    0 (0x0000) bytes ( 0.00%)
                                           ; access size:	    6 (0x0006) bytes


                                           	end
                                           ;--------------------------------------------------------
                                           ; File Created by SDCC : free open source ANSI-C Compiler
                                           ; Version 3.6.0 #9615 (MINGW64)
                                           ;--------------------------------------------------------
                                           ; PIC16 port for the Microchip 16-bit core micros
                                           ;--------------------------------------------------------
                                           	list	p=18f4550
                                           	radix	dec
                                           	CONFIG	MCLRE=ON
                                           	CONFIG	FOSC=HS
                                           	CONFIG	WDT=OFF
                                           	CONFIG	LVP=OFF
                                           	CONFIG	ICPRT=ON
                                           	CONFIG	XINST=OFF


                                           ;--------------------------------------------------------
                                           ; public variables in this module
                                           ;--------------------------------------------------------
                                           	global	_main

                                           ;--------------------------------------------------------
                                           ; extern variables in this module
                                           ;--------------------------------------------------------
                                           	extern	_timerWait
                                           	extern	_timerReset
                                           	extern	_timerInit
                                           	extern	_eventInit
                                           	extern	_varInit
                                           	extern	_getTime
                                           	extern	_smLoop
                                           	extern	_outputInit
                                           	extern	_ledInit
                                           	extern	_controlAlarms
                                           	extern	_rtcStart
                                           	extern	_rtcMin
                                           	extern	_rtcHour
                                           	extern	_rtcYear

                                           ;--------------------------------------------------------
                                           ;	Equates to used internal registers
                                           ;--------------------------------------------------------
                                           POSTINC1	equ	0xfe6
                                           POSTDEC1	equ	0xfe5
                                           PRODL	equ	0xff3


                                           ; Internal registers
                                           .registers	udata_ovr	0x0000
                                           r0x00	res	1
                                           r0x01	res	1

                                           ;--------------------------------------------------------
                                           ; interrupt vector
                                           ;--------------------------------------------------------

                                           ;--------------------------------------------------------
                                           ; global & static initialisations
                                           ;--------------------------------------------------------
                                           ; I code from now on!
                                           ; ; Starting pCode block
                                           S_main__main	code
                                           _main:
                                           ;	.line	15; main.c	timerInit();
0046aa   ecc0     call    0x004d80, 0x0    	CALL	_timerInit
0046ac   f026
                                           ;	.line	16; main.c	varInit();
0046ae   ece0     call    0x0047c0, 0x0    	CALL	_varInit
0046b0   f023
                                           ;	.line	17; main.c	eventInit();
0046b2   ec04     call    0x005008, 0x0    	CALL	_eventInit
0046b4   f028
                                           ;	.line	18; main.c	outputInit();      
0046b6   ec33     call    0x002266, 0x0    	CALL	_outputInit
0046b8   f011
                                           ;	.line	19; main.c	ledInit();  
0046ba   ec85     call    0x00470a, 0x0    	CALL	_ledInit
0046bc   f023
                                           ;	.line	20; main.c	rtcMin(0x30);
0046be   0e30     movlw   0x30             	MOVLW	0x30
0046c0   6ee5     movwf   0xe5, 0x0        	MOVWF	POSTDEC1
0046c2   ec93     call    0x004b26, 0x0    	CALL	_rtcMin
0046c4   f025
0046c6   52e6     movf    0xe6, 0x1, 0x0   	MOVF	POSTINC1, F
                                           ;	.line	21; main.c	rtcHour(0x14);
0046c8   0e14     movlw   0x14             	MOVLW	0x14
0046ca   6ee5     movwf   0xe5, 0x0        	MOVWF	POSTDEC1
0046cc   ec6d     call    0x004ada, 0x0    	CALL	_rtcHour
0046ce   f025
0046d0   52e6     movf    0xe6, 0x1, 0x0   	MOVF	POSTINC1, F
                                           ;	.line	22; main.c	rtcYear(0x17);    
0046d2   0e17     movlw   0x17             	MOVLW	0x17
0046d4   6ee5     movwf   0xe5, 0x0        	MOVWF	POSTDEC1
0046d6   ecd5     call    0x0049aa, 0x0    	CALL	_rtcYear
0046d8   f024
0046da   52e6     movf    0xe6, 0x1, 0x0   	MOVF	POSTINC1, F
                                           ;	.line	23; main.c	rtcStart();     
0046dc   ec00     call    0x004c00, 0x0    	CALL	_rtcStart
0046de   f026
                                           _00106_DS_:
                                           ;	.line	26; main.c	timerReset(getTime());
0046e0   ec42     call    0x004e84, 0x0    	CALL	_getTime
0046e2   f027
0046e4   6e00     movwf   0x00, 0x0        	MOVWF	r0x00
0046e6   cff3     movff   0xff3, 0x001     	MOVFF	PRODL, r0x01
0046e8   f001
0046ea   5001     movf    0x01, 0x0, 0x0   	MOVF	r0x01, W
0046ec   6ee5     movwf   0xe5, 0x0        	MOVWF	POSTDEC1
0046ee   5000     movf    0x00, 0x0, 0x0   	MOVF	r0x00, W
0046f0   6ee5     movwf   0xe5, 0x0        	MOVWF	POSTDEC1
0046f2   ec81     call    0x003902, 0x0    	CALL	_timerReset
0046f4   f01c
0046f6   52e6     movf    0xe6, 0x1, 0x0   	MOVF	POSTINC1, F
0046f8   52e6     movf    0xe6, 0x1, 0x0   	MOVF	POSTINC1, F
                                           ;	.line	30; main.c	controlAlarms();
0046fa   ec02     call    0x000004, 0x0    	CALL	_controlAlarms
0046fc   f000
                                           ;	.line	32; main.c	smLoop();
0046fe   ec5a     call    0x0018b4, 0x0    	CALL	_smLoop
004700   f00c
                                           ;	.line	34; main.c	timerWait();
004702   ecc4     call    0x004f88, 0x0    	CALL	_timerWait
004704   f027
004706   d7ec     bra     0x0046e0         	BRA	_00106_DS_
004708   0012     return  0x0              	RETURN	



                                           ; Statistics:
                                           ; code size:	   96 (0x0060) bytes ( 0.07%)
                                           ;           	   48 (0x0030) words
                                           ; udata size:	    0 (0x0000) bytes ( 0.00%)
                                           ; access size:	    2 (0x0002) bytes


                                           	end
                                           ;--------------------------------------------------------
                                           ; File Created by SDCC : free open source ANSI-C Compiler
                                           ; Version 3.6.0 #9615 (MINGW64)
                                           ;--------------------------------------------------------
                                           ; PIC16 port for the Microchip 16-bit core micros
                                           ;--------------------------------------------------------
                                           	list	p=18f4550
                                           	radix	dec


                                           ;--------------------------------------------------------
                                           ; public variables in this module
                                           ;--------------------------------------------------------
                                           	global	_i2cInit
                                           	global	_i2cStart
                                           	global	_i2cRestart
                                           	global	_i2cStop
                                           	global	_i2cWait
                                           	global	_i2cSend
                                           	global	_i2cRead

                                           ;--------------------------------------------------------
                                           ; extern variables in this module
                                           ;--------------------------------------------------------
                                           	extern	_SPPCFGbits
                                           	extern	_SPPEPSbits
                                           	extern	_SPPCONbits
                                           	extern	_UFRMLbits
                                           	extern	_UFRMHbits
                                           	extern	_UIRbits
                                           	extern	_UIEbits
                                           	extern	_UEIRbits
                                           	extern	_UEIEbits
                                           	extern	_USTATbits
                                           	extern	_UCONbits
                                           	extern	_UADDRbits
                                           	extern	_UCFGbits
                                           	extern	_UEP0bits
                                           	extern	_UEP1bits
                                           	extern	_UEP2bits
                                           	extern	_UEP3bits
                                           	extern	_UEP4bits
                                           	extern	_UEP5bits
                                           	extern	_UEP6bits
                                           	extern	_UEP7bits
                                           	extern	_UEP8bits
                                           	extern	_UEP9bits
                                           	extern	_UEP10bits
                                           	extern	_UEP11bits
                                           	extern	_UEP12bits
                                           	extern	_UEP13bits
                                           	extern	_UEP14bits
                                           	extern	_UEP15bits
                                           	extern	_PORTAbits
                                           	extern	_PORTBbits
                                           	extern	_PORTCbits
                                           	extern	_PORTDbits
                                           	extern	_PORTEbits
                                           	extern	_LATAbits
                                           	extern	_LATBbits
                                           	extern	_LATCbits
                                           	extern	_LATDbits
                                           	extern	_LATEbits
                                           	extern	_DDRAbits
                                           	extern	_TRISAbits
                                           	extern	_DDRBbits
                                           	extern	_TRISBbits
                                           	extern	_DDRCbits
                                           	extern	_TRISCbits
                                           	extern	_DDRDbits
                                           	extern	_TRISDbits
                                           	extern	_DDREbits
                                           	extern	_TRISEbits
                                           	extern	_OSCTUNEbits
                                           	extern	_PIE1bits
                                           	extern	_PIR1bits
                                           	extern	_IPR1bits
                                           	extern	_PIE2bits
                                           	extern	_PIR2bits
                                           	extern	_IPR2bits
                                           	extern	_EECON1bits
                                           	extern	_RCSTAbits
                                           	extern	_TXSTAbits
                                           	extern	_T3CONbits
                                           	extern	_CMCONbits
                                           	extern	_CVRCONbits
                                           	extern	_CCP1ASbits
                                           	extern	_ECCP1ASbits
                                           	extern	_CCP1DELbits
                                           	extern	_ECCP1DELbits
                                           	extern	_BAUDCONbits
                                           	extern	_BAUDCTLbits
                                           	extern	_CCP2CONbits
                                           	extern	_CCP1CONbits
                                           	extern	_ECCP1CONbits
                                           	extern	_ADCON2bits
                                           	extern	_ADCON1bits
                                           	extern	_ADCON0bits
                                           	extern	_SSPCON2bits
                                           	extern	_SSPCON1bits
                                           	extern	_SSPSTATbits
                                           	extern	_T2CONbits
                                           	extern	_T1CONbits
                                           	extern	_RCONbits
                                           	extern	_WDTCONbits
                                           	extern	_HLVDCONbits
                                           	extern	_LVDCONbits
                                           	extern	_OSCCONbits
                                           	extern	_T0CONbits
                                           	extern	_STATUSbits
                                           	extern	_INTCON3bits
                                           	extern	_INTCON2bits
                                           	extern	_INTCONbits
                                           	extern	_STKPTRbits
                                           	extern	_SPPDATA
                                           	extern	_SPPCFG
                                           	extern	_SPPEPS
                                           	extern	_SPPCON
                                           	extern	_UFRM
                                           	extern	_UFRML
                                           	extern	_UFRMH
                                           	extern	_UIR
                                           	extern	_UIE
                                           	extern	_UEIR
                                           	extern	_UEIE
                                           	extern	_USTAT
                                           	extern	_UCON
                                           	extern	_UADDR
                                           	extern	_UCFG
                                           	extern	_UEP0
                                           	extern	_UEP1
                                           	extern	_UEP2
                                           	extern	_UEP3
                                           	extern	_UEP4
                                           	extern	_UEP5
                                           	extern	_UEP6
                                           	extern	_UEP7
                                           	extern	_UEP8
                                           	extern	_UEP9
                                           	extern	_UEP10
                                           	extern	_UEP11
                                           	extern	_UEP12
                                           	extern	_UEP13
                                           	extern	_UEP14
                                           	extern	_UEP15
                                           	extern	_PORTA
                                           	extern	_PORTB
                                           	extern	_PORTC
                                           	extern	_PORTD
                                           	extern	_PORTE
                                           	extern	_LATA
                                           	extern	_LATB
                                           	extern	_LATC
                                           	extern	_LATD
                                           	extern	_LATE
                                           	extern	_DDRA
                                           	extern	_TRISA
                                           	extern	_DDRB
                                           	extern	_TRISB
                                           	extern	_DDRC
                                           	extern	_TRISC
                                           	extern	_DDRD
                                           	extern	_TRISD
                                           	extern	_DDRE
                                           	extern	_TRISE
                                           	extern	_OSCTUNE
                                           	extern	_PIE1
                                           	extern	_PIR1
                                           	extern	_IPR1
                                           	extern	_PIE2
                                           	extern	_PIR2
                                           	extern	_IPR2
                                           	extern	_EECON1
                                           	extern	_EECON2
                                           	extern	_EEDATA
                                           	extern	_EEADR
                                           	extern	_RCSTA
                                           	extern	_TXSTA
                                           	extern	_TXREG
                                           	extern	_RCREG
                                           	extern	_SPBRG
                                           	extern	_SPBRGH
                                           	extern	_T3CON
                                           	extern	_TMR3
                                           	extern	_TMR3L
                                           	extern	_TMR3H
                                           	extern	_CMCON
                                           	extern	_CVRCON
                                           	extern	_CCP1AS
                                           	extern	_ECCP1AS
                                           	extern	_CCP1DEL
                                           	extern	_ECCP1DEL
                                           	extern	_BAUDCON
                                           	extern	_BAUDCTL
                                           	extern	_CCP2CON
                                           	extern	_CCPR2
                                           	extern	_CCPR2L
                                           	extern	_CCPR2H
                                           	extern	_CCP1CON
                                           	extern	_ECCP1CON
                                           	extern	_CCPR1
                                           	extern	_CCPR1L
                                           	extern	_CCPR1H
                                           	extern	_ADCON2
                                           	extern	_ADCON1
                                           	extern	_ADCON0
                                           	extern	_ADRES
                                           	extern	_ADRESL
                                           	extern	_ADRESH
                                           	extern	_SSPCON2
                                           	extern	_SSPCON1
                                           	extern	_SSPSTAT
                                           	extern	_SSPADD
                                           	extern	_SSPBUF
                                           	extern	_T2CON
                                           	extern	_PR2
                                           	extern	_TMR2
                                           	extern	_T1CON
                                           	extern	_TMR1
                                           	extern	_TMR1L
                                           	extern	_TMR1H
                                           	extern	_RCON
                                           	extern	_WDTCON
                                           	extern	_HLVDCON
                                           	extern	_LVDCON
                                           	extern	_OSCCON
                                           	extern	_T0CON
                                           	extern	_TMR0
                                           	extern	_TMR0L
                                           	extern	_TMR0H
                                           	extern	_STATUS
                                           	extern	_FSR2L
                                           	extern	_FSR2H
                                           	extern	_PLUSW2
                                           	extern	_PREINC2
                                           	extern	_POSTDEC2
                                           	extern	_POSTINC2
                                           	extern	_INDF2
                                           	extern	_BSR
                                           	extern	_FSR1L
                                           	extern	_FSR1H
                                           	extern	_PLUSW1
                                           	extern	_PREINC1
                                           	extern	_POSTDEC1
                                           	extern	_POSTINC1
                                           	extern	_INDF1
                                           	extern	_WREG
                                           	extern	_FSR0L
                                           	extern	_FSR0H
                                           	extern	_PLUSW0
                                           	extern	_PREINC0
                                           	extern	_POSTDEC0
                                           	extern	_POSTINC0
                                           	extern	_INDF0
                                           	extern	_INTCON3
                                           	extern	_INTCON2
                                           	extern	_INTCON
                                           	extern	_PROD
                                           	extern	_PRODL
                                           	extern	_PRODH
                                           	extern	_TABLAT
                                           	extern	_TBLPTR
                                           	extern	_TBLPTRL
                                           	extern	_TBLPTRH
                                           	extern	_TBLPTRU
                                           	extern	_PC
                                           	extern	_PCL
                                           	extern	_PCLATH
                                           	extern	_PCLATU
                                           	extern	_STKPTR
                                           	extern	_TOS
                                           	extern	_TOSL
                                           	extern	_TOSH
                                           	extern	_TOSU

                                           ;--------------------------------------------------------
                                           ;	Equates to used internal registers
                                           ;--------------------------------------------------------
                                           WREG	equ	0xfe8
                                           FSR1L	equ	0xfe1
                                           FSR2L	equ	0xfd9
                                           POSTDEC1	equ	0xfe5
                                           PREINC1	equ	0xfe4
                                           PLUSW2	equ	0xfdb


                                           ; Internal registers
                                           .registers	udata_ovr	0x0000
                                           r0x00	res	1
                                           r0x01	res	1

                                           ;--------------------------------------------------------
                                           ; global & static initialisations
                                           ;--------------------------------------------------------
                                           ; I code from now on!
                                           ; ; Starting pCode block
                                           S_i2c__i2cRead	code
                                           _i2cRead:
                                           ;	.line	68; i2c.c	unsigned char i2cRead(void)
004c3e   cfd9     movff   0xfd9, 0xfe5     	MOVFF	FSR2L, POSTDEC1
004c40   ffe5
004c42   cfe1     movff   0xfe1, 0xfd9     	MOVFF	FSR1L, FSR2L
004c44   ffd9
004c46   c000     movff   0x000, 0xfe5     	MOVFF	r0x00, POSTDEC1
004c48   ffe5
004c4a   c001     movff   0x001, 0xfe5     	MOVFF	r0x01, POSTDEC1
004c4c   ffe5
                                           ;	.line	71; i2c.c	SSPCON2bits.RCEN = 1;        /* Enable data reception */
004c4e   86c5     bsf     0xc5, 0x3, 0x0   	BSF	_SSPCON2bits, 3
                                           _00184_DS_:
                                           ;	.line	72; i2c.c	while(SSPSTATbits.BF == 0)      /* wait for buffer full */
004c50   a0c7     btfss   0xc7, 0x0, 0x0   	BTFSS	_SSPSTATbits, 0
004c52   d7fe     bra     0x004c50         	BRA	_00184_DS_
                                           ;	.line	74; i2c.c	temp = SSPBUF;   /* Read serial buffer and store in temp register */
004c54   cfc9     movff   0xfc9, 0x000     	MOVFF	_SSPBUF, r0x00
004c56   f000
                                           ;	.line	75; i2c.c	i2cWait();       /* wait to check any pending transfer */
004c58   ec76     call    0x004cec, 0x0    	CALL	_i2cWait
004c5a   f026
                                           ;	.line	76; i2c.c	SSPCON2bits.ACKDT=1;				//send not acknowledge
004c5c   8ac5     bsf     0xc5, 0x5, 0x0   	BSF	_SSPCON2bits, 5
                                           ;	.line	77; i2c.c	SSPCON2bits.ACKEN=1;
004c5e   88c5     bsf     0xc5, 0x4, 0x0   	BSF	_SSPCON2bits, 4
                                           _00187_DS_:
                                           ;	.line	78; i2c.c	while(SSPCON2bits.ACKEN == 1) 
004c60   6a01     clrf    0x01, 0x0        	CLRF	r0x01
004c62   b8c5     btfsc   0xc5, 0x4, 0x0   	BTFSC	_SSPCON2bits, 4
004c64   2a01     incf    0x01, 0x1, 0x0   	INCF	r0x01, F
004c66   5001     movf    0x01, 0x0, 0x0   	MOVF	r0x01, W
004c68   0a01     xorlw   0x01             	XORLW	0x01
004c6a   e0fa     bz      0x004c60         	BZ	_00187_DS_
                                           ;	.line	81; i2c.c	return temp;     /* Return the read data from bus */
004c6c   5000     movf    0x00, 0x0, 0x0   	MOVF	r0x00, W
004c6e   cfe4     movff   0xfe4, 0x001     	MOVFF	PREINC1, r0x01
004c70   f001
004c72   cfe4     movff   0xfe4, 0x000     	MOVFF	PREINC1, r0x00
004c74   f000
004c76   cfe4     movff   0xfe4, 0xfd9     	MOVFF	PREINC1, FSR2L
004c78   ffd9
004c7a   0012     return  0x0              	RETURN	

                                           ; ; Starting pCode block
                                           S_i2c__i2cSend	code
                                           _i2cSend:
                                           ;	.line	61; i2c.c	void i2cSend(unsigned char dat)
004fec   cfd9     movff   0xfd9, 0xfe5     	MOVFF	FSR2L, POSTDEC1
004fee   ffe5
004ff0   cfe1     movff   0xfe1, 0xfd9     	MOVFF	FSR1L, FSR2L
004ff2   ffd9
004ff4   0e02     movlw   0x02             	MOVLW	0x02
004ff6   cfdb     movff   0xfdb, 0xfc9     	MOVFF	PLUSW2, _SSPBUF
004ff8   ffc9
                                           _00176_DS_:
                                           ;	.line	64; i2c.c	while(SSPSTATbits.BF);       /* wait till complete data is sent from buffer */
004ffa   b0c7     btfsc   0xc7, 0x0, 0x0   	BTFSC	_SSPSTATbits, 0
004ffc   d7fe     bra     0x004ffa         	BRA	_00176_DS_
                                           ;	.line	65; i2c.c	i2cWait();       /* wait for any pending transfer */
004ffe   ec76     call    0x004cec, 0x0    	CALL	_i2cWait
005000   f026
005002   cfe4     movff   0xfe4, 0xfd9     	MOVFF	PREINC1, FSR2L
005004   ffd9
005006   0012     return  0x0              	RETURN	

                                           ; ; Starting pCode block
                                           S_i2c__i2cWait	code
                                           _i2cWait:
                                           ;	.line	49; i2c.c	void i2cWait(void)
004cec   cfd9     movff   0xfd9, 0xfe5     	MOVFF	FSR2L, POSTDEC1
004cee   ffe5
004cf0   cfe1     movff   0xfe1, 0xfd9     	MOVFF	FSR1L, FSR2L
004cf2   ffd9
004cf4   c000     movff   0x000, 0xfe5     	MOVFF	r0x00, POSTDEC1
004cf6   ffe5
                                           _00152_DS_:
                                           ;	.line	51; i2c.c	while(SSPSTATbits.R_NOT_W == 1)
004cf8   6a00     clrf    0x00, 0x0        	CLRF	r0x00
004cfa   b4c7     btfsc   0xc7, 0x2, 0x0   	BTFSC	_SSPSTATbits, 2
004cfc   2a00     incf    0x00, 0x1, 0x0   	INCF	r0x00, F
004cfe   5000     movf    0x00, 0x0, 0x0   	MOVF	r0x00, W
004d00   0a01     xorlw   0x01             	XORLW	0x01
004d02   e0fa     bz      0x004cf8         	BZ	_00152_DS_
                                           ;	.line	53; i2c.c	if(SSPCON2bits.ACKSTAT == 1)
004d04   6a00     clrf    0x00, 0x0        	CLRF	r0x00
004d06   bcc5     btfsc   0xc5, 0x6, 0x0   	BTFSC	_SSPCON2bits, 6
004d08   2a00     incf    0x00, 0x1, 0x0   	INCF	r0x00, F
004d0a   5000     movf    0x00, 0x0, 0x0   	MOVF	r0x00, W
004d0c   0a01     xorlw   0x01             	XORLW	0x01
004d0e   e102     bnz     0x004d14         	BNZ	_00157_DS_
                                           ;	.line	55; i2c.c	i2cStop();
004d10   ec7c     call    0x004ef8, 0x0    	CALL	_i2cStop
004d12   f027
                                           _00157_DS_:
004d14   cfe4     movff   0xfe4, 0x000     	MOVFF	PREINC1, r0x00
004d16   f000
004d18   cfe4     movff   0xfe4, 0xfd9     	MOVFF	PREINC1, FSR2L
004d1a   ffd9
004d1c   0012     return  0x0              	RETURN	

                                           ; ; Starting pCode block
                                           S_i2c__i2cStop	code
                                           _i2cStop:
                                           ;	.line	42; i2c.c	void i2cStop(void)
004ef8   cfd9     movff   0xfd9, 0xfe5     	MOVFF	FSR2L, POSTDEC1
004efa   ffe5
004efc   cfe1     movff   0xfe1, 0xfd9     	MOVFF	FSR1L, FSR2L
004efe   ffd9
004f00   c000     movff   0x000, 0xfe5     	MOVFF	r0x00, POSTDEC1
004f02   ffe5
                                           ;	.line	44; i2c.c	SSPCON2bits.PEN=1;
004f04   84c5     bsf     0xc5, 0x2, 0x0   	BSF	_SSPCON2bits, 2
                                           _00138_DS_:
                                           ;	.line	45; i2c.c	while(SSPCON2bits.PEN==1)
004f06   6a00     clrf    0x00, 0x0        	CLRF	r0x00
004f08   b4c5     btfsc   0xc5, 0x2, 0x0   	BTFSC	_SSPCON2bits, 2
004f0a   2a00     incf    0x00, 0x1, 0x0   	INCF	r0x00, F
004f0c   5000     movf    0x00, 0x0, 0x0   	MOVF	r0x00, W
004f0e   0a01     xorlw   0x01             	XORLW	0x01
004f10   e0fa     bz      0x004f06         	BZ	_00138_DS_
                                           ;	.line	46; i2c.c	continue;
004f12   cfe4     movff   0xfe4, 0x000     	MOVFF	PREINC1, r0x00
004f14   f000
004f16   cfe4     movff   0xfe4, 0xfd9     	MOVFF	PREINC1, FSR2L
004f18   ffd9
004f1a   0012     return  0x0              	RETURN	

                                           ; ; Starting pCode block
                                           S_i2c__i2cRestart	code
                                           _i2cRestart:
                                           ;	.line	32; i2c.c	void i2cRestart(void)
004f1c   cfd9     movff   0xfd9, 0xfe5     	MOVFF	FSR2L, POSTDEC1
004f1e   ffe5
004f20   cfe1     movff   0xfe1, 0xfd9     	MOVFF	FSR1L, FSR2L
004f22   ffd9
004f24   c000     movff   0x000, 0xfe5     	MOVFF	r0x00, POSTDEC1
004f26   ffe5
                                           ;	.line	34; i2c.c	SSPCON2bits.RSEN = 1;
004f28   82c5     bsf     0xc5, 0x1, 0x0   	BSF	_SSPCON2bits, 1
                                           _00124_DS_:
                                           ;	.line	36; i2c.c	while (SSPCON2bits.RSEN == 1)
004f2a   6a00     clrf    0x00, 0x0        	CLRF	r0x00
004f2c   b2c5     btfsc   0xc5, 0x1, 0x0   	BTFSC	_SSPCON2bits, 1
004f2e   2a00     incf    0x00, 0x1, 0x0   	INCF	r0x00, F
004f30   5000     movf    0x00, 0x0, 0x0   	MOVF	r0x00, W
004f32   0a01     xorlw   0x01             	XORLW	0x01
004f34   e0fa     bz      0x004f2a         	BZ	_00124_DS_
                                           ;	.line	37; i2c.c	continue;
004f36   cfe4     movff   0xfe4, 0x000     	MOVFF	PREINC1, r0x00
004f38   f000
004f3a   cfe4     movff   0xfe4, 0xfd9     	MOVFF	PREINC1, FSR2L
004f3c   ffd9
004f3e   0012     return  0x0              	RETURN	

                                           ; ; Starting pCode block
                                           S_i2c__i2cStart	code
                                           _i2cStart:
                                           ;	.line	21; i2c.c	void i2cStart(void)
004f40   cfd9     movff   0xfd9, 0xfe5     	MOVFF	FSR2L, POSTDEC1
004f42   ffe5
004f44   cfe1     movff   0xfe1, 0xfd9     	MOVFF	FSR1L, FSR2L
004f46   ffd9
004f48   c000     movff   0x000, 0xfe5     	MOVFF	r0x00, POSTDEC1
004f4a   ffe5
                                           ;	.line	23; i2c.c	SSPCON2bits.SEN = 1;
004f4c   80c5     bsf     0xc5, 0x0, 0x0   	BSF	_SSPCON2bits, 0
                                           _00110_DS_:
                                           ;	.line	25; i2c.c	while (SSPCON2bits.SEN == 1)
004f4e   6a00     clrf    0x00, 0x0        	CLRF	r0x00
004f50   b0c5     btfsc   0xc5, 0x0, 0x0   	BTFSC	_SSPCON2bits, 0
004f52   2a00     incf    0x00, 0x1, 0x0   	INCF	r0x00, F
004f54   5000     movf    0x00, 0x0, 0x0   	MOVF	r0x00, W
004f56   0a01     xorlw   0x01             	XORLW	0x01
004f58   e0fa     bz      0x004f4e         	BZ	_00110_DS_
                                           ;	.line	26; i2c.c	continue;
004f5a   cfe4     movff   0xfe4, 0x000     	MOVFF	PREINC1, r0x00
004f5c   f000
004f5e   cfe4     movff   0xfe4, 0xfd9     	MOVFF	PREINC1, FSR2L
004f60   ffd9
004f62   0012     return  0x0              	RETURN	

                                           ; ; Starting pCode block
                                           S_i2c__i2cInit	code
                                           _i2cInit:
                                           ;	.line	4; i2c.c	void i2cInit()
004fcc   cfd9     movff   0xfd9, 0xfe5     	MOVFF	FSR2L, POSTDEC1
004fce   ffe5
004fd0   cfe1     movff   0xfe1, 0xfd9     	MOVFF	FSR1L, FSR2L
004fd2   ffd9
                                           ;	.line	6; i2c.c	TRISB |= 0x03;
004fd4   0e03     movlw   0x03             	MOVLW	0x03
004fd6   1293     iorwf   0x93, 0x1, 0x0   	IORWF	_TRISB, F
                                           ;	.line	7; i2c.c	SSPSTAT |= 0x80; //Slew Rate Disabled
004fd8   8ec7     bsf     0xc7, 0x7, 0x0   	BSF	_SSPSTAT, 7
                                           ;	.line	8; i2c.c	SSPADD = 119;
004fda   0e77     movlw   0x77             	MOVLW	0x77
004fdc   6ec8     movwf   0xc8, 0x0        	MOVWF	_SSPADD
                                           ;	.line	10; i2c.c	SSPCON1 = 0b00101000;			//Master mode
004fde   0e28     movlw   0x28             	MOVLW	0x28
004fe0   6ec6     movwf   0xc6, 0x0        	MOVWF	_SSPCON1
                                           ;	.line	11; i2c.c	SSPADD = 119;
004fe2   0e77     movlw   0x77             	MOVLW	0x77
004fe4   6ec8     movwf   0xc8, 0x0        	MOVWF	_SSPADD
004fe6   cfe4     movff   0xfe4, 0xfd9     	MOVFF	PREINC1, FSR2L
004fe8   ffd9
004fea   0012     return  0x0              	RETURN	



                                           ; Statistics:
                                           ; code size:	  280 (0x0118) bytes ( 0.21%)
                                           ;           	  140 (0x008c) words
                                           ; udata size:	    0 (0x0000) bytes ( 0.00%)
                                           ; access size:	    2 (0x0002) bytes


                                           	end
                                           ;--------------------------------------------------------
                                           ; File Created by SDCC : free open source ANSI-C Compiler
                                           ; Version 3.6.0 #9615 (MINGW64)
                                           ;--------------------------------------------------------
                                           ; PIC16 port for the Microchip 16-bit core micros
                                           ;--------------------------------------------------------
                                           	list	p=18f4550
                                           	radix	dec


                                           ;--------------------------------------------------------
                                           ; public variables in this module
                                           ;--------------------------------------------------------
                                           	global	_delay40us
                                           	global	_delay2ms
                                           	global	_pulsoEN
                                           	global	_lcdCommand
                                           	global	_lcdLine
                                           	global	_lcdData
                                           	global	_lcdInt
                                           	global	_lcdString
                                           	global	_lcdInit

                                           ;--------------------------------------------------------
                                           ; extern variables in this module
                                           ;--------------------------------------------------------
                                           	extern	__gptrget1
                                           	extern	__divsint
                                           	extern	__modsint

                                           ;--------------------------------------------------------
                                           ;	Equates to used internal registers
                                           ;--------------------------------------------------------
                                           STATUS	equ	0xfd8
                                           WREG	equ	0xfe8
                                           FSR0L	equ	0xfe9
                                           FSR1L	equ	0xfe1
                                           FSR2L	equ	0xfd9
                                           INDF0	equ	0xfef
                                           POSTINC1	equ	0xfe6
                                           POSTDEC1	equ	0xfe5
                                           PREINC1	equ	0xfe4
                                           PLUSW2	equ	0xfdb
                                           PRODL	equ	0xff3


                                           ; Internal registers
                                           .registers	udata_ovr	0x0000
                                           r0x00	res	1
                                           r0x01	res	1
                                           r0x02	res	1
                                           r0x03	res	1
                                           r0x04	res	1
                                           r0x05	res	1
                                           r0x06	res	1

                                           ;--------------------------------------------------------
                                           ; global & static initialisations
                                           ;--------------------------------------------------------
                                           ; I code from now on!
                                           ; ; Starting pCode block
                                           S_lcd__lcdInit	code
                                           _lcdInit:
                                           ;	.line	147; lcd.c	void lcdInit(void)
001c46   cfd9     movff   0xfd9, 0xfe5     	MOVFF	FSR2L, POSTDEC1
001c48   ffe5
001c4a   cfe1     movff   0xfe1, 0xfd9     	MOVFF	FSR1L, FSR2L
001c4c   ffd9
001c4e   c000     movff   0x000, 0xfe5     	MOVFF	r0x00, POSTDEC1
001c50   ffe5
                                           ;	.line	152; lcd.c	delay2ms();
001c52   ec8f     call    0x004d1e, 0x0    	CALL	_delay2ms
001c54   f026
                                           ;	.line	153; lcd.c	delay2ms();
001c56   ec8f     call    0x004d1e, 0x0    	CALL	_delay2ms
001c58   f026
                                           ;	.line	154; lcd.c	delay2ms();
001c5a   ec8f     call    0x004d1e, 0x0    	CALL	_delay2ms
001c5c   f026
                                           ;	.line	157; lcd.c	bitClr(TRISA,RS);	//RS
001c5e   ee0f     lfsr    0x0, 0xf92       	LFSR	0x00, 0xf92
001c60   f092
001c62   cfef     movff   0xfef, 0x000     	MOVFF	INDF0, r0x00
001c64   f000
001c66   9000     bcf     0x00, 0x0, 0x0   	BCF	r0x00, 0
001c68   ee0f     lfsr    0x0, 0xf92       	LFSR	0x00, 0xf92
001c6a   f092
001c6c   c000     movff   0x000, 0xfef     	MOVFF	r0x00, INDF0
001c6e   ffef
                                           ;	.line	158; lcd.c	bitClr(TRISA,EN);	//EN
001c70   ee0f     lfsr    0x0, 0xf92       	LFSR	0x00, 0xf92
001c72   f092
001c74   cfef     movff   0xfef, 0x000     	MOVFF	INDF0, r0x00
001c76   f000
001c78   9200     bcf     0x00, 0x1, 0x0   	BCF	r0x00, 1
001c7a   ee0f     lfsr    0x0, 0xf92       	LFSR	0x00, 0xf92
001c7c   f092
001c7e   c000     movff   0x000, 0xfef     	MOVFF	r0x00, INDF0
001c80   ffef
                                           ;	.line	162; lcd.c	bitClr(TRISD,D1);
001c82   ee0f     lfsr    0x0, 0xf95       	LFSR	0x00, 0xf95
001c84   f095
001c86   cfef     movff   0xfef, 0x000     	MOVFF	INDF0, r0x00
001c88   f000
001c8a   9e00     bcf     0x00, 0x7, 0x0   	BCF	r0x00, 7
001c8c   ee0f     lfsr    0x0, 0xf95       	LFSR	0x00, 0xf95
001c8e   f095
001c90   c000     movff   0x000, 0xfef     	MOVFF	r0x00, INDF0
001c92   ffef
                                           ;	.line	163; lcd.c	bitClr(TRISD,D2);
001c94   ee0f     lfsr    0x0, 0xf95       	LFSR	0x00, 0xf95
001c96   f095
001c98   cfef     movff   0xfef, 0x000     	MOVFF	INDF0, r0x00
001c9a   f000
001c9c   9c00     bcf     0x00, 0x6, 0x0   	BCF	r0x00, 6
001c9e   ee0f     lfsr    0x0, 0xf95       	LFSR	0x00, 0xf95
001ca0   f095
001ca2   c000     movff   0x000, 0xfef     	MOVFF	r0x00, INDF0
001ca4   ffef
                                           ;	.line	164; lcd.c	bitClr(TRISD,D3);
001ca6   ee0f     lfsr    0x0, 0xf95       	LFSR	0x00, 0xf95
001ca8   f095
001caa   cfef     movff   0xfef, 0x000     	MOVFF	INDF0, r0x00
001cac   f000
001cae   9a00     bcf     0x00, 0x5, 0x0   	BCF	r0x00, 5
001cb0   ee0f     lfsr    0x0, 0xf95       	LFSR	0x00, 0xf95
001cb2   f095
001cb4   c000     movff   0x000, 0xfef     	MOVFF	r0x00, INDF0
001cb6   ffef
                                           ;	.line	165; lcd.c	bitClr(TRISD,D4);
001cb8   ee0f     lfsr    0x0, 0xf95       	LFSR	0x00, 0xf95
001cba   f095
001cbc   cfef     movff   0xfef, 0x000     	MOVFF	INDF0, r0x00
001cbe   f000
001cc0   9800     bcf     0x00, 0x4, 0x0   	BCF	r0x00, 4
001cc2   ee0f     lfsr    0x0, 0xf95       	LFSR	0x00, 0xf95
001cc4   f095
001cc6   c000     movff   0x000, 0xfef     	MOVFF	r0x00, INDF0
001cc8   ffef
                                           ;	.line	167; lcd.c	bitClr(PORTA,RS);
001cca   ee0f     lfsr    0x0, 0xf80       	LFSR	0x00, 0xf80
001ccc   f080
001cce   cfef     movff   0xfef, 0x000     	MOVFF	INDF0, r0x00
001cd0   f000
001cd2   9000     bcf     0x00, 0x0, 0x0   	BCF	r0x00, 0
001cd4   ee0f     lfsr    0x0, 0xf80       	LFSR	0x00, 0xf80
001cd6   f080
001cd8   c000     movff   0x000, 0xfef     	MOVFF	r0x00, INDF0
001cda   ffef
                                           ;	.line	168; lcd.c	bitClr(PORTA,EN);
001cdc   ee0f     lfsr    0x0, 0xf80       	LFSR	0x00, 0xf80
001cde   f080
001ce0   cfef     movff   0xfef, 0x000     	MOVFF	INDF0, r0x00
001ce2   f000
001ce4   9200     bcf     0x00, 0x1, 0x0   	BCF	r0x00, 1
001ce6   ee0f     lfsr    0x0, 0xf80       	LFSR	0x00, 0xf80
001ce8   f080
001cea   c000     movff   0x000, 0xfef     	MOVFF	r0x00, INDF0
001cec   ffef
                                           ;	.line	170; lcd.c	delay2ms();
001cee   ec8f     call    0x004d1e, 0x0    	CALL	_delay2ms
001cf0   f026
                                           ;	.line	175; lcd.c	bitClr(PORTD,D4);
001cf2   ee0f     lfsr    0x0, 0xf83       	LFSR	0x00, 0xf83
001cf4   f083
001cf6   cfef     movff   0xfef, 0x000     	MOVFF	INDF0, r0x00
001cf8   f000
001cfa   9800     bcf     0x00, 0x4, 0x0   	BCF	r0x00, 4
001cfc   ee0f     lfsr    0x0, 0xf83       	LFSR	0x00, 0xf83
001cfe   f083
001d00   c000     movff   0x000, 0xfef     	MOVFF	r0x00, INDF0
001d02   ffef
                                           ;	.line	176; lcd.c	bitClr(PORTD,D3);
001d04   ee0f     lfsr    0x0, 0xf83       	LFSR	0x00, 0xf83
001d06   f083
001d08   cfef     movff   0xfef, 0x000     	MOVFF	INDF0, r0x00
001d0a   f000
001d0c   9a00     bcf     0x00, 0x5, 0x0   	BCF	r0x00, 5
001d0e   ee0f     lfsr    0x0, 0xf83       	LFSR	0x00, 0xf83
001d10   f083
001d12   c000     movff   0x000, 0xfef     	MOVFF	r0x00, INDF0
001d14   ffef
                                           ;	.line	177; lcd.c	bitSet(PORTD,D2);	
001d16   ee0f     lfsr    0x0, 0xf83       	LFSR	0x00, 0xf83
001d18   f083
001d1a   cfef     movff   0xfef, 0x000     	MOVFF	INDF0, r0x00
001d1c   f000
001d1e   8c00     bsf     0x00, 0x6, 0x0   	BSF	r0x00, 6
001d20   ee0f     lfsr    0x0, 0xf83       	LFSR	0x00, 0xf83
001d22   f083
001d24   c000     movff   0x000, 0xfef     	MOVFF	r0x00, INDF0
001d26   ffef
                                           ;	.line	178; lcd.c	bitSet(PORTD,D1);
001d28   ee0f     lfsr    0x0, 0xf83       	LFSR	0x00, 0xf83
001d2a   f083
001d2c   cfef     movff   0xfef, 0x000     	MOVFF	INDF0, r0x00
001d2e   f000
001d30   8e00     bsf     0x00, 0x7, 0x0   	BSF	r0x00, 7
001d32   ee0f     lfsr    0x0, 0xf83       	LFSR	0x00, 0xf83
001d34   f083
001d36   c000     movff   0x000, 0xfef     	MOVFF	r0x00, INDF0
001d38   ffef
                                           ;	.line	180; lcd.c	pulsoEN();
001d3a   ecb4     call    0x004768, 0x0    	CALL	_pulsoEN
001d3c   f023
                                           ;	.line	182; lcd.c	bitClr(PORTD,D4);
001d3e   ee0f     lfsr    0x0, 0xf83       	LFSR	0x00, 0xf83
001d40   f083
001d42   cfef     movff   0xfef, 0x000     	MOVFF	INDF0, r0x00
001d44   f000
001d46   9800     bcf     0x00, 0x4, 0x0   	BCF	r0x00, 4
001d48   ee0f     lfsr    0x0, 0xf83       	LFSR	0x00, 0xf83
001d4a   f083
001d4c   c000     movff   0x000, 0xfef     	MOVFF	r0x00, INDF0
001d4e   ffef
                                           ;	.line	183; lcd.c	bitClr(PORTD,D3);
001d50   ee0f     lfsr    0x0, 0xf83       	LFSR	0x00, 0xf83
001d52   f083
001d54   cfef     movff   0xfef, 0x000     	MOVFF	INDF0, r0x00
001d56   f000
001d58   9a00     bcf     0x00, 0x5, 0x0   	BCF	r0x00, 5
001d5a   ee0f     lfsr    0x0, 0xf83       	LFSR	0x00, 0xf83
001d5c   f083
001d5e   c000     movff   0x000, 0xfef     	MOVFF	r0x00, INDF0
001d60   ffef
                                           ;	.line	184; lcd.c	bitSet(PORTD,D2);	
001d62   ee0f     lfsr    0x0, 0xf83       	LFSR	0x00, 0xf83
001d64   f083
001d66   cfef     movff   0xfef, 0x000     	MOVFF	INDF0, r0x00
001d68   f000
001d6a   8c00     bsf     0x00, 0x6, 0x0   	BSF	r0x00, 6
001d6c   ee0f     lfsr    0x0, 0xf83       	LFSR	0x00, 0xf83
001d6e   f083
001d70   c000     movff   0x000, 0xfef     	MOVFF	r0x00, INDF0
001d72   ffef
                                           ;	.line	185; lcd.c	bitSet(PORTD,D1);
001d74   ee0f     lfsr    0x0, 0xf83       	LFSR	0x00, 0xf83
001d76   f083
001d78   cfef     movff   0xfef, 0x000     	MOVFF	INDF0, r0x00
001d7a   f000
001d7c   8e00     bsf     0x00, 0x7, 0x0   	BSF	r0x00, 7
001d7e   ee0f     lfsr    0x0, 0xf83       	LFSR	0x00, 0xf83
001d80   f083
001d82   c000     movff   0x000, 0xfef     	MOVFF	r0x00, INDF0
001d84   ffef
                                           ;	.line	187; lcd.c	pulsoEN();
001d86   ecb4     call    0x004768, 0x0    	CALL	_pulsoEN
001d88   f023
                                           ;	.line	189; lcd.c	bitClr(PORTD,D4);
001d8a   ee0f     lfsr    0x0, 0xf83       	LFSR	0x00, 0xf83
001d8c   f083
001d8e   cfef     movff   0xfef, 0x000     	MOVFF	INDF0, r0x00
001d90   f000
001d92   9800     bcf     0x00, 0x4, 0x0   	BCF	r0x00, 4
001d94   ee0f     lfsr    0x0, 0xf83       	LFSR	0x00, 0xf83
001d96   f083
001d98   c000     movff   0x000, 0xfef     	MOVFF	r0x00, INDF0
001d9a   ffef
                                           ;	.line	190; lcd.c	bitClr(PORTD,D3);
001d9c   ee0f     lfsr    0x0, 0xf83       	LFSR	0x00, 0xf83
001d9e   f083
001da0   cfef     movff   0xfef, 0x000     	MOVFF	INDF0, r0x00
001da2   f000
001da4   9a00     bcf     0x00, 0x5, 0x0   	BCF	r0x00, 5
001da6   ee0f     lfsr    0x0, 0xf83       	LFSR	0x00, 0xf83
001da8   f083
001daa   c000     movff   0x000, 0xfef     	MOVFF	r0x00, INDF0
001dac   ffef
                                           ;	.line	191; lcd.c	bitSet(PORTD,D2);	
001dae   ee0f     lfsr    0x0, 0xf83       	LFSR	0x00, 0xf83
001db0   f083
001db2   cfef     movff   0xfef, 0x000     	MOVFF	INDF0, r0x00
001db4   f000
001db6   8c00     bsf     0x00, 0x6, 0x0   	BSF	r0x00, 6
001db8   ee0f     lfsr    0x0, 0xf83       	LFSR	0x00, 0xf83
001dba   f083
001dbc   c000     movff   0x000, 0xfef     	MOVFF	r0x00, INDF0
001dbe   ffef
                                           ;	.line	192; lcd.c	bitSet(PORTD,D1);
001dc0   ee0f     lfsr    0x0, 0xf83       	LFSR	0x00, 0xf83
001dc2   f083
001dc4   cfef     movff   0xfef, 0x000     	MOVFF	INDF0, r0x00
001dc6   f000
001dc8   8e00     bsf     0x00, 0x7, 0x0   	BSF	r0x00, 7
001dca   ee0f     lfsr    0x0, 0xf83       	LFSR	0x00, 0xf83
001dcc   f083
001dce   c000     movff   0x000, 0xfef     	MOVFF	r0x00, INDF0
001dd0   ffef
                                           ;	.line	194; lcd.c	pulsoEN();
001dd2   ecb4     call    0x004768, 0x0    	CALL	_pulsoEN
001dd4   f023
                                           ;	.line	196; lcd.c	bitClr(PORTD,D4);
001dd6   ee0f     lfsr    0x0, 0xf83       	LFSR	0x00, 0xf83
001dd8   f083
001dda   cfef     movff   0xfef, 0x000     	MOVFF	INDF0, r0x00
001ddc   f000
001dde   9800     bcf     0x00, 0x4, 0x0   	BCF	r0x00, 4
001de0   ee0f     lfsr    0x0, 0xf83       	LFSR	0x00, 0xf83
001de2   f083
001de4   c000     movff   0x000, 0xfef     	MOVFF	r0x00, INDF0
001de6   ffef
                                           ;	.line	197; lcd.c	bitClr(PORTD,D3);
001de8   ee0f     lfsr    0x0, 0xf83       	LFSR	0x00, 0xf83
001dea   f083
001dec   cfef     movff   0xfef, 0x000     	MOVFF	INDF0, r0x00
001dee   f000
001df0   9a00     bcf     0x00, 0x5, 0x0   	BCF	r0x00, 5
001df2   ee0f     lfsr    0x0, 0xf83       	LFSR	0x00, 0xf83
001df4   f083
001df6   c000     movff   0x000, 0xfef     	MOVFF	r0x00, INDF0
001df8   ffef
                                           ;	.line	198; lcd.c	bitSet(PORTD,D2);	
001dfa   ee0f     lfsr    0x0, 0xf83       	LFSR	0x00, 0xf83
001dfc   f083
001dfe   cfef     movff   0xfef, 0x000     	MOVFF	INDF0, r0x00
001e00   f000
001e02   8c00     bsf     0x00, 0x6, 0x0   	BSF	r0x00, 6
001e04   ee0f     lfsr    0x0, 0xf83       	LFSR	0x00, 0xf83
001e06   f083
001e08   c000     movff   0x000, 0xfef     	MOVFF	r0x00, INDF0
001e0a   ffef
                                           ;	.line	199; lcd.c	bitClr(PORTD,D1);
001e0c   ee0f     lfsr    0x0, 0xf83       	LFSR	0x00, 0xf83
001e0e   f083
001e10   cfef     movff   0xfef, 0x000     	MOVFF	INDF0, r0x00
001e12   f000
001e14   9e00     bcf     0x00, 0x7, 0x0   	BCF	r0x00, 7
001e16   ee0f     lfsr    0x0, 0xf83       	LFSR	0x00, 0xf83
001e18   f083
001e1a   c000     movff   0x000, 0xfef     	MOVFF	r0x00, INDF0
001e1c   ffef
                                           ;	.line	201; lcd.c	pulsoEN();
001e1e   ecb4     call    0x004768, 0x0    	CALL	_pulsoEN
001e20   f023
                                           ;	.line	203; lcd.c	bitClr(PORTD,D4);
001e22   ee0f     lfsr    0x0, 0xf83       	LFSR	0x00, 0xf83
001e24   f083
001e26   cfef     movff   0xfef, 0x000     	MOVFF	INDF0, r0x00
001e28   f000
001e2a   9800     bcf     0x00, 0x4, 0x0   	BCF	r0x00, 4
001e2c   ee0f     lfsr    0x0, 0xf83       	LFSR	0x00, 0xf83
001e2e   f083
001e30   c000     movff   0x000, 0xfef     	MOVFF	r0x00, INDF0
001e32   ffef
                                           ;	.line	204; lcd.c	bitClr(PORTD,D3);
001e34   ee0f     lfsr    0x0, 0xf83       	LFSR	0x00, 0xf83
001e36   f083
001e38   cfef     movff   0xfef, 0x000     	MOVFF	INDF0, r0x00
001e3a   f000
001e3c   9a00     bcf     0x00, 0x5, 0x0   	BCF	r0x00, 5
001e3e   ee0f     lfsr    0x0, 0xf83       	LFSR	0x00, 0xf83
001e40   f083
001e42   c000     movff   0x000, 0xfef     	MOVFF	r0x00, INDF0
001e44   ffef
                                           ;	.line	205; lcd.c	bitSet(PORTD,D2);	
001e46   ee0f     lfsr    0x0, 0xf83       	LFSR	0x00, 0xf83
001e48   f083
001e4a   cfef     movff   0xfef, 0x000     	MOVFF	INDF0, r0x00
001e4c   f000
001e4e   8c00     bsf     0x00, 0x6, 0x0   	BSF	r0x00, 6
001e50   ee0f     lfsr    0x0, 0xf83       	LFSR	0x00, 0xf83
001e52   f083
001e54   c000     movff   0x000, 0xfef     	MOVFF	r0x00, INDF0
001e56   ffef
                                           ;	.line	206; lcd.c	bitClr(PORTD,D1);
001e58   ee0f     lfsr    0x0, 0xf83       	LFSR	0x00, 0xf83
001e5a   f083
001e5c   cfef     movff   0xfef, 0x000     	MOVFF	INDF0, r0x00
001e5e   f000
001e60   9e00     bcf     0x00, 0x7, 0x0   	BCF	r0x00, 7
001e62   ee0f     lfsr    0x0, 0xf83       	LFSR	0x00, 0xf83
001e64   f083
001e66   c000     movff   0x000, 0xfef     	MOVFF	r0x00, INDF0
001e68   ffef
                                           ;	.line	208; lcd.c	pulsoEN();
001e6a   ecb4     call    0x004768, 0x0    	CALL	_pulsoEN
001e6c   f023
                                           ;	.line	210; lcd.c	bitClr(PORTD,D4);
001e6e   ee0f     lfsr    0x0, 0xf83       	LFSR	0x00, 0xf83
001e70   f083
001e72   cfef     movff   0xfef, 0x000     	MOVFF	INDF0, r0x00
001e74   f000
001e76   9800     bcf     0x00, 0x4, 0x0   	BCF	r0x00, 4
001e78   ee0f     lfsr    0x0, 0xf83       	LFSR	0x00, 0xf83
001e7a   f083
001e7c   c000     movff   0x000, 0xfef     	MOVFF	r0x00, INDF0
001e7e   ffef
                                           ;	.line	211; lcd.c	bitClr(PORTD,D3);
001e80   ee0f     lfsr    0x0, 0xf83       	LFSR	0x00, 0xf83
001e82   f083
001e84   cfef     movff   0xfef, 0x000     	MOVFF	INDF0, r0x00
001e86   f000
001e88   9a00     bcf     0x00, 0x5, 0x0   	BCF	r0x00, 5
001e8a   ee0f     lfsr    0x0, 0xf83       	LFSR	0x00, 0xf83
001e8c   f083
001e8e   c000     movff   0x000, 0xfef     	MOVFF	r0x00, INDF0
001e90   ffef
                                           ;	.line	212; lcd.c	bitClr(PORTD,D1);
001e92   ee0f     lfsr    0x0, 0xf83       	LFSR	0x00, 0xf83
001e94   f083
001e96   cfef     movff   0xfef, 0x000     	MOVFF	INDF0, r0x00
001e98   f000
001e9a   9e00     bcf     0x00, 0x7, 0x0   	BCF	r0x00, 7
001e9c   ee0f     lfsr    0x0, 0xf83       	LFSR	0x00, 0xf83
001e9e   f083
001ea0   c000     movff   0x000, 0xfef     	MOVFF	r0x00, INDF0
001ea2   ffef
                                           ;	.line	213; lcd.c	bitSet(PORTD,D2);
001ea4   ee0f     lfsr    0x0, 0xf83       	LFSR	0x00, 0xf83
001ea6   f083
001ea8   cfef     movff   0xfef, 0x000     	MOVFF	INDF0, r0x00
001eaa   f000
001eac   8c00     bsf     0x00, 0x6, 0x0   	BSF	r0x00, 6
001eae   ee0f     lfsr    0x0, 0xf83       	LFSR	0x00, 0xf83
001eb0   f083
001eb2   c000     movff   0x000, 0xfef     	MOVFF	r0x00, INDF0
001eb4   ffef
                                           ;	.line	215; lcd.c	pulsoEN();
001eb6   ecb4     call    0x004768, 0x0    	CALL	_pulsoEN
001eb8   f023
                                           ;	.line	217; lcd.c	bitClr(PORTD,D4);
001eba   ee0f     lfsr    0x0, 0xf83       	LFSR	0x00, 0xf83
001ebc   f083
001ebe   cfef     movff   0xfef, 0x000     	MOVFF	INDF0, r0x00
001ec0   f000
001ec2   9800     bcf     0x00, 0x4, 0x0   	BCF	r0x00, 4
001ec4   ee0f     lfsr    0x0, 0xf83       	LFSR	0x00, 0xf83
001ec6   f083
001ec8   c000     movff   0x000, 0xfef     	MOVFF	r0x00, INDF0
001eca   ffef
                                           ;	.line	218; lcd.c	bitClr(PORTD,D3);
001ecc   ee0f     lfsr    0x0, 0xf83       	LFSR	0x00, 0xf83
001ece   f083
001ed0   cfef     movff   0xfef, 0x000     	MOVFF	INDF0, r0x00
001ed2   f000
001ed4   9a00     bcf     0x00, 0x5, 0x0   	BCF	r0x00, 5
001ed6   ee0f     lfsr    0x0, 0xf83       	LFSR	0x00, 0xf83
001ed8   f083
001eda   c000     movff   0x000, 0xfef     	MOVFF	r0x00, INDF0
001edc   ffef
                                           ;	.line	219; lcd.c	bitClr(PORTD,D2);	
001ede   ee0f     lfsr    0x0, 0xf83       	LFSR	0x00, 0xf83
001ee0   f083
001ee2   cfef     movff   0xfef, 0x000     	MOVFF	INDF0, r0x00
001ee4   f000
001ee6   9c00     bcf     0x00, 0x6, 0x0   	BCF	r0x00, 6
001ee8   ee0f     lfsr    0x0, 0xf83       	LFSR	0x00, 0xf83
001eea   f083
001eec   c000     movff   0x000, 0xfef     	MOVFF	r0x00, INDF0
001eee   ffef
                                           ;	.line	220; lcd.c	bitClr(PORTD,D1);
001ef0   ee0f     lfsr    0x0, 0xf83       	LFSR	0x00, 0xf83
001ef2   f083
001ef4   cfef     movff   0xfef, 0x000     	MOVFF	INDF0, r0x00
001ef6   f000
001ef8   9e00     bcf     0x00, 0x7, 0x0   	BCF	r0x00, 7
001efa   ee0f     lfsr    0x0, 0xf83       	LFSR	0x00, 0xf83
001efc   f083
001efe   c000     movff   0x000, 0xfef     	MOVFF	r0x00, INDF0
001f00   ffef
                                           ;	.line	222; lcd.c	pulsoEN();
001f02   ecb4     call    0x004768, 0x0    	CALL	_pulsoEN
001f04   f023
                                           ;	.line	224; lcd.c	bitSet(PORTD,D4);
001f06   ee0f     lfsr    0x0, 0xf83       	LFSR	0x00, 0xf83
001f08   f083
001f0a   cfef     movff   0xfef, 0x000     	MOVFF	INDF0, r0x00
001f0c   f000
001f0e   8800     bsf     0x00, 0x4, 0x0   	BSF	r0x00, 4
001f10   ee0f     lfsr    0x0, 0xf83       	LFSR	0x00, 0xf83
001f12   f083
001f14   c000     movff   0x000, 0xfef     	MOVFF	r0x00, INDF0
001f16   ffef
                                           ;	.line	225; lcd.c	bitSet(PORTD,D3);
001f18   ee0f     lfsr    0x0, 0xf83       	LFSR	0x00, 0xf83
001f1a   f083
001f1c   cfef     movff   0xfef, 0x000     	MOVFF	INDF0, r0x00
001f1e   f000
001f20   8a00     bsf     0x00, 0x5, 0x0   	BSF	r0x00, 5
001f22   ee0f     lfsr    0x0, 0xf83       	LFSR	0x00, 0xf83
001f24   f083
001f26   c000     movff   0x000, 0xfef     	MOVFF	r0x00, INDF0
001f28   ffef
                                           ;	.line	226; lcd.c	bitSet(PORTD,D2);	
001f2a   ee0f     lfsr    0x0, 0xf83       	LFSR	0x00, 0xf83
001f2c   f083
001f2e   cfef     movff   0xfef, 0x000     	MOVFF	INDF0, r0x00
001f30   f000
001f32   8c00     bsf     0x00, 0x6, 0x0   	BSF	r0x00, 6
001f34   ee0f     lfsr    0x0, 0xf83       	LFSR	0x00, 0xf83
001f36   f083
001f38   c000     movff   0x000, 0xfef     	MOVFF	r0x00, INDF0
001f3a   ffef
                                           ;	.line	227; lcd.c	bitSet(PORTD,D1);
001f3c   ee0f     lfsr    0x0, 0xf83       	LFSR	0x00, 0xf83
001f3e   f083
001f40   cfef     movff   0xfef, 0x000     	MOVFF	INDF0, r0x00
001f42   f000
001f44   8e00     bsf     0x00, 0x7, 0x0   	BSF	r0x00, 7
001f46   ee0f     lfsr    0x0, 0xf83       	LFSR	0x00, 0xf83
001f48   f083
001f4a   c000     movff   0x000, 0xfef     	MOVFF	r0x00, INDF0
001f4c   ffef
                                           ;	.line	229; lcd.c	pulsoEN();
001f4e   ecb4     call    0x004768, 0x0    	CALL	_pulsoEN
001f50   f023
                                           ;	.line	233; lcd.c	lcdCommand(0x01); //limpa o display
001f52   0e01     movlw   0x01             	MOVLW	0x01
001f54   6ee5     movwf   0xe5, 0x0        	MOVWF	POSTDEC1
001f56   ec2c     call    0x002858, 0x0    	CALL	_lcdCommand
001f58   f014
001f5a   52e6     movf    0xe6, 0x1, 0x0   	MOVF	POSTINC1, F
                                           ;	.line	235; lcd.c	lcdCommand(0x2b); //4bits, 2 linhas, 5x8 tamanho
001f5c   0e2b     movlw   0x2b             	MOVLW	0x2b
001f5e   6ee5     movwf   0xe5, 0x0        	MOVWF	POSTDEC1
001f60   ec2c     call    0x002858, 0x0    	CALL	_lcdCommand
001f62   f014
001f64   52e6     movf    0xe6, 0x1, 0x0   	MOVF	POSTINC1, F
                                           ;	.line	237; lcd.c	lcdCommand(0x0f); //display on, cursor e blink off
001f66   0e0f     movlw   0x0f             	MOVLW	0x0f
001f68   6ee5     movwf   0xe5, 0x0        	MOVWF	POSTDEC1
001f6a   ec2c     call    0x002858, 0x0    	CALL	_lcdCommand
001f6c   f014
001f6e   52e6     movf    0xe6, 0x1, 0x0   	MOVF	POSTINC1, F
                                           ;	.line	239; lcd.c	lcdCommand(0b00000110);	// Entry mode set: Increment, Shift OFF
001f70   0e06     movlw   0x06             	MOVLW	0x06
001f72   6ee5     movwf   0xe5, 0x0        	MOVWF	POSTDEC1
001f74   ec2c     call    0x002858, 0x0    	CALL	_lcdCommand
001f76   f014
001f78   52e6     movf    0xe6, 0x1, 0x0   	MOVF	POSTINC1, F
                                           ;	.line	241; lcd.c	lcdCommand(0b00010100);	// Entry mode set         
001f7a   0e14     movlw   0x14             	MOVLW	0x14
001f7c   6ee5     movwf   0xe5, 0x0        	MOVWF	POSTDEC1
001f7e   ec2c     call    0x002858, 0x0    	CALL	_lcdCommand
001f80   f014
001f82   52e6     movf    0xe6, 0x1, 0x0   	MOVF	POSTINC1, F
                                           ;	.line	243; lcd.c	lcdCommand(0x80); // Vai para primeira linha
001f84   0e80     movlw   0x80             	MOVLW	0x80
001f86   6ee5     movwf   0xe5, 0x0        	MOVWF	POSTDEC1
001f88   ec2c     call    0x002858, 0x0    	CALL	_lcdCommand
001f8a   f014
001f8c   52e6     movf    0xe6, 0x1, 0x0   	MOVF	POSTINC1, F
001f8e   cfe4     movff   0xfe4, 0x000     	MOVFF	PREINC1, r0x00
001f90   f000
001f92   cfe4     movff   0xfe4, 0xfd9     	MOVFF	PREINC1, FSR2L
001f94   ffd9
001f96   0012     return  0x0              	RETURN	

                                           ; ; Starting pCode block
                                           S_lcd__lcdString	code
                                           _lcdString:
                                           ;	.line	136; lcd.c	void lcdString(char vector[])
003f10   cfd9     movff   0xfd9, 0xfe5     	MOVFF	FSR2L, POSTDEC1
003f12   ffe5
003f14   cfe1     movff   0xfe1, 0xfd9     	MOVFF	FSR1L, FSR2L
003f16   ffd9
003f18   c000     movff   0x000, 0xfe5     	MOVFF	r0x00, POSTDEC1
003f1a   ffe5
003f1c   c001     movff   0x001, 0xfe5     	MOVFF	r0x01, POSTDEC1
003f1e   ffe5
003f20   c002     movff   0x002, 0xfe5     	MOVFF	r0x02, POSTDEC1
003f22   ffe5
003f24   c003     movff   0x003, 0xfe5     	MOVFF	r0x03, POSTDEC1
003f26   ffe5
003f28   c004     movff   0x004, 0xfe5     	MOVFF	r0x04, POSTDEC1
003f2a   ffe5
003f2c   c005     movff   0x005, 0xfe5     	MOVFF	r0x05, POSTDEC1
003f2e   ffe5
003f30   c006     movff   0x006, 0xfe5     	MOVFF	r0x06, POSTDEC1
003f32   ffe5
003f34   0e02     movlw   0x02             	MOVLW	0x02
003f36   cfdb     movff   0xfdb, 0x000     	MOVFF	PLUSW2, r0x00
003f38   f000
003f3a   0e03     movlw   0x03             	MOVLW	0x03
003f3c   cfdb     movff   0xfdb, 0x001     	MOVFF	PLUSW2, r0x01
003f3e   f001
003f40   0e04     movlw   0x04             	MOVLW	0x04
003f42   cfdb     movff   0xfdb, 0x002     	MOVFF	PLUSW2, r0x02
003f44   f002
                                           ;	.line	140; lcd.c	while(vector[i])
003f46   6a03     clrf    0x03, 0x0        	CLRF	r0x03
                                           _00305_DS_:
003f48   5003     movf    0x03, 0x0, 0x0   	MOVF	r0x03, W
003f4a   2400     addwf   0x00, 0x0, 0x0   	ADDWF	r0x00, W
003f4c   6e04     movwf   0x04, 0x0        	MOVWF	r0x04
003f4e   6ae8     clrf    0xe8, 0x0        	CLRF	WREG
003f50   2001     addwfc  0x01, 0x0, 0x0   	ADDWFC	r0x01, W
003f52   6e05     movwf   0x05, 0x0        	MOVWF	r0x05
003f54   6ae8     clrf    0xe8, 0x0        	CLRF	WREG
003f56   2002     addwfc  0x02, 0x0, 0x0   	ADDWFC	r0x02, W
003f58   6e06     movwf   0x06, 0x0        	MOVWF	r0x06
003f5a   c004     movff   0x004, 0xfe9     	MOVFF	r0x04, FSR0L
003f5c   ffe9
003f5e   c005     movff   0x005, 0xff3     	MOVFF	r0x05, PRODL
003f60   fff3
003f62   5006     movf    0x06, 0x0, 0x0   	MOVF	r0x06, W
003f64   ecd5     call    0x004faa, 0x0    	CALL	__gptrget1
003f66   f027
003f68   6e04     movwf   0x04, 0x0        	MOVWF	r0x04
003f6a   5004     movf    0x04, 0x0, 0x0   	MOVF	r0x04, W
003f6c   e007     bz      0x003f7c         	BZ	_00308_DS_
                                           ;	.line	142; lcd.c	lcdData(vector[i]);
003f6e   5004     movf    0x04, 0x0, 0x0   	MOVF	r0x04, W
003f70   6ee5     movwf   0xe5, 0x0        	MOVWF	POSTDEC1
003f72   ec4f     call    0x00269e, 0x0    	CALL	_lcdData
003f74   f013
003f76   52e6     movf    0xe6, 0x1, 0x0   	MOVF	POSTINC1, F
                                           ;	.line	143; lcd.c	i++;
003f78   2a03     incf    0x03, 0x1, 0x0   	INCF	r0x03, F
003f7a   d7e6     bra     0x003f48         	BRA	_00305_DS_
                                           _00308_DS_:
003f7c   cfe4     movff   0xfe4, 0x006     	MOVFF	PREINC1, r0x06
003f7e   f006
003f80   cfe4     movff   0xfe4, 0x005     	MOVFF	PREINC1, r0x05
003f82   f005
003f84   cfe4     movff   0xfe4, 0x004     	MOVFF	PREINC1, r0x04
003f86   f004
003f88   cfe4     movff   0xfe4, 0x003     	MOVFF	PREINC1, r0x03
003f8a   f003
003f8c   cfe4     movff   0xfe4, 0x002     	MOVFF	PREINC1, r0x02
003f8e   f002
003f90   cfe4     movff   0xfe4, 0x001     	MOVFF	PREINC1, r0x01
003f92   f001
003f94   cfe4     movff   0xfe4, 0x000     	MOVFF	PREINC1, r0x00
003f96   f000
003f98   cfe4     movff   0xfe4, 0xfd9     	MOVFF	PREINC1, FSR2L
003f9a   ffd9
003f9c   0012     return  0x0              	RETURN	

                                           ; ; Starting pCode block
                                           S_lcd__lcdInt	code
                                           _lcdInt:
                                           ;	.line	123; lcd.c	void lcdInt(int val) {
002d14   cfd9     movff   0xfd9, 0xfe5     	MOVFF	FSR2L, POSTDEC1
002d16   ffe5
002d18   cfe1     movff   0xfe1, 0xfd9     	MOVFF	FSR1L, FSR2L
002d1a   ffd9
002d1c   c000     movff   0x000, 0xfe5     	MOVFF	r0x00, POSTDEC1
002d1e   ffe5
002d20   c001     movff   0x001, 0xfe5     	MOVFF	r0x01, POSTDEC1
002d22   ffe5
002d24   c002     movff   0x002, 0xfe5     	MOVFF	r0x02, POSTDEC1
002d26   ffe5
002d28   c003     movff   0x003, 0xfe5     	MOVFF	r0x03, POSTDEC1
002d2a   ffe5
002d2c   0e02     movlw   0x02             	MOVLW	0x02
002d2e   cfdb     movff   0xfdb, 0x000     	MOVFF	PLUSW2, r0x00
002d30   f000
002d32   0e03     movlw   0x03             	MOVLW	0x03
002d34   cfdb     movff   0xfdb, 0x001     	MOVFF	PLUSW2, r0x01
002d36   f001
                                           ;	.line	124; lcd.c	if (val < 0) {
002d38   80d8     bsf     0xd8, 0x0, 0x0   	BSF	STATUS, 0
002d3a   ae01     btfss   0x01, 0x7, 0x0   	BTFSS	r0x01, 7
002d3c   90d8     bcf     0xd8, 0x0, 0x0   	BCF	STATUS, 0
002d3e   e309     bnc     0x002d52         	BNC	_00299_DS_
                                           ;	.line	125; lcd.c	val = val * (-1);
002d40   1e01     comf    0x01, 0x1, 0x0   	COMF	r0x01, F
002d42   6c00     negf    0x00, 0x0        	NEGF	r0x00
002d44   b4d8     btfsc   0xd8, 0x2, 0x0   	BTFSC	STATUS, 2
002d46   2a01     incf    0x01, 0x1, 0x0   	INCF	r0x01, F
                                           ;	.line	126; lcd.c	lcdData('-');
002d48   0e2d     movlw   0x2d             	MOVLW	0x2d
002d4a   6ee5     movwf   0xe5, 0x0        	MOVWF	POSTDEC1
002d4c   ec4f     call    0x00269e, 0x0    	CALL	_lcdData
002d4e   f013
002d50   52e6     movf    0xe6, 0x1, 0x0   	MOVF	POSTINC1, F
                                           _00299_DS_:
                                           ;	.line	128; lcd.c	lcdData((val / 1000) % 10 + 48);
002d52   0e03     movlw   0x03             	MOVLW	0x03
002d54   6ee5     movwf   0xe5, 0x0        	MOVWF	POSTDEC1
002d56   0ee8     movlw   0xe8             	MOVLW	0xe8
002d58   6ee5     movwf   0xe5, 0x0        	MOVWF	POSTDEC1
002d5a   5001     movf    0x01, 0x0, 0x0   	MOVF	r0x01, W
002d5c   6ee5     movwf   0xe5, 0x0        	MOVWF	POSTDEC1
002d5e   5000     movf    0x00, 0x0, 0x0   	MOVF	r0x00, W
002d60   6ee5     movwf   0xe5, 0x0        	MOVWF	POSTDEC1
002d62   ec31     call    0x003662, 0x0    	CALL	__divsint
002d64   f01b
002d66   6e02     movwf   0x02, 0x0        	MOVWF	r0x02
002d68   cff3     movff   0xff3, 0x003     	MOVFF	PRODL, r0x03
002d6a   f003
002d6c   0e04     movlw   0x04             	MOVLW	0x04
002d6e   26e1     addwf   0xe1, 0x1, 0x0   	ADDWF	FSR1L, F
002d70   0e00     movlw   0x00             	MOVLW	0x00
002d72   6ee5     movwf   0xe5, 0x0        	MOVWF	POSTDEC1
002d74   0e0a     movlw   0x0a             	MOVLW	0x0a
002d76   6ee5     movwf   0xe5, 0x0        	MOVWF	POSTDEC1
002d78   5003     movf    0x03, 0x0, 0x0   	MOVF	r0x03, W
002d7a   6ee5     movwf   0xe5, 0x0        	MOVWF	POSTDEC1
002d7c   5002     movf    0x02, 0x0, 0x0   	MOVF	r0x02, W
002d7e   6ee5     movwf   0xe5, 0x0        	MOVWF	POSTDEC1
002d80   eca8     call    0x003750, 0x0    	CALL	__modsint
002d82   f01b
002d84   6e02     movwf   0x02, 0x0        	MOVWF	r0x02
002d86   cff3     movff   0xff3, 0x003     	MOVFF	PRODL, r0x03
002d88   f003
002d8a   0e04     movlw   0x04             	MOVLW	0x04
002d8c   26e1     addwf   0xe1, 0x1, 0x0   	ADDWF	FSR1L, F
002d8e   0e30     movlw   0x30             	MOVLW	0x30
002d90   2602     addwf   0x02, 0x1, 0x0   	ADDWF	r0x02, F
002d92   5002     movf    0x02, 0x0, 0x0   	MOVF	r0x02, W
002d94   6ee5     movwf   0xe5, 0x0        	MOVWF	POSTDEC1
002d96   ec4f     call    0x00269e, 0x0    	CALL	_lcdData
002d98   f013
002d9a   52e6     movf    0xe6, 0x1, 0x0   	MOVF	POSTINC1, F
                                           ;	.line	129; lcd.c	lcdData((val / 100) % 10 + 48);
002d9c   0e00     movlw   0x00             	MOVLW	0x00
002d9e   6ee5     movwf   0xe5, 0x0        	MOVWF	POSTDEC1
002da0   0e64     movlw   0x64             	MOVLW	0x64
002da2   6ee5     movwf   0xe5, 0x0        	MOVWF	POSTDEC1
002da4   5001     movf    0x01, 0x0, 0x0   	MOVF	r0x01, W
002da6   6ee5     movwf   0xe5, 0x0        	MOVWF	POSTDEC1
002da8   5000     movf    0x00, 0x0, 0x0   	MOVF	r0x00, W
002daa   6ee5     movwf   0xe5, 0x0        	MOVWF	POSTDEC1
002dac   ec31     call    0x003662, 0x0    	CALL	__divsint
002dae   f01b
002db0   6e02     movwf   0x02, 0x0        	MOVWF	r0x02
002db2   cff3     movff   0xff3, 0x003     	MOVFF	PRODL, r0x03
002db4   f003
002db6   0e04     movlw   0x04             	MOVLW	0x04
002db8   26e1     addwf   0xe1, 0x1, 0x0   	ADDWF	FSR1L, F
002dba   0e00     movlw   0x00             	MOVLW	0x00
002dbc   6ee5     movwf   0xe5, 0x0        	MOVWF	POSTDEC1
002dbe   0e0a     movlw   0x0a             	MOVLW	0x0a
002dc0   6ee5     movwf   0xe5, 0x0        	MOVWF	POSTDEC1
002dc2   5003     movf    0x03, 0x0, 0x0   	MOVF	r0x03, W
002dc4   6ee5     movwf   0xe5, 0x0        	MOVWF	POSTDEC1
002dc6   5002     movf    0x02, 0x0, 0x0   	MOVF	r0x02, W
002dc8   6ee5     movwf   0xe5, 0x0        	MOVWF	POSTDEC1
002dca   eca8     call    0x003750, 0x0    	CALL	__modsint
002dcc   f01b
002dce   6e02     movwf   0x02, 0x0        	MOVWF	r0x02
002dd0   cff3     movff   0xff3, 0x003     	MOVFF	PRODL, r0x03
002dd2   f003
002dd4   0e04     movlw   0x04             	MOVLW	0x04
002dd6   26e1     addwf   0xe1, 0x1, 0x0   	ADDWF	FSR1L, F
002dd8   0e30     movlw   0x30             	MOVLW	0x30
002dda   2602     addwf   0x02, 0x1, 0x0   	ADDWF	r0x02, F
002ddc   5002     movf    0x02, 0x0, 0x0   	MOVF	r0x02, W
002dde   6ee5     movwf   0xe5, 0x0        	MOVWF	POSTDEC1
002de0   ec4f     call    0x00269e, 0x0    	CALL	_lcdData
002de2   f013
002de4   52e6     movf    0xe6, 0x1, 0x0   	MOVF	POSTINC1, F
                                           ;	.line	130; lcd.c	lcdData((val / 10) % 10 + 48);
002de6   0e00     movlw   0x00             	MOVLW	0x00
002de8   6ee5     movwf   0xe5, 0x0        	MOVWF	POSTDEC1
002dea   0e0a     movlw   0x0a             	MOVLW	0x0a
002dec   6ee5     movwf   0xe5, 0x0        	MOVWF	POSTDEC1
002dee   5001     movf    0x01, 0x0, 0x0   	MOVF	r0x01, W
002df0   6ee5     movwf   0xe5, 0x0        	MOVWF	POSTDEC1
002df2   5000     movf    0x00, 0x0, 0x0   	MOVF	r0x00, W
002df4   6ee5     movwf   0xe5, 0x0        	MOVWF	POSTDEC1
002df6   ec31     call    0x003662, 0x0    	CALL	__divsint
002df8   f01b
002dfa   6e02     movwf   0x02, 0x0        	MOVWF	r0x02
002dfc   cff3     movff   0xff3, 0x003     	MOVFF	PRODL, r0x03
002dfe   f003
002e00   0e04     movlw   0x04             	MOVLW	0x04
002e02   26e1     addwf   0xe1, 0x1, 0x0   	ADDWF	FSR1L, F
002e04   0e00     movlw   0x00             	MOVLW	0x00
002e06   6ee5     movwf   0xe5, 0x0        	MOVWF	POSTDEC1
002e08   0e0a     movlw   0x0a             	MOVLW	0x0a
002e0a   6ee5     movwf   0xe5, 0x0        	MOVWF	POSTDEC1
002e0c   5003     movf    0x03, 0x0, 0x0   	MOVF	r0x03, W
002e0e   6ee5     movwf   0xe5, 0x0        	MOVWF	POSTDEC1
002e10   5002     movf    0x02, 0x0, 0x0   	MOVF	r0x02, W
002e12   6ee5     movwf   0xe5, 0x0        	MOVWF	POSTDEC1
002e14   eca8     call    0x003750, 0x0    	CALL	__modsint
002e16   f01b
002e18   6e02     movwf   0x02, 0x0        	MOVWF	r0x02
002e1a   cff3     movff   0xff3, 0x003     	MOVFF	PRODL, r0x03
002e1c   f003
002e1e   0e04     movlw   0x04             	MOVLW	0x04
002e20   26e1     addwf   0xe1, 0x1, 0x0   	ADDWF	FSR1L, F
002e22   0e30     movlw   0x30             	MOVLW	0x30
002e24   2602     addwf   0x02, 0x1, 0x0   	ADDWF	r0x02, F
002e26   5002     movf    0x02, 0x0, 0x0   	MOVF	r0x02, W
002e28   6ee5     movwf   0xe5, 0x0        	MOVWF	POSTDEC1
002e2a   ec4f     call    0x00269e, 0x0    	CALL	_lcdData
002e2c   f013
002e2e   52e6     movf    0xe6, 0x1, 0x0   	MOVF	POSTINC1, F
                                           ;	.line	131; lcd.c	lcdData((val / 1) % 10 + 48);
002e30   0e00     movlw   0x00             	MOVLW	0x00
002e32   6ee5     movwf   0xe5, 0x0        	MOVWF	POSTDEC1
002e34   0e0a     movlw   0x0a             	MOVLW	0x0a
002e36   6ee5     movwf   0xe5, 0x0        	MOVWF	POSTDEC1
002e38   5001     movf    0x01, 0x0, 0x0   	MOVF	r0x01, W
002e3a   6ee5     movwf   0xe5, 0x0        	MOVWF	POSTDEC1
002e3c   5000     movf    0x00, 0x0, 0x0   	MOVF	r0x00, W
002e3e   6ee5     movwf   0xe5, 0x0        	MOVWF	POSTDEC1
002e40   eca8     call    0x003750, 0x0    	CALL	__modsint
002e42   f01b
002e44   6e00     movwf   0x00, 0x0        	MOVWF	r0x00
002e46   cff3     movff   0xff3, 0x001     	MOVFF	PRODL, r0x01
002e48   f001
002e4a   0e04     movlw   0x04             	MOVLW	0x04
002e4c   26e1     addwf   0xe1, 0x1, 0x0   	ADDWF	FSR1L, F
002e4e   0e30     movlw   0x30             	MOVLW	0x30
002e50   2600     addwf   0x00, 0x1, 0x0   	ADDWF	r0x00, F
002e52   5000     movf    0x00, 0x0, 0x0   	MOVF	r0x00, W
002e54   6ee5     movwf   0xe5, 0x0        	MOVWF	POSTDEC1
002e56   ec4f     call    0x00269e, 0x0    	CALL	_lcdData
002e58   f013
002e5a   52e6     movf    0xe6, 0x1, 0x0   	MOVF	POSTINC1, F
002e5c   cfe4     movff   0xfe4, 0x003     	MOVFF	PREINC1, r0x03
002e5e   f003
002e60   cfe4     movff   0xfe4, 0x002     	MOVFF	PREINC1, r0x02
002e62   f002
002e64   cfe4     movff   0xfe4, 0x001     	MOVFF	PREINC1, r0x01
002e66   f001
002e68   cfe4     movff   0xfe4, 0x000     	MOVFF	PREINC1, r0x00
002e6a   f000
002e6c   cfe4     movff   0xfe4, 0xfd9     	MOVFF	PREINC1, FSR2L
002e6e   ffd9
002e70   0012     return  0x0              	RETURN	

                                           ; ; Starting pCode block
                                           S_lcd__lcdData	code
                                           _lcdData:
                                           ;	.line	87; lcd.c	void lcdData(unsigned char valor)
00269e   cfd9     movff   0xfd9, 0xfe5     	MOVFF	FSR2L, POSTDEC1
0026a0   ffe5
0026a2   cfe1     movff   0xfe1, 0xfd9     	MOVFF	FSR1L, FSR2L
0026a4   ffd9
0026a6   c000     movff   0x000, 0xfe5     	MOVFF	r0x00, POSTDEC1
0026a8   ffe5
0026aa   c001     movff   0x001, 0xfe5     	MOVFF	r0x01, POSTDEC1
0026ac   ffe5
0026ae   0e02     movlw   0x02             	MOVLW	0x02
0026b0   cfdb     movff   0xfdb, 0x000     	MOVFF	PLUSW2, r0x00
0026b2   f000
                                           ;	.line	89; lcd.c	delay2ms();
0026b4   ec8f     call    0x004d1e, 0x0    	CALL	_delay2ms
0026b6   f026
                                           ;	.line	91; lcd.c	bitSet(PORTA,RS);
0026b8   ee0f     lfsr    0x0, 0xf80       	LFSR	0x00, 0xf80
0026ba   f080
0026bc   cfef     movff   0xfef, 0x001     	MOVFF	INDF0, r0x01
0026be   f001
0026c0   8001     bsf     0x01, 0x0, 0x0   	BSF	r0x01, 0
0026c2   ee0f     lfsr    0x0, 0xf80       	LFSR	0x00, 0xf80
0026c4   f080
0026c6   c001     movff   0x001, 0xfef     	MOVFF	r0x01, INDF0
0026c8   ffef
                                           ;	.line	92; lcd.c	bitClr(PORTA,EN);	//comando
0026ca   ee0f     lfsr    0x0, 0xf80       	LFSR	0x00, 0xf80
0026cc   f080
0026ce   cfef     movff   0xfef, 0x001     	MOVFF	INDF0, r0x01
0026d0   f001
0026d2   9201     bcf     0x01, 0x1, 0x0   	BCF	r0x01, 1
0026d4   ee0f     lfsr    0x0, 0xf80       	LFSR	0x00, 0xf80
0026d6   f080
0026d8   c001     movff   0x001, 0xfef     	MOVFF	r0x01, INDF0
0026da   ffef
                                           ;	.line	95; lcd.c	delay2ms();
0026dc   ec8f     call    0x004d1e, 0x0    	CALL	_delay2ms
0026de   f026
                                           ;	.line	98; lcd.c	if(valor&0b00010000){bitSet(PORTD,D1);}
0026e0   a800     btfss   0x00, 0x4, 0x0   	BTFSS	r0x00, 4
0026e2   d00a     bra     0x0026f8         	BRA	_00221_DS_
0026e4   ee0f     lfsr    0x0, 0xf83       	LFSR	0x00, 0xf83
0026e6   f083
0026e8   cfef     movff   0xfef, 0x001     	MOVFF	INDF0, r0x01
0026ea   f001
0026ec   8e01     bsf     0x01, 0x7, 0x0   	BSF	r0x01, 7
0026ee   ee0f     lfsr    0x0, 0xf83       	LFSR	0x00, 0xf83
0026f0   f083
0026f2   c001     movff   0x001, 0xfef     	MOVFF	r0x01, INDF0
0026f4   ffef
0026f6   d009     bra     0x00270a         	BRA	_00222_DS_
                                           _00221_DS_:
                                           ;	.line	99; lcd.c	else {bitClr(PORTD,D1);}
0026f8   ee0f     lfsr    0x0, 0xf83       	LFSR	0x00, 0xf83
0026fa   f083
0026fc   cfef     movff   0xfef, 0x001     	MOVFF	INDF0, r0x01
0026fe   f001
002700   9e01     bcf     0x01, 0x7, 0x0   	BCF	r0x01, 7
002702   ee0f     lfsr    0x0, 0xf83       	LFSR	0x00, 0xf83
002704   f083
002706   c001     movff   0x001, 0xfef     	MOVFF	r0x01, INDF0
002708   ffef
                                           _00222_DS_:
                                           ;	.line	100; lcd.c	if(valor&0b00100000){bitSet(PORTD,D2);}
00270a   aa00     btfss   0x00, 0x5, 0x0   	BTFSS	r0x00, 5
00270c   d00a     bra     0x002722         	BRA	_00224_DS_
00270e   ee0f     lfsr    0x0, 0xf83       	LFSR	0x00, 0xf83
002710   f083
002712   cfef     movff   0xfef, 0x001     	MOVFF	INDF0, r0x01
002714   f001
002716   8c01     bsf     0x01, 0x6, 0x0   	BSF	r0x01, 6
002718   ee0f     lfsr    0x0, 0xf83       	LFSR	0x00, 0xf83
00271a   f083
00271c   c001     movff   0x001, 0xfef     	MOVFF	r0x01, INDF0
00271e   ffef
002720   d009     bra     0x002734         	BRA	_00225_DS_
                                           _00224_DS_:
                                           ;	.line	101; lcd.c	else {bitClr(PORTD,D2);}
002722   ee0f     lfsr    0x0, 0xf83       	LFSR	0x00, 0xf83
002724   f083
002726   cfef     movff   0xfef, 0x001     	MOVFF	INDF0, r0x01
002728   f001
00272a   9c01     bcf     0x01, 0x6, 0x0   	BCF	r0x01, 6
00272c   ee0f     lfsr    0x0, 0xf83       	LFSR	0x00, 0xf83
00272e   f083
002730   c001     movff   0x001, 0xfef     	MOVFF	r0x01, INDF0
002732   ffef
                                           _00225_DS_:
                                           ;	.line	102; lcd.c	if(valor&0b01000000){bitSet(PORTD,D3);}
002734   ac00     btfss   0x00, 0x6, 0x0   	BTFSS	r0x00, 6
002736   d00a     bra     0x00274c         	BRA	_00227_DS_
002738   ee0f     lfsr    0x0, 0xf83       	LFSR	0x00, 0xf83
00273a   f083
00273c   cfef     movff   0xfef, 0x001     	MOVFF	INDF0, r0x01
00273e   f001
002740   8a01     bsf     0x01, 0x5, 0x0   	BSF	r0x01, 5
002742   ee0f     lfsr    0x0, 0xf83       	LFSR	0x00, 0xf83
002744   f083
002746   c001     movff   0x001, 0xfef     	MOVFF	r0x01, INDF0
002748   ffef
00274a   d009     bra     0x00275e         	BRA	_00228_DS_
                                           _00227_DS_:
                                           ;	.line	103; lcd.c	else {bitClr(PORTD,D3);}
00274c   ee0f     lfsr    0x0, 0xf83       	LFSR	0x00, 0xf83
00274e   f083
002750   cfef     movff   0xfef, 0x001     	MOVFF	INDF0, r0x01
002752   f001
002754   9a01     bcf     0x01, 0x5, 0x0   	BCF	r0x01, 5
002756   ee0f     lfsr    0x0, 0xf83       	LFSR	0x00, 0xf83
002758   f083
00275a   c001     movff   0x001, 0xfef     	MOVFF	r0x01, INDF0
00275c   ffef
                                           _00228_DS_:
                                           ;	.line	104; lcd.c	if(valor&0b10000000){bitSet(PORTD,D4);}
00275e   ae00     btfss   0x00, 0x7, 0x0   	BTFSS	r0x00, 7
002760   d00a     bra     0x002776         	BRA	_00230_DS_
002762   ee0f     lfsr    0x0, 0xf83       	LFSR	0x00, 0xf83
002764   f083
002766   cfef     movff   0xfef, 0x001     	MOVFF	INDF0, r0x01
002768   f001
00276a   8801     bsf     0x01, 0x4, 0x0   	BSF	r0x01, 4
00276c   ee0f     lfsr    0x0, 0xf83       	LFSR	0x00, 0xf83
00276e   f083
002770   c001     movff   0x001, 0xfef     	MOVFF	r0x01, INDF0
002772   ffef
002774   d009     bra     0x002788         	BRA	_00231_DS_
                                           _00230_DS_:
                                           ;	.line	105; lcd.c	else {bitClr(PORTD,D4);}    
002776   ee0f     lfsr    0x0, 0xf83       	LFSR	0x00, 0xf83
002778   f083
00277a   cfef     movff   0xfef, 0x001     	MOVFF	INDF0, r0x01
00277c   f001
00277e   9801     bcf     0x01, 0x4, 0x0   	BCF	r0x01, 4
002780   ee0f     lfsr    0x0, 0xf83       	LFSR	0x00, 0xf83
002782   f083
002784   c001     movff   0x001, 0xfef     	MOVFF	r0x01, INDF0
002786   ffef
                                           _00231_DS_:
                                           ;	.line	106; lcd.c	pulsoEN();
002788   ecb4     call    0x004768, 0x0    	CALL	_pulsoEN
00278a   f023
                                           ;	.line	109; lcd.c	if(valor&0b00000001){bitSet(PORTD,D1);}
00278c   a000     btfss   0x00, 0x0, 0x0   	BTFSS	r0x00, 0
00278e   d00a     bra     0x0027a4         	BRA	_00233_DS_
002790   ee0f     lfsr    0x0, 0xf83       	LFSR	0x00, 0xf83
002792   f083
002794   cfef     movff   0xfef, 0x001     	MOVFF	INDF0, r0x01
002796   f001
002798   8e01     bsf     0x01, 0x7, 0x0   	BSF	r0x01, 7
00279a   ee0f     lfsr    0x0, 0xf83       	LFSR	0x00, 0xf83
00279c   f083
00279e   c001     movff   0x001, 0xfef     	MOVFF	r0x01, INDF0
0027a0   ffef
0027a2   d009     bra     0x0027b6         	BRA	_00234_DS_
                                           _00233_DS_:
                                           ;	.line	110; lcd.c	else {bitClr(PORTD,D1);}
0027a4   ee0f     lfsr    0x0, 0xf83       	LFSR	0x00, 0xf83
0027a6   f083
0027a8   cfef     movff   0xfef, 0x001     	MOVFF	INDF0, r0x01
0027aa   f001
0027ac   9e01     bcf     0x01, 0x7, 0x0   	BCF	r0x01, 7
0027ae   ee0f     lfsr    0x0, 0xf83       	LFSR	0x00, 0xf83
0027b0   f083
0027b2   c001     movff   0x001, 0xfef     	MOVFF	r0x01, INDF0
0027b4   ffef
                                           _00234_DS_:
                                           ;	.line	111; lcd.c	if(valor&0b00000010){bitSet(PORTD,D2);}
0027b6   a200     btfss   0x00, 0x1, 0x0   	BTFSS	r0x00, 1
0027b8   d00a     bra     0x0027ce         	BRA	_00236_DS_
0027ba   ee0f     lfsr    0x0, 0xf83       	LFSR	0x00, 0xf83
0027bc   f083
0027be   cfef     movff   0xfef, 0x001     	MOVFF	INDF0, r0x01
0027c0   f001
0027c2   8c01     bsf     0x01, 0x6, 0x0   	BSF	r0x01, 6
0027c4   ee0f     lfsr    0x0, 0xf83       	LFSR	0x00, 0xf83
0027c6   f083
0027c8   c001     movff   0x001, 0xfef     	MOVFF	r0x01, INDF0
0027ca   ffef
0027cc   d009     bra     0x0027e0         	BRA	_00237_DS_
                                           _00236_DS_:
                                           ;	.line	112; lcd.c	else {bitClr(PORTD,D2);}
0027ce   ee0f     lfsr    0x0, 0xf83       	LFSR	0x00, 0xf83
0027d0   f083
0027d2   cfef     movff   0xfef, 0x001     	MOVFF	INDF0, r0x01
0027d4   f001
0027d6   9c01     bcf     0x01, 0x6, 0x0   	BCF	r0x01, 6
0027d8   ee0f     lfsr    0x0, 0xf83       	LFSR	0x00, 0xf83
0027da   f083
0027dc   c001     movff   0x001, 0xfef     	MOVFF	r0x01, INDF0
0027de   ffef
                                           _00237_DS_:
                                           ;	.line	113; lcd.c	if(valor&0b00000100){bitSet(PORTD,D3);}
0027e0   a400     btfss   0x00, 0x2, 0x0   	BTFSS	r0x00, 2
0027e2   d00a     bra     0x0027f8         	BRA	_00239_DS_
0027e4   ee0f     lfsr    0x0, 0xf83       	LFSR	0x00, 0xf83
0027e6   f083
0027e8   cfef     movff   0xfef, 0x001     	MOVFF	INDF0, r0x01
0027ea   f001
0027ec   8a01     bsf     0x01, 0x5, 0x0   	BSF	r0x01, 5
0027ee   ee0f     lfsr    0x0, 0xf83       	LFSR	0x00, 0xf83
0027f0   f083
0027f2   c001     movff   0x001, 0xfef     	MOVFF	r0x01, INDF0
0027f4   ffef
0027f6   d009     bra     0x00280a         	BRA	_00240_DS_
                                           _00239_DS_:
                                           ;	.line	114; lcd.c	else {bitClr(PORTD,D3);}
0027f8   ee0f     lfsr    0x0, 0xf83       	LFSR	0x00, 0xf83
0027fa   f083
0027fc   cfef     movff   0xfef, 0x001     	MOVFF	INDF0, r0x01
0027fe   f001
002800   9a01     bcf     0x01, 0x5, 0x0   	BCF	r0x01, 5
002802   ee0f     lfsr    0x0, 0xf83       	LFSR	0x00, 0xf83
002804   f083
002806   c001     movff   0x001, 0xfef     	MOVFF	r0x01, INDF0
002808   ffef
                                           _00240_DS_:
                                           ;	.line	115; lcd.c	if(valor&0b00001000){bitSet(PORTD,D4);}
00280a   a600     btfss   0x00, 0x3, 0x0   	BTFSS	r0x00, 3
00280c   d00a     bra     0x002822         	BRA	_00242_DS_
00280e   ee0f     lfsr    0x0, 0xf83       	LFSR	0x00, 0xf83
002810   f083
002812   cfef     movff   0xfef, 0x000     	MOVFF	INDF0, r0x00
002814   f000
002816   8800     bsf     0x00, 0x4, 0x0   	BSF	r0x00, 4
002818   ee0f     lfsr    0x0, 0xf83       	LFSR	0x00, 0xf83
00281a   f083
00281c   c000     movff   0x000, 0xfef     	MOVFF	r0x00, INDF0
00281e   ffef
002820   d009     bra     0x002834         	BRA	_00243_DS_
                                           _00242_DS_:
                                           ;	.line	116; lcd.c	else {bitClr(PORTD,D4);}
002822   ee0f     lfsr    0x0, 0xf83       	LFSR	0x00, 0xf83
002824   f083
002826   cfef     movff   0xfef, 0x000     	MOVFF	INDF0, r0x00
002828   f000
00282a   9800     bcf     0x00, 0x4, 0x0   	BCF	r0x00, 4
00282c   ee0f     lfsr    0x0, 0xf83       	LFSR	0x00, 0xf83
00282e   f083
002830   c000     movff   0x000, 0xfef     	MOVFF	r0x00, INDF0
002832   ffef
                                           _00243_DS_:
                                           ;	.line	117; lcd.c	pulsoEN();
002834   ecb4     call    0x004768, 0x0    	CALL	_pulsoEN
002836   f023
                                           ;	.line	120; lcd.c	bitClr(PORTA,RS);
002838   ee0f     lfsr    0x0, 0xf80       	LFSR	0x00, 0xf80
00283a   f080
00283c   cfef     movff   0xfef, 0x000     	MOVFF	INDF0, r0x00
00283e   f000
002840   9000     bcf     0x00, 0x0, 0x0   	BCF	r0x00, 0
002842   ee0f     lfsr    0x0, 0xf80       	LFSR	0x00, 0xf80
002844   f080
002846   c000     movff   0x000, 0xfef     	MOVFF	r0x00, INDF0
002848   ffef
00284a   cfe4     movff   0xfe4, 0x001     	MOVFF	PREINC1, r0x01
00284c   f001
00284e   cfe4     movff   0xfe4, 0x000     	MOVFF	PREINC1, r0x00
002850   f000
002852   cfe4     movff   0xfe4, 0xfd9     	MOVFF	PREINC1, FSR2L
002854   ffd9
002856   0012     return  0x0              	RETURN	

                                           ; ; Starting pCode block
                                           S_lcd__lcdLine	code
                                           _lcdLine:
                                           ;	.line	75; lcd.c	void lcdLine(int linha)
004b72   cfd9     movff   0xfd9, 0xfe5     	MOVFF	FSR2L, POSTDEC1
004b74   ffe5
004b76   cfe1     movff   0xfe1, 0xfd9     	MOVFF	FSR1L, FSR2L
004b78   ffd9
004b7a   c000     movff   0x000, 0xfe5     	MOVFF	r0x00, POSTDEC1
004b7c   ffe5
004b7e   c001     movff   0x001, 0xfe5     	MOVFF	r0x01, POSTDEC1
004b80   ffe5
004b82   0e02     movlw   0x02             	MOVLW	0x02
004b84   cfdb     movff   0xfdb, 0x000     	MOVFF	PLUSW2, r0x00
004b86   f000
004b88   0e03     movlw   0x03             	MOVLW	0x03
004b8a   cfdb     movff   0xfdb, 0x001     	MOVFF	PLUSW2, r0x01
004b8c   f001
                                           ;	.line	77; lcd.c	if(linha==2)
004b8e   5000     movf    0x00, 0x0, 0x0   	MOVF	r0x00, W
004b90   0a02     xorlw   0x02             	XORLW	0x02
004b92   e102     bnz     0x004b98         	BNZ	_00214_DS_
004b94   5001     movf    0x01, 0x0, 0x0   	MOVF	r0x01, W
004b96   e001     bz      0x004b9a         	BZ	_00215_DS_
                                           _00214_DS_:
004b98   d006     bra     0x004ba6         	BRA	_00207_DS_
                                           _00215_DS_:
                                           ;	.line	79; lcd.c	lcdCommand(0xC0);
004b9a   0ec0     movlw   0xc0             	MOVLW	0xc0
004b9c   6ee5     movwf   0xe5, 0x0        	MOVWF	POSTDEC1
004b9e   ec2c     call    0x002858, 0x0    	CALL	_lcdCommand
004ba0   f014
004ba2   52e6     movf    0xe6, 0x1, 0x0   	MOVF	POSTINC1, F
004ba4   d005     bra     0x004bb0         	BRA	_00209_DS_
                                           _00207_DS_:
                                           ;	.line	83; lcd.c	lcdCommand(0x80);
004ba6   0e80     movlw   0x80             	MOVLW	0x80
004ba8   6ee5     movwf   0xe5, 0x0        	MOVWF	POSTDEC1
004baa   ec2c     call    0x002858, 0x0    	CALL	_lcdCommand
004bac   f014
004bae   52e6     movf    0xe6, 0x1, 0x0   	MOVF	POSTINC1, F
                                           _00209_DS_:
004bb0   cfe4     movff   0xfe4, 0x001     	MOVFF	PREINC1, r0x01
004bb2   f001
004bb4   cfe4     movff   0xfe4, 0x000     	MOVFF	PREINC1, r0x00
004bb6   f000
004bb8   cfe4     movff   0xfe4, 0xfd9     	MOVFF	PREINC1, FSR2L
004bba   ffd9
004bbc   0012     return  0x0              	RETURN	

                                           ; ; Starting pCode block
                                           S_lcd__lcdCommand	code
                                           _lcdCommand:
                                           ;	.line	40; lcd.c	void lcdCommand(unsigned char cmd)
002858   cfd9     movff   0xfd9, 0xfe5     	MOVFF	FSR2L, POSTDEC1
00285a   ffe5
00285c   cfe1     movff   0xfe1, 0xfd9     	MOVFF	FSR1L, FSR2L
00285e   ffd9
002860   c000     movff   0x000, 0xfe5     	MOVFF	r0x00, POSTDEC1
002862   ffe5
002864   c001     movff   0x001, 0xfe5     	MOVFF	r0x01, POSTDEC1
002866   ffe5
002868   0e02     movlw   0x02             	MOVLW	0x02
00286a   cfdb     movff   0xfdb, 0x000     	MOVFF	PLUSW2, r0x00
00286c   f000
                                           ;	.line	43; lcd.c	delay2ms();
00286e   ec8f     call    0x004d1e, 0x0    	CALL	_delay2ms
002870   f026
                                           ;	.line	45; lcd.c	bitClr(PORTA,RS);
002872   ee0f     lfsr    0x0, 0xf80       	LFSR	0x00, 0xf80
002874   f080
002876   cfef     movff   0xfef, 0x001     	MOVFF	INDF0, r0x01
002878   f001
00287a   9001     bcf     0x01, 0x0, 0x0   	BCF	r0x01, 0
00287c   ee0f     lfsr    0x0, 0xf80       	LFSR	0x00, 0xf80
00287e   f080
002880   c001     movff   0x001, 0xfef     	MOVFF	r0x01, INDF0
002882   ffef
                                           ;	.line	46; lcd.c	bitClr(PORTA,EN);	//comando
002884   ee0f     lfsr    0x0, 0xf80       	LFSR	0x00, 0xf80
002886   f080
002888   cfef     movff   0xfef, 0x001     	MOVFF	INDF0, r0x01
00288a   f001
00288c   9201     bcf     0x01, 0x1, 0x0   	BCF	r0x01, 1
00288e   ee0f     lfsr    0x0, 0xf80       	LFSR	0x00, 0xf80
002890   f080
002892   c001     movff   0x001, 0xfef     	MOVFF	r0x01, INDF0
002894   ffef
                                           ;	.line	49; lcd.c	delay2ms();
002896   ec8f     call    0x004d1e, 0x0    	CALL	_delay2ms
002898   f026
                                           ;	.line	52; lcd.c	if(cmd&0b00010000){bitSet(PORTD,D1);}
00289a   a800     btfss   0x00, 0x4, 0x0   	BTFSS	r0x00, 4
00289c   d00a     bra     0x0028b2         	BRA	_00129_DS_
00289e   ee0f     lfsr    0x0, 0xf83       	LFSR	0x00, 0xf83
0028a0   f083
0028a2   cfef     movff   0xfef, 0x001     	MOVFF	INDF0, r0x01
0028a4   f001
0028a6   8e01     bsf     0x01, 0x7, 0x0   	BSF	r0x01, 7
0028a8   ee0f     lfsr    0x0, 0xf83       	LFSR	0x00, 0xf83
0028aa   f083
0028ac   c001     movff   0x001, 0xfef     	MOVFF	r0x01, INDF0
0028ae   ffef
0028b0   d009     bra     0x0028c4         	BRA	_00130_DS_
                                           _00129_DS_:
                                           ;	.line	53; lcd.c	else {bitClr(PORTD,D1);}
0028b2   ee0f     lfsr    0x0, 0xf83       	LFSR	0x00, 0xf83
0028b4   f083
0028b6   cfef     movff   0xfef, 0x001     	MOVFF	INDF0, r0x01
0028b8   f001
0028ba   9e01     bcf     0x01, 0x7, 0x0   	BCF	r0x01, 7
0028bc   ee0f     lfsr    0x0, 0xf83       	LFSR	0x00, 0xf83
0028be   f083
0028c0   c001     movff   0x001, 0xfef     	MOVFF	r0x01, INDF0
0028c2   ffef
                                           _00130_DS_:
                                           ;	.line	54; lcd.c	if(cmd&0b00100000){bitSet(PORTD,D2);}
0028c4   aa00     btfss   0x00, 0x5, 0x0   	BTFSS	r0x00, 5
0028c6   d00a     bra     0x0028dc         	BRA	_00132_DS_
0028c8   ee0f     lfsr    0x0, 0xf83       	LFSR	0x00, 0xf83
0028ca   f083
0028cc   cfef     movff   0xfef, 0x001     	MOVFF	INDF0, r0x01
0028ce   f001
0028d0   8c01     bsf     0x01, 0x6, 0x0   	BSF	r0x01, 6
0028d2   ee0f     lfsr    0x0, 0xf83       	LFSR	0x00, 0xf83
0028d4   f083
0028d6   c001     movff   0x001, 0xfef     	MOVFF	r0x01, INDF0
0028d8   ffef
0028da   d009     bra     0x0028ee         	BRA	_00133_DS_
                                           _00132_DS_:
                                           ;	.line	55; lcd.c	else {bitClr(PORTD,D2);}
0028dc   ee0f     lfsr    0x0, 0xf83       	LFSR	0x00, 0xf83
0028de   f083
0028e0   cfef     movff   0xfef, 0x001     	MOVFF	INDF0, r0x01
0028e2   f001
0028e4   9c01     bcf     0x01, 0x6, 0x0   	BCF	r0x01, 6
0028e6   ee0f     lfsr    0x0, 0xf83       	LFSR	0x00, 0xf83
0028e8   f083
0028ea   c001     movff   0x001, 0xfef     	MOVFF	r0x01, INDF0
0028ec   ffef
                                           _00133_DS_:
                                           ;	.line	56; lcd.c	if(cmd&0b01000000){bitSet(PORTD,D3);}
0028ee   ac00     btfss   0x00, 0x6, 0x0   	BTFSS	r0x00, 6
0028f0   d00a     bra     0x002906         	BRA	_00135_DS_
0028f2   ee0f     lfsr    0x0, 0xf83       	LFSR	0x00, 0xf83
0028f4   f083
0028f6   cfef     movff   0xfef, 0x001     	MOVFF	INDF0, r0x01
0028f8   f001
0028fa   8a01     bsf     0x01, 0x5, 0x0   	BSF	r0x01, 5
0028fc   ee0f     lfsr    0x0, 0xf83       	LFSR	0x00, 0xf83
0028fe   f083
002900   c001     movff   0x001, 0xfef     	MOVFF	r0x01, INDF0
002902   ffef
002904   d009     bra     0x002918         	BRA	_00136_DS_
                                           _00135_DS_:
                                           ;	.line	57; lcd.c	else {bitClr(PORTD,D3);}
002906   ee0f     lfsr    0x0, 0xf83       	LFSR	0x00, 0xf83
002908   f083
00290a   cfef     movff   0xfef, 0x001     	MOVFF	INDF0, r0x01
00290c   f001
00290e   9a01     bcf     0x01, 0x5, 0x0   	BCF	r0x01, 5
002910   ee0f     lfsr    0x0, 0xf83       	LFSR	0x00, 0xf83
002912   f083
002914   c001     movff   0x001, 0xfef     	MOVFF	r0x01, INDF0
002916   ffef
                                           _00136_DS_:
                                           ;	.line	58; lcd.c	if(cmd&0b10000000){bitSet(PORTD,D4);}
002918   ae00     btfss   0x00, 0x7, 0x0   	BTFSS	r0x00, 7
00291a   d00a     bra     0x002930         	BRA	_00138_DS_
00291c   ee0f     lfsr    0x0, 0xf83       	LFSR	0x00, 0xf83
00291e   f083
002920   cfef     movff   0xfef, 0x001     	MOVFF	INDF0, r0x01
002922   f001
002924   8801     bsf     0x01, 0x4, 0x0   	BSF	r0x01, 4
002926   ee0f     lfsr    0x0, 0xf83       	LFSR	0x00, 0xf83
002928   f083
00292a   c001     movff   0x001, 0xfef     	MOVFF	r0x01, INDF0
00292c   ffef
00292e   d009     bra     0x002942         	BRA	_00139_DS_
                                           _00138_DS_:
                                           ;	.line	59; lcd.c	else {bitClr(PORTD,D4);}
002930   ee0f     lfsr    0x0, 0xf83       	LFSR	0x00, 0xf83
002932   f083
002934   cfef     movff   0xfef, 0x001     	MOVFF	INDF0, r0x01
002936   f001
002938   9801     bcf     0x01, 0x4, 0x0   	BCF	r0x01, 4
00293a   ee0f     lfsr    0x0, 0xf83       	LFSR	0x00, 0xf83
00293c   f083
00293e   c001     movff   0x001, 0xfef     	MOVFF	r0x01, INDF0
002940   ffef
                                           _00139_DS_:
                                           ;	.line	60; lcd.c	pulsoEN();
002942   ecb4     call    0x004768, 0x0    	CALL	_pulsoEN
002944   f023
                                           ;	.line	63; lcd.c	if(cmd&0b00000001){bitSet(PORTD,D1);}
002946   a000     btfss   0x00, 0x0, 0x0   	BTFSS	r0x00, 0
002948   d00a     bra     0x00295e         	BRA	_00141_DS_
00294a   ee0f     lfsr    0x0, 0xf83       	LFSR	0x00, 0xf83
00294c   f083
00294e   cfef     movff   0xfef, 0x001     	MOVFF	INDF0, r0x01
002950   f001
002952   8e01     bsf     0x01, 0x7, 0x0   	BSF	r0x01, 7
002954   ee0f     lfsr    0x0, 0xf83       	LFSR	0x00, 0xf83
002956   f083
002958   c001     movff   0x001, 0xfef     	MOVFF	r0x01, INDF0
00295a   ffef
00295c   d009     bra     0x002970         	BRA	_00142_DS_
                                           _00141_DS_:
                                           ;	.line	64; lcd.c	else {bitClr(PORTD,D1);}
00295e   ee0f     lfsr    0x0, 0xf83       	LFSR	0x00, 0xf83
002960   f083
002962   cfef     movff   0xfef, 0x001     	MOVFF	INDF0, r0x01
002964   f001
002966   9e01     bcf     0x01, 0x7, 0x0   	BCF	r0x01, 7
002968   ee0f     lfsr    0x0, 0xf83       	LFSR	0x00, 0xf83
00296a   f083
00296c   c001     movff   0x001, 0xfef     	MOVFF	r0x01, INDF0
00296e   ffef
                                           _00142_DS_:
                                           ;	.line	65; lcd.c	if(cmd&0b00000010){bitSet(PORTD,D2);}
002970   a200     btfss   0x00, 0x1, 0x0   	BTFSS	r0x00, 1
002972   d00a     bra     0x002988         	BRA	_00144_DS_
002974   ee0f     lfsr    0x0, 0xf83       	LFSR	0x00, 0xf83
002976   f083
002978   cfef     movff   0xfef, 0x001     	MOVFF	INDF0, r0x01
00297a   f001
00297c   8c01     bsf     0x01, 0x6, 0x0   	BSF	r0x01, 6
00297e   ee0f     lfsr    0x0, 0xf83       	LFSR	0x00, 0xf83
002980   f083
002982   c001     movff   0x001, 0xfef     	MOVFF	r0x01, INDF0
002984   ffef
002986   d009     bra     0x00299a         	BRA	_00145_DS_
                                           _00144_DS_:
                                           ;	.line	66; lcd.c	else {bitClr(PORTD,D2);}
002988   ee0f     lfsr    0x0, 0xf83       	LFSR	0x00, 0xf83
00298a   f083
00298c   cfef     movff   0xfef, 0x001     	MOVFF	INDF0, r0x01
00298e   f001
002990   9c01     bcf     0x01, 0x6, 0x0   	BCF	r0x01, 6
002992   ee0f     lfsr    0x0, 0xf83       	LFSR	0x00, 0xf83
002994   f083
002996   c001     movff   0x001, 0xfef     	MOVFF	r0x01, INDF0
002998   ffef
                                           _00145_DS_:
                                           ;	.line	67; lcd.c	if(cmd&0b00000100){bitSet(PORTD,D3);}
00299a   a400     btfss   0x00, 0x2, 0x0   	BTFSS	r0x00, 2
00299c   d00a     bra     0x0029b2         	BRA	_00147_DS_
00299e   ee0f     lfsr    0x0, 0xf83       	LFSR	0x00, 0xf83
0029a0   f083
0029a2   cfef     movff   0xfef, 0x001     	MOVFF	INDF0, r0x01
0029a4   f001
0029a6   8a01     bsf     0x01, 0x5, 0x0   	BSF	r0x01, 5
0029a8   ee0f     lfsr    0x0, 0xf83       	LFSR	0x00, 0xf83
0029aa   f083
0029ac   c001     movff   0x001, 0xfef     	MOVFF	r0x01, INDF0
0029ae   ffef
0029b0   d009     bra     0x0029c4         	BRA	_00148_DS_
                                           _00147_DS_:
                                           ;	.line	68; lcd.c	else {bitClr(PORTD,D3);}
0029b2   ee0f     lfsr    0x0, 0xf83       	LFSR	0x00, 0xf83
0029b4   f083
0029b6   cfef     movff   0xfef, 0x001     	MOVFF	INDF0, r0x01
0029b8   f001
0029ba   9a01     bcf     0x01, 0x5, 0x0   	BCF	r0x01, 5
0029bc   ee0f     lfsr    0x0, 0xf83       	LFSR	0x00, 0xf83
0029be   f083
0029c0   c001     movff   0x001, 0xfef     	MOVFF	r0x01, INDF0
0029c2   ffef
                                           _00148_DS_:
                                           ;	.line	69; lcd.c	if(cmd&0b00001000){bitSet(PORTD,D4);}
0029c4   a600     btfss   0x00, 0x3, 0x0   	BTFSS	r0x00, 3
0029c6   d00a     bra     0x0029dc         	BRA	_00150_DS_
0029c8   ee0f     lfsr    0x0, 0xf83       	LFSR	0x00, 0xf83
0029ca   f083
0029cc   cfef     movff   0xfef, 0x000     	MOVFF	INDF0, r0x00
0029ce   f000
0029d0   8800     bsf     0x00, 0x4, 0x0   	BSF	r0x00, 4
0029d2   ee0f     lfsr    0x0, 0xf83       	LFSR	0x00, 0xf83
0029d4   f083
0029d6   c000     movff   0x000, 0xfef     	MOVFF	r0x00, INDF0
0029d8   ffef
0029da   d009     bra     0x0029ee         	BRA	_00151_DS_
                                           _00150_DS_:
                                           ;	.line	70; lcd.c	else {bitClr(PORTD,D4);}
0029dc   ee0f     lfsr    0x0, 0xf83       	LFSR	0x00, 0xf83
0029de   f083
0029e0   cfef     movff   0xfef, 0x000     	MOVFF	INDF0, r0x00
0029e2   f000
0029e4   9800     bcf     0x00, 0x4, 0x0   	BCF	r0x00, 4
0029e6   ee0f     lfsr    0x0, 0xf83       	LFSR	0x00, 0xf83
0029e8   f083
0029ea   c000     movff   0x000, 0xfef     	MOVFF	r0x00, INDF0
0029ec   ffef
                                           _00151_DS_:
                                           ;	.line	71; lcd.c	pulsoEN();
0029ee   ecb4     call    0x004768, 0x0    	CALL	_pulsoEN
0029f0   f023
0029f2   cfe4     movff   0xfe4, 0x001     	MOVFF	PREINC1, r0x01
0029f4   f001
0029f6   cfe4     movff   0xfe4, 0x000     	MOVFF	PREINC1, r0x00
0029f8   f000
0029fa   cfe4     movff   0xfe4, 0xfd9     	MOVFF	PREINC1, FSR2L
0029fc   ffd9
0029fe   0012     return  0x0              	RETURN	

                                           ; ; Starting pCode block
                                           S_lcd__pulsoEN	code
                                           _pulsoEN:
                                           ;	.line	27; lcd.c	void pulsoEN(void)
004768   cfd9     movff   0xfd9, 0xfe5     	MOVFF	FSR2L, POSTDEC1
00476a   ffe5
00476c   cfe1     movff   0xfe1, 0xfd9     	MOVFF	FSR1L, FSR2L
00476e   ffd9
004770   c000     movff   0x000, 0xfe5     	MOVFF	r0x00, POSTDEC1
004772   ffe5
                                           ;	.line	29; lcd.c	bitClr(PORTA,EN);
004774   ee0f     lfsr    0x0, 0xf80       	LFSR	0x00, 0xf80
004776   f080
004778   cfef     movff   0xfef, 0x000     	MOVFF	INDF0, r0x00
00477a   f000
00477c   9200     bcf     0x00, 0x1, 0x0   	BCF	r0x00, 1
00477e   ee0f     lfsr    0x0, 0xf80       	LFSR	0x00, 0xf80
004780   f080
004782   c000     movff   0x000, 0xfef     	MOVFF	r0x00, INDF0
004784   ffef
                                           ;	.line	30; lcd.c	delay2ms();
004786   ec8f     call    0x004d1e, 0x0    	CALL	_delay2ms
004788   f026
                                           ;	.line	32; lcd.c	bitSet(PORTA,EN);   //Pulso no Enable
00478a   ee0f     lfsr    0x0, 0xf80       	LFSR	0x00, 0xf80
00478c   f080
00478e   cfef     movff   0xfef, 0x000     	MOVFF	INDF0, r0x00
004790   f000
004792   8200     bsf     0x00, 0x1, 0x0   	BSF	r0x00, 1
004794   ee0f     lfsr    0x0, 0xf80       	LFSR	0x00, 0xf80
004796   f080
004798   c000     movff   0x000, 0xfef     	MOVFF	r0x00, INDF0
00479a   ffef
                                           ;	.line	33; lcd.c	delay2ms();
00479c   ec8f     call    0x004d1e, 0x0    	CALL	_delay2ms
00479e   f026
                                           ;	.line	35; lcd.c	bitClr(PORTA,EN);
0047a0   ee0f     lfsr    0x0, 0xf80       	LFSR	0x00, 0xf80
0047a2   f080
0047a4   cfef     movff   0xfef, 0x000     	MOVFF	INDF0, r0x00
0047a6   f000
0047a8   9200     bcf     0x00, 0x1, 0x0   	BCF	r0x00, 1
0047aa   ee0f     lfsr    0x0, 0xf80       	LFSR	0x00, 0xf80
0047ac   f080
0047ae   c000     movff   0x000, 0xfef     	MOVFF	r0x00, INDF0
0047b0   ffef
                                           ;	.line	36; lcd.c	delay2ms();
0047b2   ec8f     call    0x004d1e, 0x0    	CALL	_delay2ms
0047b4   f026
0047b6   cfe4     movff   0xfe4, 0x000     	MOVFF	PREINC1, r0x00
0047b8   f000
0047ba   cfe4     movff   0xfe4, 0xfd9     	MOVFF	PREINC1, FSR2L
0047bc   ffd9
0047be   0012     return  0x0              	RETURN	

                                           ; ; Starting pCode block
                                           S_lcd__delay2ms	code
                                           _delay2ms:
                                           ;	.line	18; lcd.c	void delay2ms(void)
004d1e   cfd9     movff   0xfd9, 0xfe5     	MOVFF	FSR2L, POSTDEC1
004d20   ffe5
004d22   cfe1     movff   0xfe1, 0xfd9     	MOVFF	FSR1L, FSR2L
004d24   ffd9
004d26   c000     movff   0x000, 0xfe5     	MOVFF	r0x00, POSTDEC1
004d28   ffe5
004d2a   c001     movff   0x001, 0xfe5     	MOVFF	r0x01, POSTDEC1
004d2c   ffe5
                                           ;	.line	21; lcd.c	for(i=0; i < 10; i++)
004d2e   0e0a     movlw   0x0a             	MOVLW	0x0a
004d30   6e00     movwf   0x00, 0x0        	MOVWF	r0x00
                                           _00117_DS_:
                                           ;	.line	23; lcd.c	delay40us();
004d32   ecd8     call    0x004db0, 0x0    	CALL	_delay40us
004d34   f026
004d36   0400     decf    0x00, 0x0, 0x0   	DECF	r0x00, W
004d38   6e01     movwf   0x01, 0x0        	MOVWF	r0x01
004d3a   c001     movff   0x001, 0x000     	MOVFF	r0x01, r0x00
004d3c   f000
                                           ;	.line	21; lcd.c	for(i=0; i < 10; i++)
004d3e   5001     movf    0x01, 0x0, 0x0   	MOVF	r0x01, W
004d40   e1f8     bnz     0x004d32         	BNZ	_00117_DS_
004d42   cfe4     movff   0xfe4, 0x001     	MOVFF	PREINC1, r0x01
004d44   f001
004d46   cfe4     movff   0xfe4, 0x000     	MOVFF	PREINC1, r0x00
004d48   f000
004d4a   cfe4     movff   0xfe4, 0xfd9     	MOVFF	PREINC1, FSR2L
004d4c   ffd9
004d4e   0012     return  0x0              	RETURN	

                                           ; ; Starting pCode block
                                           S_lcd__delay40us	code
                                           _delay40us:
                                           ;	.line	13; lcd.c	void delay40us(void){
004db0   cfd9     movff   0xfd9, 0xfe5     	MOVFF	FSR2L, POSTDEC1
004db2   ffe5
004db4   cfe1     movff   0xfe1, 0xfd9     	MOVFF	FSR1L, FSR2L
004db6   ffd9
004db8   c000     movff   0x000, 0xfe5     	MOVFF	r0x00, POSTDEC1
004dba   ffe5
004dbc   c001     movff   0x001, 0xfe5     	MOVFF	r0x01, POSTDEC1
004dbe   ffe5
                                           ;	.line	15; lcd.c	for(k=0; k < 25; k++); //valor aproximado 
004dc0   0e19     movlw   0x19             	MOVLW	0x19
004dc2   6e00     movwf   0x00, 0x0        	MOVWF	r0x00
                                           _00108_DS_:
004dc4   0400     decf    0x00, 0x0, 0x0   	DECF	r0x00, W
004dc6   6e01     movwf   0x01, 0x0        	MOVWF	r0x01
004dc8   c001     movff   0x001, 0x000     	MOVFF	r0x01, r0x00
004dca   f000
004dcc   5001     movf    0x01, 0x0, 0x0   	MOVF	r0x01, W
004dce   e1fa     bnz     0x004dc4         	BNZ	_00108_DS_
004dd0   cfe4     movff   0xfe4, 0x001     	MOVFF	PREINC1, r0x01
004dd2   f001
004dd4   cfe4     movff   0xfe4, 0x000     	MOVFF	PREINC1, r0x00
004dd6   f000
004dd8   cfe4     movff   0xfe4, 0xfd9     	MOVFF	PREINC1, FSR2L
004dda   ffd9
004ddc   0012     return  0x0              	RETURN	



                                           ; Statistics:
                                           ; code size:	 2468 (0x09a4) bytes ( 1.88%)
                                           ;           	 1234 (0x04d2) words
                                           ; udata size:	    0 (0x0000) bytes ( 0.00%)
                                           ; access size:	    7 (0x0007) bytes


                                           	end
                                           ;--------------------------------------------------------
                                           ; File Created by SDCC : free open source ANSI-C Compiler
                                           ; Version 3.6.0 #9615 (MINGW64)
                                           ;--------------------------------------------------------
                                           ; PIC16 port for the Microchip 16-bit core micros
                                           ;--------------------------------------------------------
                                           	list	p=18f4550
                                           	radix	dec


                                           ;--------------------------------------------------------
                                           ; public variables in this module
                                           ;--------------------------------------------------------
                                           	global	_pwmSet1
                                           	global	_pwmSet2
                                           	global	_pwmFrequency
                                           	global	_pwmInit

                                           ;--------------------------------------------------------
                                           ; extern variables in this module
                                           ;--------------------------------------------------------
                                           	extern	__mulint
                                           	extern	__divuint
                                           	extern	__divslong

                                           ;--------------------------------------------------------
                                           ;	Equates to used internal registers
                                           ;--------------------------------------------------------
                                           STATUS	equ	0xfd8
                                           FSR0L	equ	0xfe9
                                           FSR1L	equ	0xfe1
                                           FSR2L	equ	0xfd9
                                           INDF0	equ	0xfef
                                           POSTDEC1	equ	0xfe5
                                           PREINC1	equ	0xfe4
                                           PLUSW2	equ	0xfdb
                                           PRODL	equ	0xff3
                                           PRODH	equ	0xff4


                                           ; Internal registers
                                           .registers	udata_ovr	0x0000
                                           r0x00	res	1
                                           r0x01	res	1
                                           r0x02	res	1
                                           r0x03	res	1

                                           ;--------------------------------------------------------
                                           ; global & static initialisations
                                           ;--------------------------------------------------------
                                           ; I code from now on!
                                           ; ; Starting pCode block
                                           S_pwm__pwmInit	code
                                           _pwmInit:
                                           ;	.line	59; pwm.c	void pwmInit(void)
0041c8   cfd9     movff   0xfd9, 0xfe5     	MOVFF	FSR2L, POSTDEC1
0041ca   ffe5
0041cc   cfe1     movff   0xfe1, 0xfd9     	MOVFF	FSR1L, FSR2L
0041ce   ffd9
0041d0   c000     movff   0x000, 0xfe5     	MOVFF	r0x00, POSTDEC1
0041d2   ffe5
                                           ;	.line	61; pwm.c	bitClr(TRISC,1);//configura os pinos correspondentes como sadas
0041d4   ee0f     lfsr    0x0, 0xf94       	LFSR	0x00, 0xf94
0041d6   f094
0041d8   cfef     movff   0xfef, 0x000     	MOVFF	INDF0, r0x00
0041da   f000
0041dc   9200     bcf     0x00, 0x1, 0x0   	BCF	r0x00, 1
0041de   ee0f     lfsr    0x0, 0xf94       	LFSR	0x00, 0xf94
0041e0   f094
0041e2   c000     movff   0x000, 0xfef     	MOVFF	r0x00, INDF0
0041e4   ffef
                                           ;	.line	62; pwm.c	bitClr(TRISC,2);
0041e6   ee0f     lfsr    0x0, 0xf94       	LFSR	0x00, 0xf94
0041e8   f094
0041ea   cfef     movff   0xfef, 0x000     	MOVFF	INDF0, r0x00
0041ec   f000
0041ee   9400     bcf     0x00, 0x2, 0x0   	BCF	r0x00, 2
0041f0   ee0f     lfsr    0x0, 0xf94       	LFSR	0x00, 0xf94
0041f2   f094
0041f4   c000     movff   0x000, 0xfef     	MOVFF	r0x00, INDF0
0041f6   ffef
                                           ;	.line	64; pwm.c	T2CON |= 0b00000011; //configura o prescale do timer 2 para 1:16
0041f8   ee0f     lfsr    0x0, 0xfca       	LFSR	0x00, 0xfca
0041fa   f0ca
0041fc   cfef     movff   0xfef, 0x000     	MOVFF	INDF0, r0x00
0041fe   f000
004200   0e03     movlw   0x03             	MOVLW	0x03
004202   1200     iorwf   0x00, 0x1, 0x0   	IORWF	r0x00, F
004204   ee0f     lfsr    0x0, 0xfca       	LFSR	0x00, 0xfca
004206   f0ca
004208   c000     movff   0x000, 0xfef     	MOVFF	r0x00, INDF0
00420a   ffef
                                           ;	.line	65; pwm.c	bitSet(T2CON,2); //Liga o timer 2
00420c   ee0f     lfsr    0x0, 0xfca       	LFSR	0x00, 0xfca
00420e   f0ca
004210   cfef     movff   0xfef, 0x000     	MOVFF	INDF0, r0x00
004212   f000
004214   8400     bsf     0x00, 0x2, 0x0   	BSF	r0x00, 2
004216   ee0f     lfsr    0x0, 0xfca       	LFSR	0x00, 0xfca
004218   f0ca
00421a   c000     movff   0x000, 0xfef     	MOVFF	r0x00, INDF0
00421c   ffef
                                           ;	.line	68; pwm.c	CCP1CON |= 0b00001100;	//configura CCP1 como um PWM
00421e   ee0f     lfsr    0x0, 0xfbd       	LFSR	0x00, 0xfbd
004220   f0bd
004222   cfef     movff   0xfef, 0x000     	MOVFF	INDF0, r0x00
004224   f000
004226   0e0c     movlw   0x0c             	MOVLW	0x0c
004228   1200     iorwf   0x00, 0x1, 0x0   	IORWF	r0x00, F
00422a   ee0f     lfsr    0x0, 0xfbd       	LFSR	0x00, 0xfbd
00422c   f0bd
00422e   c000     movff   0x000, 0xfef     	MOVFF	r0x00, INDF0
004230   ffef
                                           ;	.line	69; pwm.c	CCP2CON |= 0b00001100;	//configura CCP2 como um PWM
004232   ee0f     lfsr    0x0, 0xfba       	LFSR	0x00, 0xfba
004234   f0ba
004236   cfef     movff   0xfef, 0x000     	MOVFF	INDF0, r0x00
004238   f000
00423a   0e0c     movlw   0x0c             	MOVLW	0x0c
00423c   1200     iorwf   0x00, 0x1, 0x0   	IORWF	r0x00, F
00423e   ee0f     lfsr    0x0, 0xfba       	LFSR	0x00, 0xfba
004240   f0ba
004242   c000     movff   0x000, 0xfef     	MOVFF	r0x00, INDF0
004244   ffef
004246   cfe4     movff   0xfe4, 0x000     	MOVFF	PREINC1, r0x00
004248   f000
00424a   cfe4     movff   0xfe4, 0xfd9     	MOVFF	PREINC1, FSR2L
00424c   ffd9
00424e   0012     return  0x0              	RETURN	

                                           ; ; Starting pCode block
                                           S_pwm__pwmFrequency	code
                                           _pwmFrequency:
                                           ;	.line	52; pwm.c	void pwmFrequency(unsigned int freq)
004250   cfd9     movff   0xfd9, 0xfe5     	MOVFF	FSR2L, POSTDEC1
004252   ffe5
004254   cfe1     movff   0xfe1, 0xfd9     	MOVFF	FSR1L, FSR2L
004256   ffd9
004258   c000     movff   0x000, 0xfe5     	MOVFF	r0x00, POSTDEC1
00425a   ffe5
00425c   c001     movff   0x001, 0xfe5     	MOVFF	r0x01, POSTDEC1
00425e   ffe5
004260   c002     movff   0x002, 0xfe5     	MOVFF	r0x02, POSTDEC1
004262   ffe5
004264   c003     movff   0x003, 0xfe5     	MOVFF	r0x03, POSTDEC1
004266   ffe5
004268   0e02     movlw   0x02             	MOVLW	0x02
00426a   cfdb     movff   0xfdb, 0x000     	MOVFF	PLUSW2, r0x00
00426c   f000
00426e   0e03     movlw   0x03             	MOVLW	0x03
004270   cfdb     movff   0xfdb, 0x001     	MOVFF	PLUSW2, r0x01
004272   f001
                                           ;	.line	56; pwm.c	PR2 = (125000/(freq)) - 1;
004274   6a02     clrf    0x02, 0x0        	CLRF	r0x02
004276   6a03     clrf    0x03, 0x0        	CLRF	r0x03
004278   5003     movf    0x03, 0x0, 0x0   	MOVF	r0x03, W
00427a   6ee5     movwf   0xe5, 0x0        	MOVWF	POSTDEC1
00427c   5002     movf    0x02, 0x0, 0x0   	MOVF	r0x02, W
00427e   6ee5     movwf   0xe5, 0x0        	MOVWF	POSTDEC1
004280   5001     movf    0x01, 0x0, 0x0   	MOVF	r0x01, W
004282   6ee5     movwf   0xe5, 0x0        	MOVWF	POSTDEC1
004284   5000     movf    0x00, 0x0, 0x0   	MOVF	r0x00, W
004286   6ee5     movwf   0xe5, 0x0        	MOVWF	POSTDEC1
004288   0e00     movlw   0x00             	MOVLW	0x00
00428a   6ee5     movwf   0xe5, 0x0        	MOVWF	POSTDEC1
00428c   0e01     movlw   0x01             	MOVLW	0x01
00428e   6ee5     movwf   0xe5, 0x0        	MOVWF	POSTDEC1
004290   0ee8     movlw   0xe8             	MOVLW	0xe8
004292   6ee5     movwf   0xe5, 0x0        	MOVWF	POSTDEC1
004294   0e48     movlw   0x48             	MOVLW	0x48
004296   6ee5     movwf   0xe5, 0x0        	MOVWF	POSTDEC1
004298   ec00     call    0x002a00, 0x0    	CALL	__divslong
00429a   f015
00429c   6e00     movwf   0x00, 0x0        	MOVWF	r0x00
00429e   cff3     movff   0xff3, 0x001     	MOVFF	PRODL, r0x01
0042a0   f001
0042a2   cff4     movff   0xff4, 0x002     	MOVFF	PRODH, r0x02
0042a4   f002
0042a6   cfe9     movff   0xfe9, 0x003     	MOVFF	FSR0L, r0x03
0042a8   f003
0042aa   0e08     movlw   0x08             	MOVLW	0x08
0042ac   26e1     addwf   0xe1, 0x1, 0x0   	ADDWF	FSR1L, F
0042ae   0600     decf    0x00, 0x1, 0x0   	DECF	r0x00, F
0042b0   ee0f     lfsr    0x0, 0xfcb       	LFSR	0x00, 0xfcb
0042b2   f0cb
0042b4   c000     movff   0x000, 0xfef     	MOVFF	r0x00, INDF0
0042b6   ffef
0042b8   cfe4     movff   0xfe4, 0x003     	MOVFF	PREINC1, r0x03
0042ba   f003
0042bc   cfe4     movff   0xfe4, 0x002     	MOVFF	PREINC1, r0x02
0042be   f002
0042c0   cfe4     movff   0xfe4, 0x001     	MOVFF	PREINC1, r0x01
0042c2   f001
0042c4   cfe4     movff   0xfe4, 0x000     	MOVFF	PREINC1, r0x00
0042c6   f000
0042c8   cfe4     movff   0xfe4, 0xfd9     	MOVFF	PREINC1, FSR2L
0042ca   ffd9
0042cc   0012     return  0x0              	RETURN	

                                           ; ; Starting pCode block
                                           S_pwm__pwmSet2	code
                                           _pwmSet2:
                                           ;	.line	40; pwm.c	void pwmSet2(unsigned char porcento)
0039c2   cfd9     movff   0xfd9, 0xfe5     	MOVFF	FSR2L, POSTDEC1
0039c4   ffe5
0039c6   cfe1     movff   0xfe1, 0xfd9     	MOVFF	FSR1L, FSR2L
0039c8   ffd9
0039ca   c000     movff   0x000, 0xfe5     	MOVFF	r0x00, POSTDEC1
0039cc   ffe5
0039ce   c001     movff   0x001, 0xfe5     	MOVFF	r0x01, POSTDEC1
0039d0   ffe5
0039d2   c002     movff   0x002, 0xfe5     	MOVFF	r0x02, POSTDEC1
0039d4   ffe5
0039d6   c003     movff   0x003, 0xfe5     	MOVFF	r0x03, POSTDEC1
0039d8   ffe5
0039da   0e02     movlw   0x02             	MOVLW	0x02
0039dc   cfdb     movff   0xfdb, 0x000     	MOVFF	PLUSW2, r0x00
0039de   f000
                                           ;	.line	42; pwm.c	unsigned int val = ((unsigned int)porcento) *(PR2+1);
0039e0   6a01     clrf    0x01, 0x0        	CLRF	r0x01
0039e2   ee0f     lfsr    0x0, 0xfcb       	LFSR	0x00, 0xfcb
0039e4   f0cb
0039e6   cfef     movff   0xfef, 0x002     	MOVFF	INDF0, r0x02
0039e8   f002
0039ea   6a03     clrf    0x03, 0x0        	CLRF	r0x03
0039ec   4a02     infsnz  0x02, 0x1, 0x0   	INFSNZ	r0x02, F
0039ee   2a03     incf    0x03, 0x1, 0x0   	INCF	r0x03, F
0039f0   5003     movf    0x03, 0x0, 0x0   	MOVF	r0x03, W
0039f2   6ee5     movwf   0xe5, 0x0        	MOVWF	POSTDEC1
0039f4   5002     movf    0x02, 0x0, 0x0   	MOVF	r0x02, W
0039f6   6ee5     movwf   0xe5, 0x0        	MOVWF	POSTDEC1
0039f8   5001     movf    0x01, 0x0, 0x0   	MOVF	r0x01, W
0039fa   6ee5     movwf   0xe5, 0x0        	MOVWF	POSTDEC1
0039fc   5000     movf    0x00, 0x0, 0x0   	MOVF	r0x00, W
0039fe   6ee5     movwf   0xe5, 0x0        	MOVWF	POSTDEC1
003a00   eca8     call    0x003d50, 0x0    	CALL	__mulint
003a02   f01e
003a04   6e00     movwf   0x00, 0x0        	MOVWF	r0x00
003a06   cff3     movff   0xff3, 0x001     	MOVFF	PRODL, r0x01
003a08   f001
003a0a   0e04     movlw   0x04             	MOVLW	0x04
003a0c   26e1     addwf   0xe1, 0x1, 0x0   	ADDWF	FSR1L, F
                                           ;	.line	43; pwm.c	val /= 25;
003a0e   0e00     movlw   0x00             	MOVLW	0x00
003a10   6ee5     movwf   0xe5, 0x0        	MOVWF	POSTDEC1
003a12   0e19     movlw   0x19             	MOVLW	0x19
003a14   6ee5     movwf   0xe5, 0x0        	MOVWF	POSTDEC1
003a16   5001     movf    0x01, 0x0, 0x0   	MOVF	r0x01, W
003a18   6ee5     movwf   0xe5, 0x0        	MOVWF	POSTDEC1
003a1a   5000     movf    0x00, 0x0, 0x0   	MOVF	r0x00, W
003a1c   6ee5     movwf   0xe5, 0x0        	MOVWF	POSTDEC1
003a1e   ecfa     call    0x003bf4, 0x0    	CALL	__divuint
003a20   f01d
003a22   6e00     movwf   0x00, 0x0        	MOVWF	r0x00
003a24   cff3     movff   0xff3, 0x001     	MOVFF	PRODL, r0x01
003a26   f001
003a28   0e04     movlw   0x04             	MOVLW	0x04
003a2a   26e1     addwf   0xe1, 0x1, 0x0   	ADDWF	FSR1L, F
                                           ;	.line	45; pwm.c	val &= 0x03ff;
003a2c   0e03     movlw   0x03             	MOVLW	0x03
003a2e   1601     andwf   0x01, 0x1, 0x0   	ANDWF	r0x01, F
                                           ;	.line	47; pwm.c	CCPR2L = val >> 2;
003a30   90d8     bcf     0xd8, 0x0, 0x0   	BCF	STATUS, 0
003a32   3001     rrcf    0x01, 0x0, 0x0   	RRCF	r0x01, W
003a34   6e03     movwf   0x03, 0x0        	MOVWF	r0x03
003a36   3000     rrcf    0x00, 0x0, 0x0   	RRCF	r0x00, W
003a38   6e02     movwf   0x02, 0x0        	MOVWF	r0x02
003a3a   90d8     bcf     0xd8, 0x0, 0x0   	BCF	STATUS, 0
003a3c   3203     rrcf    0x03, 0x1, 0x0   	RRCF	r0x03, F
003a3e   3202     rrcf    0x02, 0x1, 0x0   	RRCF	r0x02, F
003a40   ee0f     lfsr    0x0, 0xfbb       	LFSR	0x00, 0xfbb
003a42   f0bb
003a44   c002     movff   0x002, 0xfef     	MOVFF	r0x02, INDF0
003a46   ffef
                                           ;	.line	49; pwm.c	CCP2CON |= (val & 0x0003) << 4;
003a48   ee0f     lfsr    0x0, 0xfba       	LFSR	0x00, 0xfba
003a4a   f0ba
003a4c   cfef     movff   0xfef, 0x002     	MOVFF	INDF0, r0x02
003a4e   f002
003a50   0e03     movlw   0x03             	MOVLW	0x03
003a52   1600     andwf   0x00, 0x1, 0x0   	ANDWF	r0x00, F
003a54   6a01     clrf    0x01, 0x0        	CLRF	r0x01
003a56   3800     swapf   0x00, 0x0, 0x0   	SWAPF	r0x00, W
003a58   0bf0     andlw   0xf0             	ANDLW	0xf0
003a5a   6e01     movwf   0x01, 0x0        	MOVWF	r0x01
003a5c   5001     movf    0x01, 0x0, 0x0   	MOVF	r0x01, W
003a5e   1202     iorwf   0x02, 0x1, 0x0   	IORWF	r0x02, F
003a60   ee0f     lfsr    0x0, 0xfba       	LFSR	0x00, 0xfba
003a62   f0ba
003a64   c002     movff   0x002, 0xfef     	MOVFF	r0x02, INDF0
003a66   ffef
003a68   cfe4     movff   0xfe4, 0x003     	MOVFF	PREINC1, r0x03
003a6a   f003
003a6c   cfe4     movff   0xfe4, 0x002     	MOVFF	PREINC1, r0x02
003a6e   f002
003a70   cfe4     movff   0xfe4, 0x001     	MOVFF	PREINC1, r0x01
003a72   f001
003a74   cfe4     movff   0xfe4, 0x000     	MOVFF	PREINC1, r0x00
003a76   f000
003a78   cfe4     movff   0xfe4, 0xfd9     	MOVFF	PREINC1, FSR2L
003a7a   ffd9
003a7c   0012     return  0x0              	RETURN	

                                           ; ; Starting pCode block
                                           S_pwm__pwmSet1	code
                                           _pwmSet1:
                                           ;	.line	23; pwm.c	void pwmSet1(unsigned char porcento)
003a7e   cfd9     movff   0xfd9, 0xfe5     	MOVFF	FSR2L, POSTDEC1
003a80   ffe5
003a82   cfe1     movff   0xfe1, 0xfd9     	MOVFF	FSR1L, FSR2L
003a84   ffd9
003a86   c000     movff   0x000, 0xfe5     	MOVFF	r0x00, POSTDEC1
003a88   ffe5
003a8a   c001     movff   0x001, 0xfe5     	MOVFF	r0x01, POSTDEC1
003a8c   ffe5
003a8e   c002     movff   0x002, 0xfe5     	MOVFF	r0x02, POSTDEC1
003a90   ffe5
003a92   c003     movff   0x003, 0xfe5     	MOVFF	r0x03, POSTDEC1
003a94   ffe5
003a96   0e02     movlw   0x02             	MOVLW	0x02
003a98   cfdb     movff   0xfdb, 0x000     	MOVFF	PLUSW2, r0x00
003a9a   f000
                                           ;	.line	30; pwm.c	unsigned int val = ((unsigned int)porcento) *(PR2+1);
003a9c   6a01     clrf    0x01, 0x0        	CLRF	r0x01
003a9e   ee0f     lfsr    0x0, 0xfcb       	LFSR	0x00, 0xfcb
003aa0   f0cb
003aa2   cfef     movff   0xfef, 0x002     	MOVFF	INDF0, r0x02
003aa4   f002
003aa6   6a03     clrf    0x03, 0x0        	CLRF	r0x03
003aa8   4a02     infsnz  0x02, 0x1, 0x0   	INFSNZ	r0x02, F
003aaa   2a03     incf    0x03, 0x1, 0x0   	INCF	r0x03, F
003aac   5003     movf    0x03, 0x0, 0x0   	MOVF	r0x03, W
003aae   6ee5     movwf   0xe5, 0x0        	MOVWF	POSTDEC1
003ab0   5002     movf    0x02, 0x0, 0x0   	MOVF	r0x02, W
003ab2   6ee5     movwf   0xe5, 0x0        	MOVWF	POSTDEC1
003ab4   5001     movf    0x01, 0x0, 0x0   	MOVF	r0x01, W
003ab6   6ee5     movwf   0xe5, 0x0        	MOVWF	POSTDEC1
003ab8   5000     movf    0x00, 0x0, 0x0   	MOVF	r0x00, W
003aba   6ee5     movwf   0xe5, 0x0        	MOVWF	POSTDEC1
003abc   eca8     call    0x003d50, 0x0    	CALL	__mulint
003abe   f01e
003ac0   6e00     movwf   0x00, 0x0        	MOVWF	r0x00
003ac2   cff3     movff   0xff3, 0x001     	MOVFF	PRODL, r0x01
003ac4   f001
003ac6   0e04     movlw   0x04             	MOVLW	0x04
003ac8   26e1     addwf   0xe1, 0x1, 0x0   	ADDWF	FSR1L, F
                                           ;	.line	31; pwm.c	val = val / 25;
003aca   0e00     movlw   0x00             	MOVLW	0x00
003acc   6ee5     movwf   0xe5, 0x0        	MOVWF	POSTDEC1
003ace   0e19     movlw   0x19             	MOVLW	0x19
003ad0   6ee5     movwf   0xe5, 0x0        	MOVWF	POSTDEC1
003ad2   5001     movf    0x01, 0x0, 0x0   	MOVF	r0x01, W
003ad4   6ee5     movwf   0xe5, 0x0        	MOVWF	POSTDEC1
003ad6   5000     movf    0x00, 0x0, 0x0   	MOVF	r0x00, W
003ad8   6ee5     movwf   0xe5, 0x0        	MOVWF	POSTDEC1
003ada   ecfa     call    0x003bf4, 0x0    	CALL	__divuint
003adc   f01d
003ade   6e00     movwf   0x00, 0x0        	MOVWF	r0x00
003ae0   cff3     movff   0xff3, 0x001     	MOVFF	PRODL, r0x01
003ae2   f001
003ae4   0e04     movlw   0x04             	MOVLW	0x04
003ae6   26e1     addwf   0xe1, 0x1, 0x0   	ADDWF	FSR1L, F
                                           ;	.line	33; pwm.c	val &= 0x03ff;
003ae8   0e03     movlw   0x03             	MOVLW	0x03
003aea   1601     andwf   0x01, 0x1, 0x0   	ANDWF	r0x01, F
                                           ;	.line	35; pwm.c	CCPR1L = val >> 2;
003aec   90d8     bcf     0xd8, 0x0, 0x0   	BCF	STATUS, 0
003aee   3001     rrcf    0x01, 0x0, 0x0   	RRCF	r0x01, W
003af0   6e03     movwf   0x03, 0x0        	MOVWF	r0x03
003af2   3000     rrcf    0x00, 0x0, 0x0   	RRCF	r0x00, W
003af4   6e02     movwf   0x02, 0x0        	MOVWF	r0x02
003af6   90d8     bcf     0xd8, 0x0, 0x0   	BCF	STATUS, 0
003af8   3203     rrcf    0x03, 0x1, 0x0   	RRCF	r0x03, F
003afa   3202     rrcf    0x02, 0x1, 0x0   	RRCF	r0x02, F
003afc   ee0f     lfsr    0x0, 0xfbe       	LFSR	0x00, 0xfbe
003afe   f0be
003b00   c002     movff   0x002, 0xfef     	MOVFF	r0x02, INDF0
003b02   ffef
                                           ;	.line	37; pwm.c	CCP1CON |= (val & 0x0003) << 4;
003b04   ee0f     lfsr    0x0, 0xfbd       	LFSR	0x00, 0xfbd
003b06   f0bd
003b08   cfef     movff   0xfef, 0x002     	MOVFF	INDF0, r0x02
003b0a   f002
003b0c   0e03     movlw   0x03             	MOVLW	0x03
003b0e   1600     andwf   0x00, 0x1, 0x0   	ANDWF	r0x00, F
003b10   6a01     clrf    0x01, 0x0        	CLRF	r0x01
003b12   3800     swapf   0x00, 0x0, 0x0   	SWAPF	r0x00, W
003b14   0bf0     andlw   0xf0             	ANDLW	0xf0
003b16   6e01     movwf   0x01, 0x0        	MOVWF	r0x01
003b18   5001     movf    0x01, 0x0, 0x0   	MOVF	r0x01, W
003b1a   1202     iorwf   0x02, 0x1, 0x0   	IORWF	r0x02, F
003b1c   ee0f     lfsr    0x0, 0xfbd       	LFSR	0x00, 0xfbd
003b1e   f0bd
003b20   c002     movff   0x002, 0xfef     	MOVFF	r0x02, INDF0
003b22   ffef
003b24   cfe4     movff   0xfe4, 0x003     	MOVFF	PREINC1, r0x03
003b26   f003
003b28   cfe4     movff   0xfe4, 0x002     	MOVFF	PREINC1, r0x02
003b2a   f002
003b2c   cfe4     movff   0xfe4, 0x001     	MOVFF	PREINC1, r0x01
003b2e   f001
003b30   cfe4     movff   0xfe4, 0x000     	MOVFF	PREINC1, r0x00
003b32   f000
003b34   cfe4     movff   0xfe4, 0xfd9     	MOVFF	PREINC1, FSR2L
003b36   ffd9
003b38   0012     return  0x0              	RETURN	



                                           ; Statistics:
                                           ; code size:	  638 (0x027e) bytes ( 0.49%)
                                           ;           	  319 (0x013f) words
                                           ; udata size:	    0 (0x0000) bytes ( 0.00%)
                                           ; access size:	    4 (0x0004) bytes


                                           	end
                                           ;--------------------------------------------------------
                                           ; File Created by SDCC : free open source ANSI-C Compiler
                                           ; Version 3.6.0 #9615 (MINGW64)
                                           ;--------------------------------------------------------
                                           ; PIC16 port for the Microchip 16-bit core micros
                                           ;--------------------------------------------------------
                                           	list	p=18f4550
                                           	radix	dec


                                           ;--------------------------------------------------------
                                           ; public variables in this module
                                           ;--------------------------------------------------------
                                           	global	_dacI2c

                                           ;--------------------------------------------------------
                                           ; extern variables in this module
                                           ;--------------------------------------------------------
                                           	extern	_i2cStart
                                           	extern	_i2cStop
                                           	extern	_i2cSend

                                           ;--------------------------------------------------------
                                           ;	Equates to used internal registers
                                           ;--------------------------------------------------------
                                           FSR1L	equ	0xfe1
                                           FSR2L	equ	0xfd9
                                           POSTINC1	equ	0xfe6
                                           POSTDEC1	equ	0xfe5
                                           PREINC1	equ	0xfe4
                                           PLUSW2	equ	0xfdb


                                           ; Internal registers
                                           .registers	udata_ovr	0x0000
                                           r0x00	res	1
                                           r0x01	res	1
                                           r0x02	res	1
                                           r0x03	res	1

                                           ;--------------------------------------------------------
                                           ; global & static initialisations
                                           ;--------------------------------------------------------
                                           ; I code from now on!
                                           ; ; Starting pCode block
                                           S_dac__dacI2c	code
                                           _dacI2c:
                                           ;	.line	3; dac.c	void dacI2c(unsigned int sample){
003df0   cfd9     movff   0xfd9, 0xfe5     	MOVFF	FSR2L, POSTDEC1
003df2   ffe5
003df4   cfe1     movff   0xfe1, 0xfd9     	MOVFF	FSR1L, FSR2L
003df6   ffd9
003df8   c000     movff   0x000, 0xfe5     	MOVFF	r0x00, POSTDEC1
003dfa   ffe5
003dfc   c001     movff   0x001, 0xfe5     	MOVFF	r0x01, POSTDEC1
003dfe   ffe5
003e00   c002     movff   0x002, 0xfe5     	MOVFF	r0x02, POSTDEC1
003e02   ffe5
003e04   c003     movff   0x003, 0xfe5     	MOVFF	r0x03, POSTDEC1
003e06   ffe5
003e08   0e02     movlw   0x02             	MOVLW	0x02
003e0a   cfdb     movff   0xfdb, 0x000     	MOVFF	PLUSW2, r0x00
003e0c   f000
003e0e   0e03     movlw   0x03             	MOVLW	0x03
003e10   cfdb     movff   0xfdb, 0x001     	MOVFF	PLUSW2, r0x01
003e12   f001
                                           ;	.line	4; dac.c	i2cStart();    
003e14   eca0     call    0x004f40, 0x0    	CALL	_i2cStart
003e16   f027
                                           ;	.line	5; dac.c	i2cSend(0xC0);
003e18   0ec0     movlw   0xc0             	MOVLW	0xc0
003e1a   6ee5     movwf   0xe5, 0x0        	MOVWF	POSTDEC1
003e1c   ecf6     call    0x004fec, 0x0    	CALL	_i2cSend
003e1e   f027
003e20   52e6     movf    0xe6, 0x1, 0x0   	MOVF	POSTINC1, F
                                           ;	.line	6; dac.c	i2cSend(0x40);
003e22   0e40     movlw   0x40             	MOVLW	0x40
003e24   6ee5     movwf   0xe5, 0x0        	MOVWF	POSTDEC1
003e26   ecf6     call    0x004fec, 0x0    	CALL	_i2cSend
003e28   f027
003e2a   52e6     movf    0xe6, 0x1, 0x0   	MOVF	POSTINC1, F
                                           ;	.line	7; dac.c	i2cSend((sample & 0xFF0) >> 4);
003e2c   0ef0     movlw   0xf0             	MOVLW	0xf0
003e2e   1400     andwf   0x00, 0x0, 0x0   	ANDWF	r0x00, W
003e30   6e02     movwf   0x02, 0x0        	MOVWF	r0x02
003e32   0e0f     movlw   0x0f             	MOVLW	0x0f
003e34   1401     andwf   0x01, 0x0, 0x0   	ANDWF	r0x01, W
003e36   6e03     movwf   0x03, 0x0        	MOVWF	r0x03
003e38   0ef0     movlw   0xf0             	MOVLW	0xf0
003e3a   1602     andwf   0x02, 0x1, 0x0   	ANDWF	r0x02, F
003e3c   3a02     swapf   0x02, 0x1, 0x0   	SWAPF	r0x02, F
003e3e   3a03     swapf   0x03, 0x1, 0x0   	SWAPF	r0x03, F
003e40   1403     andwf   0x03, 0x0, 0x0   	ANDWF	r0x03, W
003e42   1a03     xorwf   0x03, 0x1, 0x0   	XORWF	r0x03, F
003e44   2602     addwf   0x02, 0x1, 0x0   	ADDWF	r0x02, F
003e46   5002     movf    0x02, 0x0, 0x0   	MOVF	r0x02, W
003e48   6ee5     movwf   0xe5, 0x0        	MOVWF	POSTDEC1
003e4a   ecf6     call    0x004fec, 0x0    	CALL	_i2cSend
003e4c   f027
003e4e   52e6     movf    0xe6, 0x1, 0x0   	MOVF	POSTINC1, F
                                           ;	.line	8; dac.c	i2cSend((sample & 0xF) << 4);
003e50   0e0f     movlw   0x0f             	MOVLW	0x0f
003e52   1600     andwf   0x00, 0x1, 0x0   	ANDWF	r0x00, F
003e54   6a01     clrf    0x01, 0x0        	CLRF	r0x01
003e56   3800     swapf   0x00, 0x0, 0x0   	SWAPF	r0x00, W
003e58   0bf0     andlw   0xf0             	ANDLW	0xf0
003e5a   6e01     movwf   0x01, 0x0        	MOVWF	r0x01
003e5c   5001     movf    0x01, 0x0, 0x0   	MOVF	r0x01, W
003e5e   6ee5     movwf   0xe5, 0x0        	MOVWF	POSTDEC1
003e60   ecf6     call    0x004fec, 0x0    	CALL	_i2cSend
003e62   f027
003e64   52e6     movf    0xe6, 0x1, 0x0   	MOVF	POSTINC1, F
                                           ;	.line	9; dac.c	i2cStop();
003e66   ec7c     call    0x004ef8, 0x0    	CALL	_i2cStop
003e68   f027
003e6a   cfe4     movff   0xfe4, 0x003     	MOVFF	PREINC1, r0x03
003e6c   f003
003e6e   cfe4     movff   0xfe4, 0x002     	MOVFF	PREINC1, r0x02
003e70   f002
003e72   cfe4     movff   0xfe4, 0x001     	MOVFF	PREINC1, r0x01
003e74   f001
003e76   cfe4     movff   0xfe4, 0x000     	MOVFF	PREINC1, r0x00
003e78   f000
003e7a   cfe4     movff   0xfe4, 0xfd9     	MOVFF	PREINC1, FSR2L
003e7c   ffd9
003e7e   0012     return  0x0              	RETURN	



                                           ; Statistics:
                                           ; code size:	  144 (0x0090) bytes ( 0.11%)
                                           ;           	   72 (0x0048) words
                                           ; udata size:	    0 (0x0000) bytes ( 0.00%)
                                           ; access size:	    4 (0x0004) bytes


                                           	end
                                           ;--------------------------------------------------------
                                           ; File Created by SDCC : free open source ANSI-C Compiler
                                           ; Version 3.6.0 #9615 (MINGW64)
                                           ;--------------------------------------------------------
                                           ; PIC16 port for the Microchip 16-bit core micros
                                           ;--------------------------------------------------------
                                           	list	p=18f4550
                                           	radix	dec


                                           ;--------------------------------------------------------
                                           ; public variables in this module
                                           ;--------------------------------------------------------
                                           	global	_ledInit
                                           	global	_ledON
                                           	global	_ledOFF

                                           ;--------------------------------------------------------
                                           ; extern variables in this module
                                           ;--------------------------------------------------------
                                           	extern	__modsint

                                           ;--------------------------------------------------------
                                           ;	Equates to used internal registers
                                           ;--------------------------------------------------------
                                           STATUS	equ	0xfd8
                                           WREG	equ	0xfe8
                                           FSR1L	equ	0xfe1
                                           FSR2L	equ	0xfd9
                                           INDF0	equ	0xfef
                                           POSTDEC1	equ	0xfe5
                                           PREINC1	equ	0xfe4
                                           PLUSW2	equ	0xfdb
                                           PRODL	equ	0xff3


                                           ; Internal registers
                                           .registers	udata_ovr	0x0000
                                           r0x00	res	1
                                           r0x01	res	1
                                           r0x02	res	1

                                           ;--------------------------------------------------------
                                           ; global & static initialisations
                                           ;--------------------------------------------------------
                                           ; I code from now on!
                                           ; ; Starting pCode block
                                           S_led__ledOFF	code
                                           _ledOFF:
                                           ;	.line	19; led.c	void ledOFF (int x){
00402c   cfd9     movff   0xfd9, 0xfe5     	MOVFF	FSR2L, POSTDEC1
00402e   ffe5
004030   cfe1     movff   0xfe1, 0xfd9     	MOVFF	FSR1L, FSR2L
004032   ffd9
004034   c000     movff   0x000, 0xfe5     	MOVFF	r0x00, POSTDEC1
004036   ffe5
004038   c001     movff   0x001, 0xfe5     	MOVFF	r0x01, POSTDEC1
00403a   ffe5
00403c   c002     movff   0x002, 0xfe5     	MOVFF	r0x02, POSTDEC1
00403e   ffe5
004040   0e02     movlw   0x02             	MOVLW	0x02
004042   cfdb     movff   0xfdb, 0x000     	MOVFF	PLUSW2, r0x00
004044   f000
004046   0e03     movlw   0x03             	MOVLW	0x03
004048   cfdb     movff   0xfdb, 0x001     	MOVFF	PLUSW2, r0x01
00404a   f001
                                           ;	.line	20; led.c	bitClr(PORTB,((x%2)+5));  
00404c   ee0f     lfsr    0x0, 0xf81       	LFSR	0x00, 0xf81
00404e   f081
004050   cfef     movff   0xfef, 0x002     	MOVFF	INDF0, r0x02
004052   f002
004054   0e00     movlw   0x00             	MOVLW	0x00
004056   6ee5     movwf   0xe5, 0x0        	MOVWF	POSTDEC1
004058   0e02     movlw   0x02             	MOVLW	0x02
00405a   6ee5     movwf   0xe5, 0x0        	MOVWF	POSTDEC1
00405c   5001     movf    0x01, 0x0, 0x0   	MOVF	r0x01, W
00405e   6ee5     movwf   0xe5, 0x0        	MOVWF	POSTDEC1
004060   5000     movf    0x00, 0x0, 0x0   	MOVF	r0x00, W
004062   6ee5     movwf   0xe5, 0x0        	MOVWF	POSTDEC1
004064   eca8     call    0x003750, 0x0    	CALL	__modsint
004066   f01b
004068   6e00     movwf   0x00, 0x0        	MOVWF	r0x00
00406a   cff3     movff   0xff3, 0x001     	MOVFF	PRODL, r0x01
00406c   f001
00406e   0e04     movlw   0x04             	MOVLW	0x04
004070   26e1     addwf   0xe1, 0x1, 0x0   	ADDWF	FSR1L, F
004072   0e05     movlw   0x05             	MOVLW	0x05
004074   2600     addwf   0x00, 0x1, 0x0   	ADDWF	r0x00, F
004076   0e01     movlw   0x01             	MOVLW	0x01
004078   6e01     movwf   0x01, 0x0        	MOVWF	r0x01
00407a   5000     movf    0x00, 0x0, 0x0   	MOVF	r0x00, W
00407c   e00b     bz      0x004094         	BZ	_00122_DS_
00407e   e606     bn      0x00408c         	BN	_00125_DS_
004080   6ce8     negf    0xe8, 0x0        	NEGF	WREG
004082   90d8     bcf     0xd8, 0x0, 0x0   	BCF	STATUS, 0
                                           _00123_DS_:
004084   3601     rlcf    0x01, 0x1, 0x0   	RLCF	r0x01, F
004086   0f01     addlw   0x01             	ADDLW	0x01
004088   e3fd     bnc     0x004084         	BNC	_00123_DS_
00408a   d004     bra     0x004094         	BRA	_00122_DS_
                                           _00125_DS_:
00408c   90d8     bcf     0xd8, 0x0, 0x0   	BCF	STATUS, 0
                                           _00124_DS_:
00408e   3201     rrcf    0x01, 0x1, 0x0   	RRCF	r0x01, F
004090   0f01     addlw   0x01             	ADDLW	0x01
004092   e3fd     bnc     0x00408e         	BNC	_00124_DS_
                                           _00122_DS_:
004094   1c01     comf    0x01, 0x0, 0x0   	COMF	r0x01, W
004096   6e00     movwf   0x00, 0x0        	MOVWF	r0x00
004098   5000     movf    0x00, 0x0, 0x0   	MOVF	r0x00, W
00409a   1602     andwf   0x02, 0x1, 0x0   	ANDWF	r0x02, F
00409c   ee0f     lfsr    0x0, 0xf81       	LFSR	0x00, 0xf81
00409e   f081
0040a0   c002     movff   0x002, 0xfef     	MOVFF	r0x02, INDF0
0040a2   ffef
0040a4   cfe4     movff   0xfe4, 0x002     	MOVFF	PREINC1, r0x02
0040a6   f002
0040a8   cfe4     movff   0xfe4, 0x001     	MOVFF	PREINC1, r0x01
0040aa   f001
0040ac   cfe4     movff   0xfe4, 0x000     	MOVFF	PREINC1, r0x00
0040ae   f000
0040b0   cfe4     movff   0xfe4, 0xfd9     	MOVFF	PREINC1, FSR2L
0040b2   ffd9
0040b4   0012     return  0x0              	RETURN	

                                           ; ; Starting pCode block
                                           S_led__ledON	code
                                           _ledON:
                                           ;	.line	12; led.c	void ledON (int x){
0040b6   cfd9     movff   0xfd9, 0xfe5     	MOVFF	FSR2L, POSTDEC1
0040b8   ffe5
0040ba   cfe1     movff   0xfe1, 0xfd9     	MOVFF	FSR1L, FSR2L
0040bc   ffd9
0040be   c000     movff   0x000, 0xfe5     	MOVFF	r0x00, POSTDEC1
0040c0   ffe5
0040c2   c001     movff   0x001, 0xfe5     	MOVFF	r0x01, POSTDEC1
0040c4   ffe5
0040c6   c002     movff   0x002, 0xfe5     	MOVFF	r0x02, POSTDEC1
0040c8   ffe5
0040ca   0e02     movlw   0x02             	MOVLW	0x02
0040cc   cfdb     movff   0xfdb, 0x000     	MOVFF	PLUSW2, r0x00
0040ce   f000
0040d0   0e03     movlw   0x03             	MOVLW	0x03
0040d2   cfdb     movff   0xfdb, 0x001     	MOVFF	PLUSW2, r0x01
0040d4   f001
                                           ;	.line	13; led.c	bitSet(PORTB,((x%2)+5));
0040d6   ee0f     lfsr    0x0, 0xf81       	LFSR	0x00, 0xf81
0040d8   f081
0040da   cfef     movff   0xfef, 0x002     	MOVFF	INDF0, r0x02
0040dc   f002
0040de   0e00     movlw   0x00             	MOVLW	0x00
0040e0   6ee5     movwf   0xe5, 0x0        	MOVWF	POSTDEC1
0040e2   0e02     movlw   0x02             	MOVLW	0x02
0040e4   6ee5     movwf   0xe5, 0x0        	MOVWF	POSTDEC1
0040e6   5001     movf    0x01, 0x0, 0x0   	MOVF	r0x01, W
0040e8   6ee5     movwf   0xe5, 0x0        	MOVWF	POSTDEC1
0040ea   5000     movf    0x00, 0x0, 0x0   	MOVF	r0x00, W
0040ec   6ee5     movwf   0xe5, 0x0        	MOVWF	POSTDEC1
0040ee   eca8     call    0x003750, 0x0    	CALL	__modsint
0040f0   f01b
0040f2   6e00     movwf   0x00, 0x0        	MOVWF	r0x00
0040f4   cff3     movff   0xff3, 0x001     	MOVFF	PRODL, r0x01
0040f6   f001
0040f8   0e04     movlw   0x04             	MOVLW	0x04
0040fa   26e1     addwf   0xe1, 0x1, 0x0   	ADDWF	FSR1L, F
0040fc   0e05     movlw   0x05             	MOVLW	0x05
0040fe   2600     addwf   0x00, 0x1, 0x0   	ADDWF	r0x00, F
004100   0e01     movlw   0x01             	MOVLW	0x01
004102   6e01     movwf   0x01, 0x0        	MOVWF	r0x01
004104   5000     movf    0x00, 0x0, 0x0   	MOVF	r0x00, W
004106   e00b     bz      0x00411e         	BZ	_00112_DS_
004108   e606     bn      0x004116         	BN	_00115_DS_
00410a   6ce8     negf    0xe8, 0x0        	NEGF	WREG
00410c   90d8     bcf     0xd8, 0x0, 0x0   	BCF	STATUS, 0
                                           _00113_DS_:
00410e   3601     rlcf    0x01, 0x1, 0x0   	RLCF	r0x01, F
004110   0f01     addlw   0x01             	ADDLW	0x01
004112   e3fd     bnc     0x00410e         	BNC	_00113_DS_
004114   d004     bra     0x00411e         	BRA	_00112_DS_
                                           _00115_DS_:
004116   90d8     bcf     0xd8, 0x0, 0x0   	BCF	STATUS, 0
                                           _00114_DS_:
004118   3201     rrcf    0x01, 0x1, 0x0   	RRCF	r0x01, F
00411a   0f01     addlw   0x01             	ADDLW	0x01
00411c   e3fd     bnc     0x004118         	BNC	_00114_DS_
                                           _00112_DS_:
00411e   5001     movf    0x01, 0x0, 0x0   	MOVF	r0x01, W
004120   6e00     movwf   0x00, 0x0        	MOVWF	r0x00
004122   5000     movf    0x00, 0x0, 0x0   	MOVF	r0x00, W
004124   1202     iorwf   0x02, 0x1, 0x0   	IORWF	r0x02, F
004126   ee0f     lfsr    0x0, 0xf81       	LFSR	0x00, 0xf81
004128   f081
00412a   c002     movff   0x002, 0xfef     	MOVFF	r0x02, INDF0
00412c   ffef
00412e   cfe4     movff   0xfe4, 0x002     	MOVFF	PREINC1, r0x02
004130   f002
004132   cfe4     movff   0xfe4, 0x001     	MOVFF	PREINC1, r0x01
004134   f001
004136   cfe4     movff   0xfe4, 0x000     	MOVFF	PREINC1, r0x00
004138   f000
00413a   cfe4     movff   0xfe4, 0xfd9     	MOVFF	PREINC1, FSR2L
00413c   ffd9
00413e   0012     return  0x0              	RETURN	

                                           ; ; Starting pCode block
                                           S_led__ledInit	code
                                           _ledInit:
                                           ;	.line	4; led.c	void ledInit (void){    
00470a   cfd9     movff   0xfd9, 0xfe5     	MOVFF	FSR2L, POSTDEC1
00470c   ffe5
00470e   cfe1     movff   0xfe1, 0xfd9     	MOVFF	FSR1L, FSR2L
004710   ffd9
004712   c000     movff   0x000, 0xfe5     	MOVFF	r0x00, POSTDEC1
004714   ffe5
                                           ;	.line	5; led.c	bitClr(TRISB,5);
004716   ee0f     lfsr    0x0, 0xf93       	LFSR	0x00, 0xf93
004718   f093
00471a   cfef     movff   0xfef, 0x000     	MOVFF	INDF0, r0x00
00471c   f000
00471e   9a00     bcf     0x00, 0x5, 0x0   	BCF	r0x00, 5
004720   ee0f     lfsr    0x0, 0xf93       	LFSR	0x00, 0xf93
004722   f093
004724   c000     movff   0x000, 0xfef     	MOVFF	r0x00, INDF0
004726   ffef
                                           ;	.line	6; led.c	bitClr(TRISB,6);
004728   ee0f     lfsr    0x0, 0xf93       	LFSR	0x00, 0xf93
00472a   f093
00472c   cfef     movff   0xfef, 0x000     	MOVFF	INDF0, r0x00
00472e   f000
004730   9c00     bcf     0x00, 0x6, 0x0   	BCF	r0x00, 6
004732   ee0f     lfsr    0x0, 0xf93       	LFSR	0x00, 0xf93
004734   f093
004736   c000     movff   0x000, 0xfef     	MOVFF	r0x00, INDF0
004738   ffef
                                           ;	.line	7; led.c	bitClr(PORTB,5);
00473a   ee0f     lfsr    0x0, 0xf81       	LFSR	0x00, 0xf81
00473c   f081
00473e   cfef     movff   0xfef, 0x000     	MOVFF	INDF0, r0x00
004740   f000
004742   9a00     bcf     0x00, 0x5, 0x0   	BCF	r0x00, 5
004744   ee0f     lfsr    0x0, 0xf81       	LFSR	0x00, 0xf81
004746   f081
004748   c000     movff   0x000, 0xfef     	MOVFF	r0x00, INDF0
00474a   ffef
                                           ;	.line	8; led.c	bitClr(PORTB,6);
00474c   ee0f     lfsr    0x0, 0xf81       	LFSR	0x00, 0xf81
00474e   f081
004750   cfef     movff   0xfef, 0x000     	MOVFF	INDF0, r0x00
004752   f000
004754   9c00     bcf     0x00, 0x6, 0x0   	BCF	r0x00, 6
004756   ee0f     lfsr    0x0, 0xf81       	LFSR	0x00, 0xf81
004758   f081
00475a   c000     movff   0x000, 0xfef     	MOVFF	r0x00, INDF0
00475c   ffef
00475e   cfe4     movff   0xfe4, 0x000     	MOVFF	PREINC1, r0x00
004760   f000
004762   cfe4     movff   0xfe4, 0xfd9     	MOVFF	PREINC1, FSR2L
004764   ffd9
004766   0012     return  0x0              	RETURN	



                                           ; Statistics:
                                           ; code size:	  370 (0x0172) bytes ( 0.28%)
                                           ;           	  185 (0x00b9) words
                                           ; udata size:	    0 (0x0000) bytes ( 0.00%)
                                           ; access size:	    3 (0x0003) bytes


                                           	end
                                           ;--------------------------------------------------------
                                           ; File Created by SDCC : free open source ANSI-C Compiler
                                           ; Version 3.6.0 #9615 (MINGW64)
                                           ;--------------------------------------------------------
                                           ; PIC16 port for the Microchip 16-bit core micros
                                           ;--------------------------------------------------------
                                           	list	p=18f4550
                                           	radix	dec


                                           ;--------------------------------------------------------
                                           ; public variables in this module
                                           ;--------------------------------------------------------
                                           	global	_outputInit
                                           	global	_outputPrint
                                           	global	_outputSerial

                                           ;--------------------------------------------------------
                                           ; extern variables in this module
                                           ;--------------------------------------------------------
                                           	extern	_lcdCommand
                                           	extern	_lcdInt
                                           	extern	_lcdString
                                           	extern	_lcdInit
                                           	extern	_getState
                                           	extern	_getTime
                                           	extern	_getAlarmLow
                                           	extern	_getAlarmHigh
                                           	extern	_getIdiom
                                           	extern	_adcInit
                                           	extern	_serialSend
                                           	extern	_serialInt
                                           	extern	_serialString
                                           	extern	_serialInit
                                           	extern	__mulint

                                           ;--------------------------------------------------------
                                           ;	Equates to used internal registers
                                           ;--------------------------------------------------------
                                           STATUS	equ	0xfd8
                                           WREG	equ	0xfe8
                                           FSR0L	equ	0xfe9
                                           FSR0H	equ	0xfea
                                           FSR1L	equ	0xfe1
                                           FSR2L	equ	0xfd9
                                           INDF0	equ	0xfef
                                           POSTINC0	equ	0xfee
                                           POSTINC1	equ	0xfe6
                                           POSTDEC1	equ	0xfe5
                                           PREINC1	equ	0xfe4
                                           PLUSW2	equ	0xfdb
                                           PRODL	equ	0xff3


                                           	idata
                                           _msgs	db	LOW(___str_5), HIGH(___str_5), UPPER(___str_5), LOW(___str_6), HIGH(___str_6), UPPER(___str_6), LOW(___str_7), HIGH(___str_7), UPPER(___str_7), LOW(___str_8), HIGH(___str_8), UPPER(___str_8)
                                           	db	LOW(___str_9), HIGH(___str_9), UPPER(___str_9), LOW(___str_10), HIGH(___str_10), UPPER(___str_10), LOW(___str_11), HIGH(___str_11), UPPER(___str_11), LOW(___str_12), HIGH(___str_12), UPPER(___str_12)
                                           	db	LOW(___str_13), HIGH(___str_13), UPPER(___str_13), LOW(___str_14), HIGH(___str_14), UPPER(___str_14), LOW(___str_15), HIGH(___str_15), UPPER(___str_15), LOW(___str_16), HIGH(___str_16), UPPER(___str_16)
                                           	db	LOW(___str_17), HIGH(___str_17), UPPER(___str_17), LOW(___str_18), HIGH(___str_18), UPPER(___str_18), LOW(___str_19), HIGH(___str_19), UPPER(___str_19), LOW(___str_20), HIGH(___str_20), UPPER(___str_20)
                                           _serial	db	LOW(___str_21), HIGH(___str_21), UPPER(___str_21), LOW(___str_22), HIGH(___str_22), UPPER(___str_22), LOW(___str_23), HIGH(___str_23), UPPER(___str_23), LOW(___str_24), HIGH(___str_24), UPPER(___str_24)
                                           	db	LOW(___str_25), HIGH(___str_25), UPPER(___str_25), LOW(___str_26), HIGH(___str_26), UPPER(___str_26), LOW(___str_27), HIGH(___str_27), UPPER(___str_27), LOW(___str_28), HIGH(___str_28), UPPER(___str_28)
                                           	db	LOW(___str_29), HIGH(___str_29), UPPER(___str_29), LOW(___str_30), HIGH(___str_30), UPPER(___str_30)


                                           ; Internal registers
                                           .registers	udata_ovr	0x0000
                                           r0x00	res	1
                                           r0x01	res	1
                                           r0x02	res	1
                                           r0x03	res	1
                                           r0x04	res	1
                                           r0x05	res	1
                                           r0x06	res	1
                                           r0x07	res	1
                                           r0x08	res	1
                                           r0x09	res	1
                                           r0x0a	res	1
                                           r0x0b	res	1
                                           r0x0c	res	1
                                           r0x0d	res	1
                                           r0x0e	res	1

                                           udata_output_0	udata
                                           _state_ant	res	1

                                           udata_output_1	udata
                                           _language_ant	res	1

                                           udata_output_2	udata
                                           _time_ant	res	2

                                           udata_output_3	udata
                                           _alarmLow_ant	res	2

                                           udata_output_4	udata
                                           _alarmHigh_ant	res	2

                                           ;--------------------------------------------------------
                                           ; global & static initialisations
                                           ;--------------------------------------------------------
                                           ; I code from now on!
                                           ; ; Starting pCode block
                                           S_output__outputSerial	code
                                           _outputSerial:
                                           ;	.line	122; output.c	void outputSerial(int numTela, char idiom) {    
001f98   cfd9     movff   0xfd9, 0xfe5     	MOVFF	FSR2L, POSTDEC1
001f9a   ffe5
001f9c   cfe1     movff   0xfe1, 0xfd9     	MOVFF	FSR1L, FSR2L
001f9e   ffd9
001fa0   c000     movff   0x000, 0xfe5     	MOVFF	r0x00, POSTDEC1
001fa2   ffe5
001fa4   c001     movff   0x001, 0xfe5     	MOVFF	r0x01, POSTDEC1
001fa6   ffe5
001fa8   c002     movff   0x002, 0xfe5     	MOVFF	r0x02, POSTDEC1
001faa   ffe5
001fac   c003     movff   0x003, 0xfe5     	MOVFF	r0x03, POSTDEC1
001fae   ffe5
001fb0   c004     movff   0x004, 0xfe5     	MOVFF	r0x04, POSTDEC1
001fb2   ffe5
001fb4   c005     movff   0x005, 0xfe5     	MOVFF	r0x05, POSTDEC1
001fb6   ffe5
001fb8   c006     movff   0x006, 0xfe5     	MOVFF	r0x06, POSTDEC1
001fba   ffe5
001fbc   c007     movff   0x007, 0xfe5     	MOVFF	r0x07, POSTDEC1
001fbe   ffe5
001fc0   c008     movff   0x008, 0xfe5     	MOVFF	r0x08, POSTDEC1
001fc2   ffe5
001fc4   c009     movff   0x009, 0xfe5     	MOVFF	r0x09, POSTDEC1
001fc6   ffe5
001fc8   c00a     movff   0x00a, 0xfe5     	MOVFF	r0x0a, POSTDEC1
001fca   ffe5
001fcc   c00b     movff   0x00b, 0xfe5     	MOVFF	r0x0b, POSTDEC1
001fce   ffe5
001fd0   c00c     movff   0x00c, 0xfe5     	MOVFF	r0x0c, POSTDEC1
001fd2   ffe5
001fd4   c00d     movff   0x00d, 0xfe5     	MOVFF	r0x0d, POSTDEC1
001fd6   ffe5
001fd8   c00e     movff   0x00e, 0xfe5     	MOVFF	r0x0e, POSTDEC1
001fda   ffe5
001fdc   0e02     movlw   0x02             	MOVLW	0x02
001fde   cfdb     movff   0xfdb, 0x000     	MOVFF	PLUSW2, r0x00
001fe0   f000
001fe2   0e03     movlw   0x03             	MOVLW	0x03
001fe4   cfdb     movff   0xfdb, 0x001     	MOVFF	PLUSW2, r0x01
001fe6   f001
001fe8   0e04     movlw   0x04             	MOVLW	0x04
001fea   cfdb     movff   0xfdb, 0x002     	MOVFF	PLUSW2, r0x02
001fec   f002
                                           ;	.line	125; output.c	state = getState();
001fee   ec3e     call    0x004c7c, 0x0    	CALL	_getState
001ff0   f026
001ff2   6e03     movwf   0x03, 0x0        	MOVWF	r0x03
                                           ;	.line	126; output.c	language = getIdiom();
001ff4   ecef     call    0x004dde, 0x0    	CALL	_getIdiom
001ff6   f026
001ff8   6e04     movwf   0x04, 0x0        	MOVWF	r0x04
                                           ;	.line	127; output.c	time = getTime();
001ffa   ec42     call    0x004e84, 0x0    	CALL	_getTime
001ffc   f027
001ffe   6e05     movwf   0x05, 0x0        	MOVWF	r0x05
002000   cff3     movff   0xff3, 0x006     	MOVFF	PRODL, r0x06
002002   f006
                                           ;	.line	128; output.c	alarmLow = getAlarmLow();
002004   ec2e     call    0x004e5c, 0x0    	CALL	_getAlarmLow
002006   f027
002008   6e07     movwf   0x07, 0x0        	MOVWF	r0x07
00200a   cff3     movff   0xff3, 0x008     	MOVFF	PRODL, r0x08
00200c   f008
                                           ;	.line	129; output.c	alarmHigh = getAlarmHigh();
00200e   ec1a     call    0x004e34, 0x0    	CALL	_getAlarmHigh
002010   f027
002012   6e09     movwf   0x09, 0x0        	MOVWF	r0x09
002014   cff3     movff   0xff3, 0x00a     	MOVFF	PRODL, r0x0a
002016   f00a
                                           ;	.line	131; output.c	if (state != state_ant) {
002018   5003     movf    0x03, 0x0, 0x0   	MOVF	r0x03, W
00201a   0100     movlb   0x0              	BANKSEL	_state_ant
00201c   19e9     xorwf   0xe9, 0x0, 0x1   	XORWF	_state_ant, W, B
00201e   e101     bnz     0x002022         	BNZ	_00217_DS_
002020   d04f     bra     0x0020c0         	BRA	_00195_DS_
                                           ; ;multiply lit val:0x03 by variable r0x02 and store in r0x0b
                                           _00217_DS_:
                                           ;	.line	132; output.c	serialString(serial[SERIAL_S][idiom]);
002022   5002     movf    0x02, 0x0, 0x0   	MOVF	r0x02, W
002024   0d03     mullw   0x03             	MULLW	0x03
002026   cff3     movff   0xff3, 0x00b     	MOVFF	PRODL, r0x0b
002028   f00b
00202a   0e90     movlw   0x90             	MOVLW	LOW(_serial)
00202c   240b     addwf   0x0b, 0x0, 0x0   	ADDWF	r0x0b, W
00202e   6e0c     movwf   0x0c, 0x0        	MOVWF	r0x0c
002030   6a0d     clrf    0x0d, 0x0        	CLRF	r0x0d
002032   0e00     movlw   0x00             	MOVLW	HIGH(_serial)
002034   220d     addwfc  0x0d, 0x1, 0x0   	ADDWFC	r0x0d, F
002036   c00c     movff   0x00c, 0xfe9     	MOVFF	r0x0c, FSR0L
002038   ffe9
00203a   c00d     movff   0x00d, 0xfea     	MOVFF	r0x0d, FSR0H
00203c   ffea
00203e   cfee     movff   0xfee, 0x00c     	MOVFF	POSTINC0, r0x0c
002040   f00c
002042   cfee     movff   0xfee, 0x00d     	MOVFF	POSTINC0, r0x0d
002044   f00d
002046   cfef     movff   0xfef, 0x00e     	MOVFF	INDF0, r0x0e
002048   f00e
00204a   500e     movf    0x0e, 0x0, 0x0   	MOVF	r0x0e, W
00204c   6ee5     movwf   0xe5, 0x0        	MOVWF	POSTDEC1
00204e   500d     movf    0x0d, 0x0, 0x0   	MOVF	r0x0d, W
002050   6ee5     movwf   0xe5, 0x0        	MOVWF	POSTDEC1
002052   500c     movf    0x0c, 0x0, 0x0   	MOVF	r0x0c, W
002054   6ee5     movwf   0xe5, 0x0        	MOVWF	POSTDEC1
002056   eccf     call    0x003f9e, 0x0    	CALL	_serialString
002058   f01f
00205a   0e03     movlw   0x03             	MOVLW	0x03
00205c   26e1     addwf   0xe1, 0x1, 0x0   	ADDWF	FSR1L, F
                                           ;	.line	133; output.c	serialString(msgs[numTela][idiom]);
00205e   5001     movf    0x01, 0x0, 0x0   	MOVF	r0x01, W
002060   6ee5     movwf   0xe5, 0x0        	MOVWF	POSTDEC1
002062   5000     movf    0x00, 0x0, 0x0   	MOVF	r0x00, W
002064   6ee5     movwf   0xe5, 0x0        	MOVWF	POSTDEC1
002066   0e00     movlw   0x00             	MOVLW	0x00
002068   6ee5     movwf   0xe5, 0x0        	MOVWF	POSTDEC1
00206a   0e06     movlw   0x06             	MOVLW	0x06
00206c   6ee5     movwf   0xe5, 0x0        	MOVWF	POSTDEC1
00206e   eca8     call    0x003d50, 0x0    	CALL	__mulint
002070   f01e
002072   6e00     movwf   0x00, 0x0        	MOVWF	r0x00
002074   cff3     movff   0xff3, 0x001     	MOVFF	PRODL, r0x01
002076   f001
002078   0e04     movlw   0x04             	MOVLW	0x04
00207a   26e1     addwf   0xe1, 0x1, 0x0   	ADDWF	FSR1L, F
00207c   0e60     movlw   0x60             	MOVLW	LOW(_msgs)
00207e   2600     addwf   0x00, 0x1, 0x0   	ADDWF	r0x00, F
002080   0e00     movlw   0x00             	MOVLW	HIGH(_msgs)
002082   2201     addwfc  0x01, 0x1, 0x0   	ADDWFC	r0x01, F
002084   6a0c     clrf    0x0c, 0x0        	CLRF	r0x0c
002086   5000     movf    0x00, 0x0, 0x0   	MOVF	r0x00, W
002088   260b     addwf   0x0b, 0x1, 0x0   	ADDWF	r0x0b, F
00208a   5001     movf    0x01, 0x0, 0x0   	MOVF	r0x01, W
00208c   220c     addwfc  0x0c, 0x1, 0x0   	ADDWFC	r0x0c, F
00208e   c00b     movff   0x00b, 0xfe9     	MOVFF	r0x0b, FSR0L
002090   ffe9
002092   c00c     movff   0x00c, 0xfea     	MOVFF	r0x0c, FSR0H
002094   ffea
002096   cfee     movff   0xfee, 0x00b     	MOVFF	POSTINC0, r0x0b
002098   f00b
00209a   cfee     movff   0xfee, 0x00c     	MOVFF	POSTINC0, r0x0c
00209c   f00c
00209e   cfef     movff   0xfef, 0x000     	MOVFF	INDF0, r0x00
0020a0   f000
0020a2   5000     movf    0x00, 0x0, 0x0   	MOVF	r0x00, W
0020a4   6ee5     movwf   0xe5, 0x0        	MOVWF	POSTDEC1
0020a6   500c     movf    0x0c, 0x0, 0x0   	MOVF	r0x0c, W
0020a8   6ee5     movwf   0xe5, 0x0        	MOVWF	POSTDEC1
0020aa   500b     movf    0x0b, 0x0, 0x0   	MOVF	r0x0b, W
0020ac   6ee5     movwf   0xe5, 0x0        	MOVWF	POSTDEC1
0020ae   eccf     call    0x003f9e, 0x0    	CALL	_serialString
0020b0   f01f
0020b2   0e03     movlw   0x03             	MOVLW	0x03
0020b4   26e1     addwf   0xe1, 0x1, 0x0   	ADDWF	FSR1L, F
                                           ;	.line	134; output.c	serialSend(13);
0020b6   0e0d     movlw   0x0d             	MOVLW	0x0d
0020b8   6ee5     movwf   0xe5, 0x0        	MOVWF	POSTDEC1
0020ba   ec86     call    0x00490c, 0x0    	CALL	_serialSend
0020bc   f024
0020be   52e6     movf    0xe6, 0x1, 0x0   	MOVF	POSTINC1, F
                                           _00195_DS_:
                                           ;	.line	136; output.c	if (alarmHigh != alarmHigh_ant) {
0020c0   5009     movf    0x09, 0x0, 0x0   	MOVF	r0x09, W
0020c2   6e00     movwf   0x00, 0x0        	MOVWF	r0x00
0020c4   500a     movf    0x0a, 0x0, 0x0   	MOVF	r0x0a, W
0020c6   6e01     movwf   0x01, 0x0        	MOVWF	r0x01
0020c8   5000     movf    0x00, 0x0, 0x0   	MOVF	r0x00, W
0020ca   0100     movlb   0x0              	BANKSEL	_alarmHigh_ant
0020cc   19db     xorwf   0xdb, 0x0, 0x1   	XORWF	_alarmHigh_ant, W, B
0020ce   e104     bnz     0x0020d8         	BNZ	_00219_DS_
0020d0   5001     movf    0x01, 0x0, 0x0   	MOVF	r0x01, W
0020d2   0100     movlb   0x0              	BANKSEL	(_alarmHigh_ant + 1)
0020d4   19dc     xorwf   0xdc, 0x0, 0x1   	XORWF	(_alarmHigh_ant + 1), W, B
0020d6   e02a     bz      0x00212c         	BZ	_00197_DS_
                                           ; ;multiply lit val:0x03 by variable r0x02 and store in r0x00
                                           _00219_DS_:
                                           ;	.line	137; output.c	serialString(serial[SERIAL_AH][idiom]);
0020d8   5002     movf    0x02, 0x0, 0x0   	MOVF	r0x02, W
0020da   0d03     mullw   0x03             	MULLW	0x03
0020dc   cff3     movff   0xff3, 0x000     	MOVFF	PRODL, r0x00
0020de   f000
0020e0   6a01     clrf    0x01, 0x0        	CLRF	r0x01
0020e2   0e96     movlw   0x96             	MOVLW	LOW(_serial + 6)
0020e4   2600     addwf   0x00, 0x1, 0x0   	ADDWF	r0x00, F
0020e6   0e00     movlw   0x00             	MOVLW	HIGH(_serial + 6)
0020e8   2201     addwfc  0x01, 0x1, 0x0   	ADDWFC	r0x01, F
0020ea   c000     movff   0x000, 0xfe9     	MOVFF	r0x00, FSR0L
0020ec   ffe9
0020ee   c001     movff   0x001, 0xfea     	MOVFF	r0x01, FSR0H
0020f0   ffea
0020f2   cfee     movff   0xfee, 0x000     	MOVFF	POSTINC0, r0x00
0020f4   f000
0020f6   cfee     movff   0xfee, 0x001     	MOVFF	POSTINC0, r0x01
0020f8   f001
0020fa   cfef     movff   0xfef, 0x00b     	MOVFF	INDF0, r0x0b
0020fc   f00b
0020fe   500b     movf    0x0b, 0x0, 0x0   	MOVF	r0x0b, W
002100   6ee5     movwf   0xe5, 0x0        	MOVWF	POSTDEC1
002102   5001     movf    0x01, 0x0, 0x0   	MOVF	r0x01, W
002104   6ee5     movwf   0xe5, 0x0        	MOVWF	POSTDEC1
002106   5000     movf    0x00, 0x0, 0x0   	MOVF	r0x00, W
002108   6ee5     movwf   0xe5, 0x0        	MOVWF	POSTDEC1
00210a   eccf     call    0x003f9e, 0x0    	CALL	_serialString
00210c   f01f
00210e   0e03     movlw   0x03             	MOVLW	0x03
002110   26e1     addwf   0xe1, 0x1, 0x0   	ADDWF	FSR1L, F
                                           ;	.line	138; output.c	serialInt(alarmHigh);
002112   500a     movf    0x0a, 0x0, 0x0   	MOVF	r0x0a, W
002114   6ee5     movwf   0xe5, 0x0        	MOVWF	POSTDEC1
002116   5009     movf    0x09, 0x0, 0x0   	MOVF	r0x09, W
002118   6ee5     movwf   0xe5, 0x0        	MOVWF	POSTDEC1
00211a   ec39     call    0x002e72, 0x0    	CALL	_serialInt
00211c   f017
00211e   52e6     movf    0xe6, 0x1, 0x0   	MOVF	POSTINC1, F
002120   52e6     movf    0xe6, 0x1, 0x0   	MOVF	POSTINC1, F
                                           ;	.line	139; output.c	serialSend(13);
002122   0e0d     movlw   0x0d             	MOVLW	0x0d
002124   6ee5     movwf   0xe5, 0x0        	MOVWF	POSTDEC1
002126   ec86     call    0x00490c, 0x0    	CALL	_serialSend
002128   f024
00212a   52e6     movf    0xe6, 0x1, 0x0   	MOVF	POSTINC1, F
                                           _00197_DS_:
                                           ;	.line	141; output.c	if (alarmLow != alarmLow_ant) {
00212c   5007     movf    0x07, 0x0, 0x0   	MOVF	r0x07, W
00212e   6e00     movwf   0x00, 0x0        	MOVWF	r0x00
002130   5008     movf    0x08, 0x0, 0x0   	MOVF	r0x08, W
002132   6e01     movwf   0x01, 0x0        	MOVWF	r0x01
002134   5000     movf    0x00, 0x0, 0x0   	MOVF	r0x00, W
002136   0100     movlb   0x0              	BANKSEL	_alarmLow_ant
002138   19d9     xorwf   0xd9, 0x0, 0x1   	XORWF	_alarmLow_ant, W, B
00213a   e104     bnz     0x002144         	BNZ	_00221_DS_
00213c   5001     movf    0x01, 0x0, 0x0   	MOVF	r0x01, W
00213e   0100     movlb   0x0              	BANKSEL	(_alarmLow_ant + 1)
002140   19da     xorwf   0xda, 0x0, 0x1   	XORWF	(_alarmLow_ant + 1), W, B
002142   e02a     bz      0x002198         	BZ	_00199_DS_
                                           ; ;multiply lit val:0x03 by variable r0x02 and store in r0x00
                                           _00221_DS_:
                                           ;	.line	142; output.c	serialString(serial[SERIAL_AL][idiom]);
002144   5002     movf    0x02, 0x0, 0x0   	MOVF	r0x02, W
002146   0d03     mullw   0x03             	MULLW	0x03
002148   cff3     movff   0xff3, 0x000     	MOVFF	PRODL, r0x00
00214a   f000
00214c   6a01     clrf    0x01, 0x0        	CLRF	r0x01
00214e   0e9c     movlw   0x9c             	MOVLW	LOW(_serial + 12)
002150   2600     addwf   0x00, 0x1, 0x0   	ADDWF	r0x00, F
002152   0e00     movlw   0x00             	MOVLW	HIGH(_serial + 12)
002154   2201     addwfc  0x01, 0x1, 0x0   	ADDWFC	r0x01, F
002156   c000     movff   0x000, 0xfe9     	MOVFF	r0x00, FSR0L
002158   ffe9
00215a   c001     movff   0x001, 0xfea     	MOVFF	r0x01, FSR0H
00215c   ffea
00215e   cfee     movff   0xfee, 0x000     	MOVFF	POSTINC0, r0x00
002160   f000
002162   cfee     movff   0xfee, 0x001     	MOVFF	POSTINC0, r0x01
002164   f001
002166   cfef     movff   0xfef, 0x00b     	MOVFF	INDF0, r0x0b
002168   f00b
00216a   500b     movf    0x0b, 0x0, 0x0   	MOVF	r0x0b, W
00216c   6ee5     movwf   0xe5, 0x0        	MOVWF	POSTDEC1
00216e   5001     movf    0x01, 0x0, 0x0   	MOVF	r0x01, W
002170   6ee5     movwf   0xe5, 0x0        	MOVWF	POSTDEC1
002172   5000     movf    0x00, 0x0, 0x0   	MOVF	r0x00, W
002174   6ee5     movwf   0xe5, 0x0        	MOVWF	POSTDEC1
002176   eccf     call    0x003f9e, 0x0    	CALL	_serialString
002178   f01f
00217a   0e03     movlw   0x03             	MOVLW	0x03
00217c   26e1     addwf   0xe1, 0x1, 0x0   	ADDWF	FSR1L, F
                                           ;	.line	143; output.c	serialInt(alarmLow);
00217e   5008     movf    0x08, 0x0, 0x0   	MOVF	r0x08, W
002180   6ee5     movwf   0xe5, 0x0        	MOVWF	POSTDEC1
002182   5007     movf    0x07, 0x0, 0x0   	MOVF	r0x07, W
002184   6ee5     movwf   0xe5, 0x0        	MOVWF	POSTDEC1
002186   ec39     call    0x002e72, 0x0    	CALL	_serialInt
002188   f017
00218a   52e6     movf    0xe6, 0x1, 0x0   	MOVF	POSTINC1, F
00218c   52e6     movf    0xe6, 0x1, 0x0   	MOVF	POSTINC1, F
                                           ;	.line	144; output.c	serialSend(13);
00218e   0e0d     movlw   0x0d             	MOVLW	0x0d
002190   6ee5     movwf   0xe5, 0x0        	MOVWF	POSTDEC1
002192   ec86     call    0x00490c, 0x0    	CALL	_serialSend
002194   f024
002196   52e6     movf    0xe6, 0x1, 0x0   	MOVF	POSTINC1, F
                                           _00199_DS_:
                                           ;	.line	146; output.c	if (time != time_ant) {
002198   5005     movf    0x05, 0x0, 0x0   	MOVF	r0x05, W
00219a   6e00     movwf   0x00, 0x0        	MOVWF	r0x00
00219c   5006     movf    0x06, 0x0, 0x0   	MOVF	r0x06, W
00219e   6e01     movwf   0x01, 0x0        	MOVWF	r0x01
0021a0   5000     movf    0x00, 0x0, 0x0   	MOVF	r0x00, W
0021a2   0100     movlb   0x0              	BANKSEL	_time_ant
0021a4   19d7     xorwf   0xd7, 0x0, 0x1   	XORWF	_time_ant, W, B
0021a6   e104     bnz     0x0021b0         	BNZ	_00223_DS_
0021a8   5001     movf    0x01, 0x0, 0x0   	MOVF	r0x01, W
0021aa   0100     movlb   0x0              	BANKSEL	(_time_ant + 1)
0021ac   19d8     xorwf   0xd8, 0x0, 0x1   	XORWF	(_time_ant + 1), W, B
0021ae   e02a     bz      0x002204         	BZ	_00201_DS_
                                           ; ;multiply lit val:0x03 by variable r0x02 and store in r0x02
                                           _00223_DS_:
                                           ;	.line	147; output.c	serialString(serial[SERIAL_T][idiom]);
0021b0   5002     movf    0x02, 0x0, 0x0   	MOVF	r0x02, W
0021b2   0d03     mullw   0x03             	MULLW	0x03
0021b4   cff3     movff   0xff3, 0x002     	MOVFF	PRODL, r0x02
0021b6   f002
0021b8   6a00     clrf    0x00, 0x0        	CLRF	r0x00
0021ba   0ea2     movlw   0xa2             	MOVLW	LOW(_serial + 18)
0021bc   2602     addwf   0x02, 0x1, 0x0   	ADDWF	r0x02, F
0021be   0e00     movlw   0x00             	MOVLW	HIGH(_serial + 18)
0021c0   2200     addwfc  0x00, 0x1, 0x0   	ADDWFC	r0x00, F
0021c2   c002     movff   0x002, 0xfe9     	MOVFF	r0x02, FSR0L
0021c4   ffe9
0021c6   c000     movff   0x000, 0xfea     	MOVFF	r0x00, FSR0H
0021c8   ffea
0021ca   cfee     movff   0xfee, 0x002     	MOVFF	POSTINC0, r0x02
0021cc   f002
0021ce   cfee     movff   0xfee, 0x000     	MOVFF	POSTINC0, r0x00
0021d0   f000
0021d2   cfef     movff   0xfef, 0x001     	MOVFF	INDF0, r0x01
0021d4   f001
0021d6   5001     movf    0x01, 0x0, 0x0   	MOVF	r0x01, W
0021d8   6ee5     movwf   0xe5, 0x0        	MOVWF	POSTDEC1
0021da   5000     movf    0x00, 0x0, 0x0   	MOVF	r0x00, W
0021dc   6ee5     movwf   0xe5, 0x0        	MOVWF	POSTDEC1
0021de   5002     movf    0x02, 0x0, 0x0   	MOVF	r0x02, W
0021e0   6ee5     movwf   0xe5, 0x0        	MOVWF	POSTDEC1
0021e2   eccf     call    0x003f9e, 0x0    	CALL	_serialString
0021e4   f01f
0021e6   0e03     movlw   0x03             	MOVLW	0x03
0021e8   26e1     addwf   0xe1, 0x1, 0x0   	ADDWF	FSR1L, F
                                           ;	.line	148; output.c	serialInt(time);
0021ea   5006     movf    0x06, 0x0, 0x0   	MOVF	r0x06, W
0021ec   6ee5     movwf   0xe5, 0x0        	MOVWF	POSTDEC1
0021ee   5005     movf    0x05, 0x0, 0x0   	MOVF	r0x05, W
0021f0   6ee5     movwf   0xe5, 0x0        	MOVWF	POSTDEC1
0021f2   ec39     call    0x002e72, 0x0    	CALL	_serialInt
0021f4   f017
0021f6   52e6     movf    0xe6, 0x1, 0x0   	MOVF	POSTINC1, F
0021f8   52e6     movf    0xe6, 0x1, 0x0   	MOVF	POSTINC1, F
                                           ;	.line	149; output.c	serialSend(13);
0021fa   0e0d     movlw   0x0d             	MOVLW	0x0d
0021fc   6ee5     movwf   0xe5, 0x0        	MOVWF	POSTDEC1
0021fe   ec86     call    0x00490c, 0x0    	CALL	_serialSend
002200   f024
002202   52e6     movf    0xe6, 0x1, 0x0   	MOVF	POSTINC1, F
                                           _00201_DS_:
                                           ;	.line	153; output.c	state_ant = state;
002204   c003     movff   0x003, 0x0e9     	MOVFF	r0x03, _state_ant
002206   f0e9
                                           ;	.line	154; output.c	language_ant = language;
002208   c004     movff   0x004, 0x0ea     	MOVFF	r0x04, _language_ant
00220a   f0ea
                                           ;	.line	155; output.c	time_ant = time;
00220c   c005     movff   0x005, 0x0d7     	MOVFF	r0x05, _time_ant
00220e   f0d7
002210   c006     movff   0x006, 0x0d8     	MOVFF	r0x06, (_time_ant + 1)
002212   f0d8
                                           ;	.line	156; output.c	alarmLow_ant = alarmLow;
002214   c007     movff   0x007, 0x0d9     	MOVFF	r0x07, _alarmLow_ant
002216   f0d9
002218   c008     movff   0x008, 0x0da     	MOVFF	r0x08, (_alarmLow_ant + 1)
00221a   f0da
                                           ;	.line	157; output.c	alarmHigh_ant = alarmHigh;
00221c   c009     movff   0x009, 0x0db     	MOVFF	r0x09, _alarmHigh_ant
00221e   f0db
002220   c00a     movff   0x00a, 0x0dc     	MOVFF	r0x0a, (_alarmHigh_ant + 1)
002222   f0dc
002224   cfe4     movff   0xfe4, 0x00e     	MOVFF	PREINC1, r0x0e
002226   f00e
002228   cfe4     movff   0xfe4, 0x00d     	MOVFF	PREINC1, r0x0d
00222a   f00d
00222c   cfe4     movff   0xfe4, 0x00c     	MOVFF	PREINC1, r0x0c
00222e   f00c
002230   cfe4     movff   0xfe4, 0x00b     	MOVFF	PREINC1, r0x0b
002232   f00b
002234   cfe4     movff   0xfe4, 0x00a     	MOVFF	PREINC1, r0x0a
002236   f00a
002238   cfe4     movff   0xfe4, 0x009     	MOVFF	PREINC1, r0x09
00223a   f009
00223c   cfe4     movff   0xfe4, 0x008     	MOVFF	PREINC1, r0x08
00223e   f008
002240   cfe4     movff   0xfe4, 0x007     	MOVFF	PREINC1, r0x07
002242   f007
002244   cfe4     movff   0xfe4, 0x006     	MOVFF	PREINC1, r0x06
002246   f006
002248   cfe4     movff   0xfe4, 0x005     	MOVFF	PREINC1, r0x05
00224a   f005
00224c   cfe4     movff   0xfe4, 0x004     	MOVFF	PREINC1, r0x04
00224e   f004
002250   cfe4     movff   0xfe4, 0x003     	MOVFF	PREINC1, r0x03
002252   f003
002254   cfe4     movff   0xfe4, 0x002     	MOVFF	PREINC1, r0x02
002256   f002
002258   cfe4     movff   0xfe4, 0x001     	MOVFF	PREINC1, r0x01
00225a   f001
00225c   cfe4     movff   0xfe4, 0x000     	MOVFF	PREINC1, r0x00
00225e   f000
002260   cfe4     movff   0xfe4, 0xfd9     	MOVFF	PREINC1, FSR2L
002262   ffd9
002264   0012     return  0x0              	RETURN	

                                           ; ; Starting pCode block
                                           S_output__outputPrint	code
                                           _outputPrint:
                                           ;	.line	52; output.c	void outputPrint(int numTela, char idiom) {
000a76   cfd9     movff   0xfd9, 0xfe5     	MOVFF	FSR2L, POSTDEC1
000a78   ffe5
000a7a   cfe1     movff   0xfe1, 0xfd9     	MOVFF	FSR1L, FSR2L
000a7c   ffd9
000a7e   c000     movff   0x000, 0xfe5     	MOVFF	r0x00, POSTDEC1
000a80   ffe5
000a82   c001     movff   0x001, 0xfe5     	MOVFF	r0x01, POSTDEC1
000a84   ffe5
000a86   c002     movff   0x002, 0xfe5     	MOVFF	r0x02, POSTDEC1
000a88   ffe5
000a8a   c003     movff   0x003, 0xfe5     	MOVFF	r0x03, POSTDEC1
000a8c   ffe5
000a8e   c004     movff   0x004, 0xfe5     	MOVFF	r0x04, POSTDEC1
000a90   ffe5
000a92   c005     movff   0x005, 0xfe5     	MOVFF	r0x05, POSTDEC1
000a94   ffe5
000a96   0e02     movlw   0x02             	MOVLW	0x02
000a98   cfdb     movff   0xfdb, 0x000     	MOVFF	PLUSW2, r0x00
000a9a   f000
000a9c   0e03     movlw   0x03             	MOVLW	0x03
000a9e   cfdb     movff   0xfdb, 0x001     	MOVFF	PLUSW2, r0x01
000aa0   f001
000aa2   0e04     movlw   0x04             	MOVLW	0x04
000aa4   cfdb     movff   0xfdb, 0x002     	MOVFF	PLUSW2, r0x02
000aa6   f002
                                           ;	.line	53; output.c	adcInit();
000aa8   eca0     call    0x004140, 0x0    	CALL	_adcInit
000aaa   f020
                                           ;	.line	54; output.c	if (numTela == STATE_ALARM_HIGH) {
000aac   5000     movf    0x00, 0x0, 0x0   	MOVF	r0x00, W
000aae   1001     iorwf   0x01, 0x0, 0x0   	IORWF	r0x01, W
000ab0   a4d8     btfss   0xd8, 0x2, 0x0   	BTFSS	STATUS, 2
000ab2   d056     bra     0x000b60         	BRA	_00111_DS_
                                           ;	.line	55; output.c	lcdCommand(0x80);
000ab4   0e80     movlw   0x80             	MOVLW	0x80
000ab6   6ee5     movwf   0xe5, 0x0        	MOVWF	POSTDEC1
000ab8   ec2c     call    0x002858, 0x0    	CALL	_lcdCommand
000aba   f014
000abc   52e6     movf    0xe6, 0x1, 0x0   	MOVF	POSTINC1, F
                                           ;	.line	56; output.c	lcdString(msgs[numTela][idiom]);
000abe   5001     movf    0x01, 0x0, 0x0   	MOVF	r0x01, W
000ac0   6ee5     movwf   0xe5, 0x0        	MOVWF	POSTDEC1
000ac2   5000     movf    0x00, 0x0, 0x0   	MOVF	r0x00, W
000ac4   6ee5     movwf   0xe5, 0x0        	MOVWF	POSTDEC1
000ac6   0e00     movlw   0x00             	MOVLW	0x00
000ac8   6ee5     movwf   0xe5, 0x0        	MOVWF	POSTDEC1
000aca   0e06     movlw   0x06             	MOVLW	0x06
000acc   6ee5     movwf   0xe5, 0x0        	MOVWF	POSTDEC1
000ace   eca8     call    0x003d50, 0x0    	CALL	__mulint
000ad0   f01e
000ad2   6e03     movwf   0x03, 0x0        	MOVWF	r0x03
000ad4   cff3     movff   0xff3, 0x004     	MOVFF	PRODL, r0x04
000ad6   f004
000ad8   0e04     movlw   0x04             	MOVLW	0x04
000ada   26e1     addwf   0xe1, 0x1, 0x0   	ADDWF	FSR1L, F
000adc   0e60     movlw   0x60             	MOVLW	LOW(_msgs)
000ade   2603     addwf   0x03, 0x1, 0x0   	ADDWF	r0x03, F
000ae0   0e00     movlw   0x00             	MOVLW	HIGH(_msgs)
000ae2   2204     addwfc  0x04, 0x1, 0x0   	ADDWFC	r0x04, F
                                           ; ;multiply lit val:0x03 by variable r0x02 and store in r0x05
000ae4   5002     movf    0x02, 0x0, 0x0   	MOVF	r0x02, W
000ae6   0d03     mullw   0x03             	MULLW	0x03
000ae8   cff3     movff   0xff3, 0x005     	MOVFF	PRODL, r0x05
000aea   f005
000aec   5005     movf    0x05, 0x0, 0x0   	MOVF	r0x05, W
000aee   2603     addwf   0x03, 0x1, 0x0   	ADDWF	r0x03, F
000af0   6ae8     clrf    0xe8, 0x0        	CLRF	WREG
000af2   2204     addwfc  0x04, 0x1, 0x0   	ADDWFC	r0x04, F
000af4   c003     movff   0x003, 0xfe9     	MOVFF	r0x03, FSR0L
000af6   ffe9
000af8   c004     movff   0x004, 0xfea     	MOVFF	r0x04, FSR0H
000afa   ffea
000afc   cfee     movff   0xfee, 0x003     	MOVFF	POSTINC0, r0x03
000afe   f003
000b00   cfee     movff   0xfee, 0x004     	MOVFF	POSTINC0, r0x04
000b02   f004
000b04   cfef     movff   0xfef, 0x005     	MOVFF	INDF0, r0x05
000b06   f005
000b08   5005     movf    0x05, 0x0, 0x0   	MOVF	r0x05, W
000b0a   6ee5     movwf   0xe5, 0x0        	MOVWF	POSTDEC1
000b0c   5004     movf    0x04, 0x0, 0x0   	MOVF	r0x04, W
000b0e   6ee5     movwf   0xe5, 0x0        	MOVWF	POSTDEC1
000b10   5003     movf    0x03, 0x0, 0x0   	MOVF	r0x03, W
000b12   6ee5     movwf   0xe5, 0x0        	MOVWF	POSTDEC1
000b14   ec88     call    0x003f10, 0x0    	CALL	_lcdString
000b16   f01f
000b18   0e03     movlw   0x03             	MOVLW	0x03
000b1a   26e1     addwf   0xe1, 0x1, 0x0   	ADDWF	FSR1L, F
                                           ;	.line	57; output.c	lcdCommand(0xC0);
000b1c   0ec0     movlw   0xc0             	MOVLW	0xc0
000b1e   6ee5     movwf   0xe5, 0x0        	MOVWF	POSTDEC1
000b20   ec2c     call    0x002858, 0x0    	CALL	_lcdCommand
000b22   f014
000b24   52e6     movf    0xe6, 0x1, 0x0   	MOVF	POSTINC1, F
                                           ;	.line	58; output.c	lcdInt(getAlarmHigh());
000b26   ec1a     call    0x004e34, 0x0    	CALL	_getAlarmHigh
000b28   f027
000b2a   6e03     movwf   0x03, 0x0        	MOVWF	r0x03
000b2c   cff3     movff   0xff3, 0x004     	MOVFF	PRODL, r0x04
000b2e   f004
000b30   5004     movf    0x04, 0x0, 0x0   	MOVF	r0x04, W
000b32   6ee5     movwf   0xe5, 0x0        	MOVWF	POSTDEC1
000b34   5003     movf    0x03, 0x0, 0x0   	MOVF	r0x03, W
000b36   6ee5     movwf   0xe5, 0x0        	MOVWF	POSTDEC1
000b38   ec8a     call    0x002d14, 0x0    	CALL	_lcdInt
000b3a   f016
000b3c   52e6     movf    0xe6, 0x1, 0x0   	MOVF	POSTINC1, F
000b3e   52e6     movf    0xe6, 0x1, 0x0   	MOVF	POSTINC1, F
                                           ;	.line	59; output.c	lcdString("           ");//para apagar os textos depois do numero
000b40   0e00     movlw   0x00             	MOVLW	UPPER(___str_0)
000b42   6e05     movwf   0x05, 0x0        	MOVWF	r0x05
000b44   0e22     movlw   0x22             	MOVLW	HIGH(___str_0)
000b46   6e04     movwf   0x04, 0x0        	MOVWF	r0x04
000b48   0ea0     movlw   0xa0             	MOVLW	LOW(___str_0)
000b4a   6e03     movwf   0x03, 0x0        	MOVWF	r0x03
000b4c   5005     movf    0x05, 0x0, 0x0   	MOVF	r0x05, W
000b4e   6ee5     movwf   0xe5, 0x0        	MOVWF	POSTDEC1
000b50   5004     movf    0x04, 0x0, 0x0   	MOVF	r0x04, W
000b52   6ee5     movwf   0xe5, 0x0        	MOVWF	POSTDEC1
000b54   5003     movf    0x03, 0x0, 0x0   	MOVF	r0x03, W
000b56   6ee5     movwf   0xe5, 0x0        	MOVWF	POSTDEC1
000b58   ec88     call    0x003f10, 0x0    	CALL	_lcdString
000b5a   f01f
000b5c   0e03     movlw   0x03             	MOVLW	0x03
000b5e   26e1     addwf   0xe1, 0x1, 0x0   	ADDWF	FSR1L, F
                                           _00111_DS_:
                                           ;	.line	61; output.c	if (numTela == STATE_SET_AH) {
000b60   5000     movf    0x00, 0x0, 0x0   	MOVF	r0x00, W
000b62   0a01     xorlw   0x01             	XORLW	0x01
000b64   e102     bnz     0x000b6a         	BNZ	_00172_DS_
000b66   5001     movf    0x01, 0x0, 0x0   	MOVF	r0x01, W
000b68   e001     bz      0x000b6c         	BZ	_00173_DS_
                                           _00172_DS_:
000b6a   d056     bra     0x000c18         	BRA	_00113_DS_
                                           _00173_DS_:
                                           ;	.line	62; output.c	lcdCommand(0x80);
000b6c   0e80     movlw   0x80             	MOVLW	0x80
000b6e   6ee5     movwf   0xe5, 0x0        	MOVWF	POSTDEC1
000b70   ec2c     call    0x002858, 0x0    	CALL	_lcdCommand
000b72   f014
000b74   52e6     movf    0xe6, 0x1, 0x0   	MOVF	POSTINC1, F
                                           ;	.line	63; output.c	lcdString(msgs[numTela][idiom]);
000b76   5001     movf    0x01, 0x0, 0x0   	MOVF	r0x01, W
000b78   6ee5     movwf   0xe5, 0x0        	MOVWF	POSTDEC1
000b7a   5000     movf    0x00, 0x0, 0x0   	MOVF	r0x00, W
000b7c   6ee5     movwf   0xe5, 0x0        	MOVWF	POSTDEC1
000b7e   0e00     movlw   0x00             	MOVLW	0x00
000b80   6ee5     movwf   0xe5, 0x0        	MOVWF	POSTDEC1
000b82   0e06     movlw   0x06             	MOVLW	0x06
000b84   6ee5     movwf   0xe5, 0x0        	MOVWF	POSTDEC1
000b86   eca8     call    0x003d50, 0x0    	CALL	__mulint
000b88   f01e
000b8a   6e03     movwf   0x03, 0x0        	MOVWF	r0x03
000b8c   cff3     movff   0xff3, 0x004     	MOVFF	PRODL, r0x04
000b8e   f004
000b90   0e04     movlw   0x04             	MOVLW	0x04
000b92   26e1     addwf   0xe1, 0x1, 0x0   	ADDWF	FSR1L, F
000b94   0e60     movlw   0x60             	MOVLW	LOW(_msgs)
000b96   2603     addwf   0x03, 0x1, 0x0   	ADDWF	r0x03, F
000b98   0e00     movlw   0x00             	MOVLW	HIGH(_msgs)
000b9a   2204     addwfc  0x04, 0x1, 0x0   	ADDWFC	r0x04, F
                                           ; ;multiply lit val:0x03 by variable r0x02 and store in r0x05
000b9c   5002     movf    0x02, 0x0, 0x0   	MOVF	r0x02, W
000b9e   0d03     mullw   0x03             	MULLW	0x03
000ba0   cff3     movff   0xff3, 0x005     	MOVFF	PRODL, r0x05
000ba2   f005
000ba4   5005     movf    0x05, 0x0, 0x0   	MOVF	r0x05, W
000ba6   2603     addwf   0x03, 0x1, 0x0   	ADDWF	r0x03, F
000ba8   6ae8     clrf    0xe8, 0x0        	CLRF	WREG
000baa   2204     addwfc  0x04, 0x1, 0x0   	ADDWFC	r0x04, F
000bac   c003     movff   0x003, 0xfe9     	MOVFF	r0x03, FSR0L
000bae   ffe9
000bb0   c004     movff   0x004, 0xfea     	MOVFF	r0x04, FSR0H
000bb2   ffea
000bb4   cfee     movff   0xfee, 0x003     	MOVFF	POSTINC0, r0x03
000bb6   f003
000bb8   cfee     movff   0xfee, 0x004     	MOVFF	POSTINC0, r0x04
000bba   f004
000bbc   cfef     movff   0xfef, 0x005     	MOVFF	INDF0, r0x05
000bbe   f005
000bc0   5005     movf    0x05, 0x0, 0x0   	MOVF	r0x05, W
000bc2   6ee5     movwf   0xe5, 0x0        	MOVWF	POSTDEC1
000bc4   5004     movf    0x04, 0x0, 0x0   	MOVF	r0x04, W
000bc6   6ee5     movwf   0xe5, 0x0        	MOVWF	POSTDEC1
000bc8   5003     movf    0x03, 0x0, 0x0   	MOVF	r0x03, W
000bca   6ee5     movwf   0xe5, 0x0        	MOVWF	POSTDEC1
000bcc   ec88     call    0x003f10, 0x0    	CALL	_lcdString
000bce   f01f
000bd0   0e03     movlw   0x03             	MOVLW	0x03
000bd2   26e1     addwf   0xe1, 0x1, 0x0   	ADDWF	FSR1L, F
                                           ;	.line	64; output.c	lcdCommand(0xC0);
000bd4   0ec0     movlw   0xc0             	MOVLW	0xc0
000bd6   6ee5     movwf   0xe5, 0x0        	MOVWF	POSTDEC1
000bd8   ec2c     call    0x002858, 0x0    	CALL	_lcdCommand
000bda   f014
000bdc   52e6     movf    0xe6, 0x1, 0x0   	MOVF	POSTINC1, F
                                           ;	.line	65; output.c	lcdInt(getAlarmHigh());
000bde   ec1a     call    0x004e34, 0x0    	CALL	_getAlarmHigh
000be0   f027
000be2   6e03     movwf   0x03, 0x0        	MOVWF	r0x03
000be4   cff3     movff   0xff3, 0x004     	MOVFF	PRODL, r0x04
000be6   f004
000be8   5004     movf    0x04, 0x0, 0x0   	MOVF	r0x04, W
000bea   6ee5     movwf   0xe5, 0x0        	MOVWF	POSTDEC1
000bec   5003     movf    0x03, 0x0, 0x0   	MOVF	r0x03, W
000bee   6ee5     movwf   0xe5, 0x0        	MOVWF	POSTDEC1
000bf0   ec8a     call    0x002d14, 0x0    	CALL	_lcdInt
000bf2   f016
000bf4   52e6     movf    0xe6, 0x1, 0x0   	MOVF	POSTINC1, F
000bf6   52e6     movf    0xe6, 0x1, 0x0   	MOVF	POSTINC1, F
                                           ;	.line	66; output.c	lcdString("           ");//para apagar os textos depois do numero
000bf8   0e00     movlw   0x00             	MOVLW	UPPER(___str_0)
000bfa   6e05     movwf   0x05, 0x0        	MOVWF	r0x05
000bfc   0e22     movlw   0x22             	MOVLW	HIGH(___str_0)
000bfe   6e04     movwf   0x04, 0x0        	MOVWF	r0x04
000c00   0ea0     movlw   0xa0             	MOVLW	LOW(___str_0)
000c02   6e03     movwf   0x03, 0x0        	MOVWF	r0x03
000c04   5005     movf    0x05, 0x0, 0x0   	MOVF	r0x05, W
000c06   6ee5     movwf   0xe5, 0x0        	MOVWF	POSTDEC1
000c08   5004     movf    0x04, 0x0, 0x0   	MOVF	r0x04, W
000c0a   6ee5     movwf   0xe5, 0x0        	MOVWF	POSTDEC1
000c0c   5003     movf    0x03, 0x0, 0x0   	MOVF	r0x03, W
000c0e   6ee5     movwf   0xe5, 0x0        	MOVWF	POSTDEC1
000c10   ec88     call    0x003f10, 0x0    	CALL	_lcdString
000c12   f01f
000c14   0e03     movlw   0x03             	MOVLW	0x03
000c16   26e1     addwf   0xe1, 0x1, 0x0   	ADDWF	FSR1L, F
                                           _00113_DS_:
                                           ;	.line	68; output.c	if (numTela == STATE_ALARM_LOW) {
000c18   5000     movf    0x00, 0x0, 0x0   	MOVF	r0x00, W
000c1a   0a02     xorlw   0x02             	XORLW	0x02
000c1c   e102     bnz     0x000c22         	BNZ	_00174_DS_
000c1e   5001     movf    0x01, 0x0, 0x0   	MOVF	r0x01, W
000c20   e001     bz      0x000c24         	BZ	_00175_DS_
                                           _00174_DS_:
000c22   d056     bra     0x000cd0         	BRA	_00115_DS_
                                           _00175_DS_:
                                           ;	.line	69; output.c	lcdCommand(0x80);
000c24   0e80     movlw   0x80             	MOVLW	0x80
000c26   6ee5     movwf   0xe5, 0x0        	MOVWF	POSTDEC1
000c28   ec2c     call    0x002858, 0x0    	CALL	_lcdCommand
000c2a   f014
000c2c   52e6     movf    0xe6, 0x1, 0x0   	MOVF	POSTINC1, F
                                           ;	.line	70; output.c	lcdString(msgs[numTela][idiom]);
000c2e   5001     movf    0x01, 0x0, 0x0   	MOVF	r0x01, W
000c30   6ee5     movwf   0xe5, 0x0        	MOVWF	POSTDEC1
000c32   5000     movf    0x00, 0x0, 0x0   	MOVF	r0x00, W
000c34   6ee5     movwf   0xe5, 0x0        	MOVWF	POSTDEC1
000c36   0e00     movlw   0x00             	MOVLW	0x00
000c38   6ee5     movwf   0xe5, 0x0        	MOVWF	POSTDEC1
000c3a   0e06     movlw   0x06             	MOVLW	0x06
000c3c   6ee5     movwf   0xe5, 0x0        	MOVWF	POSTDEC1
000c3e   eca8     call    0x003d50, 0x0    	CALL	__mulint
000c40   f01e
000c42   6e03     movwf   0x03, 0x0        	MOVWF	r0x03
000c44   cff3     movff   0xff3, 0x004     	MOVFF	PRODL, r0x04
000c46   f004
000c48   0e04     movlw   0x04             	MOVLW	0x04
000c4a   26e1     addwf   0xe1, 0x1, 0x0   	ADDWF	FSR1L, F
000c4c   0e60     movlw   0x60             	MOVLW	LOW(_msgs)
000c4e   2603     addwf   0x03, 0x1, 0x0   	ADDWF	r0x03, F
000c50   0e00     movlw   0x00             	MOVLW	HIGH(_msgs)
000c52   2204     addwfc  0x04, 0x1, 0x0   	ADDWFC	r0x04, F
                                           ; ;multiply lit val:0x03 by variable r0x02 and store in r0x05
000c54   5002     movf    0x02, 0x0, 0x0   	MOVF	r0x02, W
000c56   0d03     mullw   0x03             	MULLW	0x03
000c58   cff3     movff   0xff3, 0x005     	MOVFF	PRODL, r0x05
000c5a   f005
000c5c   5005     movf    0x05, 0x0, 0x0   	MOVF	r0x05, W
000c5e   2603     addwf   0x03, 0x1, 0x0   	ADDWF	r0x03, F
000c60   6ae8     clrf    0xe8, 0x0        	CLRF	WREG
000c62   2204     addwfc  0x04, 0x1, 0x0   	ADDWFC	r0x04, F
000c64   c003     movff   0x003, 0xfe9     	MOVFF	r0x03, FSR0L
000c66   ffe9
000c68   c004     movff   0x004, 0xfea     	MOVFF	r0x04, FSR0H
000c6a   ffea
000c6c   cfee     movff   0xfee, 0x003     	MOVFF	POSTINC0, r0x03
000c6e   f003
000c70   cfee     movff   0xfee, 0x004     	MOVFF	POSTINC0, r0x04
000c72   f004
000c74   cfef     movff   0xfef, 0x005     	MOVFF	INDF0, r0x05
000c76   f005
000c78   5005     movf    0x05, 0x0, 0x0   	MOVF	r0x05, W
000c7a   6ee5     movwf   0xe5, 0x0        	MOVWF	POSTDEC1
000c7c   5004     movf    0x04, 0x0, 0x0   	MOVF	r0x04, W
000c7e   6ee5     movwf   0xe5, 0x0        	MOVWF	POSTDEC1
000c80   5003     movf    0x03, 0x0, 0x0   	MOVF	r0x03, W
000c82   6ee5     movwf   0xe5, 0x0        	MOVWF	POSTDEC1
000c84   ec88     call    0x003f10, 0x0    	CALL	_lcdString
000c86   f01f
000c88   0e03     movlw   0x03             	MOVLW	0x03
000c8a   26e1     addwf   0xe1, 0x1, 0x0   	ADDWF	FSR1L, F
                                           ;	.line	71; output.c	lcdCommand(0xC0);
000c8c   0ec0     movlw   0xc0             	MOVLW	0xc0
000c8e   6ee5     movwf   0xe5, 0x0        	MOVWF	POSTDEC1
000c90   ec2c     call    0x002858, 0x0    	CALL	_lcdCommand
000c92   f014
000c94   52e6     movf    0xe6, 0x1, 0x0   	MOVF	POSTINC1, F
                                           ;	.line	72; output.c	lcdInt(getAlarmLow());
000c96   ec2e     call    0x004e5c, 0x0    	CALL	_getAlarmLow
000c98   f027
000c9a   6e03     movwf   0x03, 0x0        	MOVWF	r0x03
000c9c   cff3     movff   0xff3, 0x004     	MOVFF	PRODL, r0x04
000c9e   f004
000ca0   5004     movf    0x04, 0x0, 0x0   	MOVF	r0x04, W
000ca2   6ee5     movwf   0xe5, 0x0        	MOVWF	POSTDEC1
000ca4   5003     movf    0x03, 0x0, 0x0   	MOVF	r0x03, W
000ca6   6ee5     movwf   0xe5, 0x0        	MOVWF	POSTDEC1
000ca8   ec8a     call    0x002d14, 0x0    	CALL	_lcdInt
000caa   f016
000cac   52e6     movf    0xe6, 0x1, 0x0   	MOVF	POSTINC1, F
000cae   52e6     movf    0xe6, 0x1, 0x0   	MOVF	POSTINC1, F
                                           ;	.line	73; output.c	lcdString("           ");//para apagar os textos depois do numero
000cb0   0e00     movlw   0x00             	MOVLW	UPPER(___str_0)
000cb2   6e05     movwf   0x05, 0x0        	MOVWF	r0x05
000cb4   0e22     movlw   0x22             	MOVLW	HIGH(___str_0)
000cb6   6e04     movwf   0x04, 0x0        	MOVWF	r0x04
000cb8   0ea0     movlw   0xa0             	MOVLW	LOW(___str_0)
000cba   6e03     movwf   0x03, 0x0        	MOVWF	r0x03
000cbc   5005     movf    0x05, 0x0, 0x0   	MOVF	r0x05, W
000cbe   6ee5     movwf   0xe5, 0x0        	MOVWF	POSTDEC1
000cc0   5004     movf    0x04, 0x0, 0x0   	MOVF	r0x04, W
000cc2   6ee5     movwf   0xe5, 0x0        	MOVWF	POSTDEC1
000cc4   5003     movf    0x03, 0x0, 0x0   	MOVF	r0x03, W
000cc6   6ee5     movwf   0xe5, 0x0        	MOVWF	POSTDEC1
000cc8   ec88     call    0x003f10, 0x0    	CALL	_lcdString
000cca   f01f
000ccc   0e03     movlw   0x03             	MOVLW	0x03
000cce   26e1     addwf   0xe1, 0x1, 0x0   	ADDWF	FSR1L, F
                                           _00115_DS_:
                                           ;	.line	75; output.c	if (numTela == STATE_SET_AL) {
000cd0   5000     movf    0x00, 0x0, 0x0   	MOVF	r0x00, W
000cd2   0a03     xorlw   0x03             	XORLW	0x03
000cd4   e102     bnz     0x000cda         	BNZ	_00176_DS_
000cd6   5001     movf    0x01, 0x0, 0x0   	MOVF	r0x01, W
000cd8   e001     bz      0x000cdc         	BZ	_00177_DS_
                                           _00176_DS_:
000cda   d056     bra     0x000d88         	BRA	_00117_DS_
                                           _00177_DS_:
                                           ;	.line	76; output.c	lcdCommand(0x80);
000cdc   0e80     movlw   0x80             	MOVLW	0x80
000cde   6ee5     movwf   0xe5, 0x0        	MOVWF	POSTDEC1
000ce0   ec2c     call    0x002858, 0x0    	CALL	_lcdCommand
000ce2   f014
000ce4   52e6     movf    0xe6, 0x1, 0x0   	MOVF	POSTINC1, F
                                           ;	.line	77; output.c	lcdString(msgs[numTela][idiom]);
000ce6   5001     movf    0x01, 0x0, 0x0   	MOVF	r0x01, W
000ce8   6ee5     movwf   0xe5, 0x0        	MOVWF	POSTDEC1
000cea   5000     movf    0x00, 0x0, 0x0   	MOVF	r0x00, W
000cec   6ee5     movwf   0xe5, 0x0        	MOVWF	POSTDEC1
000cee   0e00     movlw   0x00             	MOVLW	0x00
000cf0   6ee5     movwf   0xe5, 0x0        	MOVWF	POSTDEC1
000cf2   0e06     movlw   0x06             	MOVLW	0x06
000cf4   6ee5     movwf   0xe5, 0x0        	MOVWF	POSTDEC1
000cf6   eca8     call    0x003d50, 0x0    	CALL	__mulint
000cf8   f01e
000cfa   6e03     movwf   0x03, 0x0        	MOVWF	r0x03
000cfc   cff3     movff   0xff3, 0x004     	MOVFF	PRODL, r0x04
000cfe   f004
000d00   0e04     movlw   0x04             	MOVLW	0x04
000d02   26e1     addwf   0xe1, 0x1, 0x0   	ADDWF	FSR1L, F
000d04   0e60     movlw   0x60             	MOVLW	LOW(_msgs)
000d06   2603     addwf   0x03, 0x1, 0x0   	ADDWF	r0x03, F
000d08   0e00     movlw   0x00             	MOVLW	HIGH(_msgs)
000d0a   2204     addwfc  0x04, 0x1, 0x0   	ADDWFC	r0x04, F
                                           ; ;multiply lit val:0x03 by variable r0x02 and store in r0x05
000d0c   5002     movf    0x02, 0x0, 0x0   	MOVF	r0x02, W
000d0e   0d03     mullw   0x03             	MULLW	0x03
000d10   cff3     movff   0xff3, 0x005     	MOVFF	PRODL, r0x05
000d12   f005
000d14   5005     movf    0x05, 0x0, 0x0   	MOVF	r0x05, W
000d16   2603     addwf   0x03, 0x1, 0x0   	ADDWF	r0x03, F
000d18   6ae8     clrf    0xe8, 0x0        	CLRF	WREG
000d1a   2204     addwfc  0x04, 0x1, 0x0   	ADDWFC	r0x04, F
000d1c   c003     movff   0x003, 0xfe9     	MOVFF	r0x03, FSR0L
000d1e   ffe9
000d20   c004     movff   0x004, 0xfea     	MOVFF	r0x04, FSR0H
000d22   ffea
000d24   cfee     movff   0xfee, 0x003     	MOVFF	POSTINC0, r0x03
000d26   f003
000d28   cfee     movff   0xfee, 0x004     	MOVFF	POSTINC0, r0x04
000d2a   f004
000d2c   cfef     movff   0xfef, 0x005     	MOVFF	INDF0, r0x05
000d2e   f005
000d30   5005     movf    0x05, 0x0, 0x0   	MOVF	r0x05, W
000d32   6ee5     movwf   0xe5, 0x0        	MOVWF	POSTDEC1
000d34   5004     movf    0x04, 0x0, 0x0   	MOVF	r0x04, W
000d36   6ee5     movwf   0xe5, 0x0        	MOVWF	POSTDEC1
000d38   5003     movf    0x03, 0x0, 0x0   	MOVF	r0x03, W
000d3a   6ee5     movwf   0xe5, 0x0        	MOVWF	POSTDEC1
000d3c   ec88     call    0x003f10, 0x0    	CALL	_lcdString
000d3e   f01f
000d40   0e03     movlw   0x03             	MOVLW	0x03
000d42   26e1     addwf   0xe1, 0x1, 0x0   	ADDWF	FSR1L, F
                                           ;	.line	78; output.c	lcdCommand(0xC0);
000d44   0ec0     movlw   0xc0             	MOVLW	0xc0
000d46   6ee5     movwf   0xe5, 0x0        	MOVWF	POSTDEC1
000d48   ec2c     call    0x002858, 0x0    	CALL	_lcdCommand
000d4a   f014
000d4c   52e6     movf    0xe6, 0x1, 0x0   	MOVF	POSTINC1, F
                                           ;	.line	79; output.c	lcdInt(getAlarmLow());
000d4e   ec2e     call    0x004e5c, 0x0    	CALL	_getAlarmLow
000d50   f027
000d52   6e03     movwf   0x03, 0x0        	MOVWF	r0x03
000d54   cff3     movff   0xff3, 0x004     	MOVFF	PRODL, r0x04
000d56   f004
000d58   5004     movf    0x04, 0x0, 0x0   	MOVF	r0x04, W
000d5a   6ee5     movwf   0xe5, 0x0        	MOVWF	POSTDEC1
000d5c   5003     movf    0x03, 0x0, 0x0   	MOVF	r0x03, W
000d5e   6ee5     movwf   0xe5, 0x0        	MOVWF	POSTDEC1
000d60   ec8a     call    0x002d14, 0x0    	CALL	_lcdInt
000d62   f016
000d64   52e6     movf    0xe6, 0x1, 0x0   	MOVF	POSTINC1, F
000d66   52e6     movf    0xe6, 0x1, 0x0   	MOVF	POSTINC1, F
                                           ;	.line	80; output.c	lcdString("           ");//para apagar os textos depois do numero
000d68   0e00     movlw   0x00             	MOVLW	UPPER(___str_0)
000d6a   6e05     movwf   0x05, 0x0        	MOVWF	r0x05
000d6c   0e22     movlw   0x22             	MOVLW	HIGH(___str_0)
000d6e   6e04     movwf   0x04, 0x0        	MOVWF	r0x04
000d70   0ea0     movlw   0xa0             	MOVLW	LOW(___str_0)
000d72   6e03     movwf   0x03, 0x0        	MOVWF	r0x03
000d74   5005     movf    0x05, 0x0, 0x0   	MOVF	r0x05, W
000d76   6ee5     movwf   0xe5, 0x0        	MOVWF	POSTDEC1
000d78   5004     movf    0x04, 0x0, 0x0   	MOVF	r0x04, W
000d7a   6ee5     movwf   0xe5, 0x0        	MOVWF	POSTDEC1
000d7c   5003     movf    0x03, 0x0, 0x0   	MOVF	r0x03, W
000d7e   6ee5     movwf   0xe5, 0x0        	MOVWF	POSTDEC1
000d80   ec88     call    0x003f10, 0x0    	CALL	_lcdString
000d82   f01f
000d84   0e03     movlw   0x03             	MOVLW	0x03
000d86   26e1     addwf   0xe1, 0x1, 0x0   	ADDWF	FSR1L, F
                                           _00117_DS_:
                                           ;	.line	82; output.c	if (numTela == STATE_TIME) {
000d88   5000     movf    0x00, 0x0, 0x0   	MOVF	r0x00, W
000d8a   0a04     xorlw   0x04             	XORLW	0x04
000d8c   e102     bnz     0x000d92         	BNZ	_00178_DS_
000d8e   5001     movf    0x01, 0x0, 0x0   	MOVF	r0x01, W
000d90   e001     bz      0x000d94         	BZ	_00179_DS_
                                           _00178_DS_:
000d92   d056     bra     0x000e40         	BRA	_00119_DS_
                                           _00179_DS_:
                                           ;	.line	83; output.c	lcdCommand(0x80);
000d94   0e80     movlw   0x80             	MOVLW	0x80
000d96   6ee5     movwf   0xe5, 0x0        	MOVWF	POSTDEC1
000d98   ec2c     call    0x002858, 0x0    	CALL	_lcdCommand
000d9a   f014
000d9c   52e6     movf    0xe6, 0x1, 0x0   	MOVF	POSTINC1, F
                                           ;	.line	84; output.c	lcdString(msgs[numTela][idiom]);
000d9e   5001     movf    0x01, 0x0, 0x0   	MOVF	r0x01, W
000da0   6ee5     movwf   0xe5, 0x0        	MOVWF	POSTDEC1
000da2   5000     movf    0x00, 0x0, 0x0   	MOVF	r0x00, W
000da4   6ee5     movwf   0xe5, 0x0        	MOVWF	POSTDEC1
000da6   0e00     movlw   0x00             	MOVLW	0x00
000da8   6ee5     movwf   0xe5, 0x0        	MOVWF	POSTDEC1
000daa   0e06     movlw   0x06             	MOVLW	0x06
000dac   6ee5     movwf   0xe5, 0x0        	MOVWF	POSTDEC1
000dae   eca8     call    0x003d50, 0x0    	CALL	__mulint
000db0   f01e
000db2   6e03     movwf   0x03, 0x0        	MOVWF	r0x03
000db4   cff3     movff   0xff3, 0x004     	MOVFF	PRODL, r0x04
000db6   f004
000db8   0e04     movlw   0x04             	MOVLW	0x04
000dba   26e1     addwf   0xe1, 0x1, 0x0   	ADDWF	FSR1L, F
000dbc   0e60     movlw   0x60             	MOVLW	LOW(_msgs)
000dbe   2603     addwf   0x03, 0x1, 0x0   	ADDWF	r0x03, F
000dc0   0e00     movlw   0x00             	MOVLW	HIGH(_msgs)
000dc2   2204     addwfc  0x04, 0x1, 0x0   	ADDWFC	r0x04, F
                                           ; ;multiply lit val:0x03 by variable r0x02 and store in r0x05
000dc4   5002     movf    0x02, 0x0, 0x0   	MOVF	r0x02, W
000dc6   0d03     mullw   0x03             	MULLW	0x03
000dc8   cff3     movff   0xff3, 0x005     	MOVFF	PRODL, r0x05
000dca   f005
000dcc   5005     movf    0x05, 0x0, 0x0   	MOVF	r0x05, W
000dce   2603     addwf   0x03, 0x1, 0x0   	ADDWF	r0x03, F
000dd0   6ae8     clrf    0xe8, 0x0        	CLRF	WREG
000dd2   2204     addwfc  0x04, 0x1, 0x0   	ADDWFC	r0x04, F
000dd4   c003     movff   0x003, 0xfe9     	MOVFF	r0x03, FSR0L
000dd6   ffe9
000dd8   c004     movff   0x004, 0xfea     	MOVFF	r0x04, FSR0H
000dda   ffea
000ddc   cfee     movff   0xfee, 0x003     	MOVFF	POSTINC0, r0x03
000dde   f003
000de0   cfee     movff   0xfee, 0x004     	MOVFF	POSTINC0, r0x04
000de2   f004
000de4   cfef     movff   0xfef, 0x005     	MOVFF	INDF0, r0x05
000de6   f005
000de8   5005     movf    0x05, 0x0, 0x0   	MOVF	r0x05, W
000dea   6ee5     movwf   0xe5, 0x0        	MOVWF	POSTDEC1
000dec   5004     movf    0x04, 0x0, 0x0   	MOVF	r0x04, W
000dee   6ee5     movwf   0xe5, 0x0        	MOVWF	POSTDEC1
000df0   5003     movf    0x03, 0x0, 0x0   	MOVF	r0x03, W
000df2   6ee5     movwf   0xe5, 0x0        	MOVWF	POSTDEC1
000df4   ec88     call    0x003f10, 0x0    	CALL	_lcdString
000df6   f01f
000df8   0e03     movlw   0x03             	MOVLW	0x03
000dfa   26e1     addwf   0xe1, 0x1, 0x0   	ADDWF	FSR1L, F
                                           ;	.line	85; output.c	lcdCommand(0xC0);
000dfc   0ec0     movlw   0xc0             	MOVLW	0xc0
000dfe   6ee5     movwf   0xe5, 0x0        	MOVWF	POSTDEC1
000e00   ec2c     call    0x002858, 0x0    	CALL	_lcdCommand
000e02   f014
000e04   52e6     movf    0xe6, 0x1, 0x0   	MOVF	POSTINC1, F
                                           ;	.line	86; output.c	lcdInt(getTime());
000e06   ec42     call    0x004e84, 0x0    	CALL	_getTime
000e08   f027
000e0a   6e03     movwf   0x03, 0x0        	MOVWF	r0x03
000e0c   cff3     movff   0xff3, 0x004     	MOVFF	PRODL, r0x04
000e0e   f004
000e10   5004     movf    0x04, 0x0, 0x0   	MOVF	r0x04, W
000e12   6ee5     movwf   0xe5, 0x0        	MOVWF	POSTDEC1
000e14   5003     movf    0x03, 0x0, 0x0   	MOVF	r0x03, W
000e16   6ee5     movwf   0xe5, 0x0        	MOVWF	POSTDEC1
000e18   ec8a     call    0x002d14, 0x0    	CALL	_lcdInt
000e1a   f016
000e1c   52e6     movf    0xe6, 0x1, 0x0   	MOVF	POSTINC1, F
000e1e   52e6     movf    0xe6, 0x1, 0x0   	MOVF	POSTINC1, F
                                           ;	.line	87; output.c	lcdString("           ");//para apagar os textos depois do numero
000e20   0e00     movlw   0x00             	MOVLW	UPPER(___str_0)
000e22   6e05     movwf   0x05, 0x0        	MOVWF	r0x05
000e24   0e22     movlw   0x22             	MOVLW	HIGH(___str_0)
000e26   6e04     movwf   0x04, 0x0        	MOVWF	r0x04
000e28   0ea0     movlw   0xa0             	MOVLW	LOW(___str_0)
000e2a   6e03     movwf   0x03, 0x0        	MOVWF	r0x03
000e2c   5005     movf    0x05, 0x0, 0x0   	MOVF	r0x05, W
000e2e   6ee5     movwf   0xe5, 0x0        	MOVWF	POSTDEC1
000e30   5004     movf    0x04, 0x0, 0x0   	MOVF	r0x04, W
000e32   6ee5     movwf   0xe5, 0x0        	MOVWF	POSTDEC1
000e34   5003     movf    0x03, 0x0, 0x0   	MOVF	r0x03, W
000e36   6ee5     movwf   0xe5, 0x0        	MOVWF	POSTDEC1
000e38   ec88     call    0x003f10, 0x0    	CALL	_lcdString
000e3a   f01f
000e3c   0e03     movlw   0x03             	MOVLW	0x03
000e3e   26e1     addwf   0xe1, 0x1, 0x0   	ADDWF	FSR1L, F
                                           _00119_DS_:
                                           ;	.line	89; output.c	if (numTela == STATE_SET_T) {
000e40   5000     movf    0x00, 0x0, 0x0   	MOVF	r0x00, W
000e42   0a05     xorlw   0x05             	XORLW	0x05
000e44   e102     bnz     0x000e4a         	BNZ	_00180_DS_
000e46   5001     movf    0x01, 0x0, 0x0   	MOVF	r0x01, W
000e48   e001     bz      0x000e4c         	BZ	_00181_DS_
                                           _00180_DS_:
000e4a   d056     bra     0x000ef8         	BRA	_00121_DS_
                                           _00181_DS_:
                                           ;	.line	90; output.c	lcdCommand(0x80);
000e4c   0e80     movlw   0x80             	MOVLW	0x80
000e4e   6ee5     movwf   0xe5, 0x0        	MOVWF	POSTDEC1
000e50   ec2c     call    0x002858, 0x0    	CALL	_lcdCommand
000e52   f014
000e54   52e6     movf    0xe6, 0x1, 0x0   	MOVF	POSTINC1, F
                                           ;	.line	91; output.c	lcdString(msgs[numTela][idiom]);
000e56   5001     movf    0x01, 0x0, 0x0   	MOVF	r0x01, W
000e58   6ee5     movwf   0xe5, 0x0        	MOVWF	POSTDEC1
000e5a   5000     movf    0x00, 0x0, 0x0   	MOVF	r0x00, W
000e5c   6ee5     movwf   0xe5, 0x0        	MOVWF	POSTDEC1
000e5e   0e00     movlw   0x00             	MOVLW	0x00
000e60   6ee5     movwf   0xe5, 0x0        	MOVWF	POSTDEC1
000e62   0e06     movlw   0x06             	MOVLW	0x06
000e64   6ee5     movwf   0xe5, 0x0        	MOVWF	POSTDEC1
000e66   eca8     call    0x003d50, 0x0    	CALL	__mulint
000e68   f01e
000e6a   6e03     movwf   0x03, 0x0        	MOVWF	r0x03
000e6c   cff3     movff   0xff3, 0x004     	MOVFF	PRODL, r0x04
000e6e   f004
000e70   0e04     movlw   0x04             	MOVLW	0x04
000e72   26e1     addwf   0xe1, 0x1, 0x0   	ADDWF	FSR1L, F
000e74   0e60     movlw   0x60             	MOVLW	LOW(_msgs)
000e76   2603     addwf   0x03, 0x1, 0x0   	ADDWF	r0x03, F
000e78   0e00     movlw   0x00             	MOVLW	HIGH(_msgs)
000e7a   2204     addwfc  0x04, 0x1, 0x0   	ADDWFC	r0x04, F
                                           ; ;multiply lit val:0x03 by variable r0x02 and store in r0x05
000e7c   5002     movf    0x02, 0x0, 0x0   	MOVF	r0x02, W
000e7e   0d03     mullw   0x03             	MULLW	0x03
000e80   cff3     movff   0xff3, 0x005     	MOVFF	PRODL, r0x05
000e82   f005
000e84   5005     movf    0x05, 0x0, 0x0   	MOVF	r0x05, W
000e86   2603     addwf   0x03, 0x1, 0x0   	ADDWF	r0x03, F
000e88   6ae8     clrf    0xe8, 0x0        	CLRF	WREG
000e8a   2204     addwfc  0x04, 0x1, 0x0   	ADDWFC	r0x04, F
000e8c   c003     movff   0x003, 0xfe9     	MOVFF	r0x03, FSR0L
000e8e   ffe9
000e90   c004     movff   0x004, 0xfea     	MOVFF	r0x04, FSR0H
000e92   ffea
000e94   cfee     movff   0xfee, 0x003     	MOVFF	POSTINC0, r0x03
000e96   f003
000e98   cfee     movff   0xfee, 0x004     	MOVFF	POSTINC0, r0x04
000e9a   f004
000e9c   cfef     movff   0xfef, 0x005     	MOVFF	INDF0, r0x05
000e9e   f005
000ea0   5005     movf    0x05, 0x0, 0x0   	MOVF	r0x05, W
000ea2   6ee5     movwf   0xe5, 0x0        	MOVWF	POSTDEC1
000ea4   5004     movf    0x04, 0x0, 0x0   	MOVF	r0x04, W
000ea6   6ee5     movwf   0xe5, 0x0        	MOVWF	POSTDEC1
000ea8   5003     movf    0x03, 0x0, 0x0   	MOVF	r0x03, W
000eaa   6ee5     movwf   0xe5, 0x0        	MOVWF	POSTDEC1
000eac   ec88     call    0x003f10, 0x0    	CALL	_lcdString
000eae   f01f
000eb0   0e03     movlw   0x03             	MOVLW	0x03
000eb2   26e1     addwf   0xe1, 0x1, 0x0   	ADDWF	FSR1L, F
                                           ;	.line	92; output.c	lcdCommand(0xC0);
000eb4   0ec0     movlw   0xc0             	MOVLW	0xc0
000eb6   6ee5     movwf   0xe5, 0x0        	MOVWF	POSTDEC1
000eb8   ec2c     call    0x002858, 0x0    	CALL	_lcdCommand
000eba   f014
000ebc   52e6     movf    0xe6, 0x1, 0x0   	MOVF	POSTINC1, F
                                           ;	.line	93; output.c	lcdInt(getTime());
000ebe   ec42     call    0x004e84, 0x0    	CALL	_getTime
000ec0   f027
000ec2   6e03     movwf   0x03, 0x0        	MOVWF	r0x03
000ec4   cff3     movff   0xff3, 0x004     	MOVFF	PRODL, r0x04
000ec6   f004
000ec8   5004     movf    0x04, 0x0, 0x0   	MOVF	r0x04, W
000eca   6ee5     movwf   0xe5, 0x0        	MOVWF	POSTDEC1
000ecc   5003     movf    0x03, 0x0, 0x0   	MOVF	r0x03, W
000ece   6ee5     movwf   0xe5, 0x0        	MOVWF	POSTDEC1
000ed0   ec8a     call    0x002d14, 0x0    	CALL	_lcdInt
000ed2   f016
000ed4   52e6     movf    0xe6, 0x1, 0x0   	MOVF	POSTINC1, F
000ed6   52e6     movf    0xe6, 0x1, 0x0   	MOVF	POSTINC1, F
                                           ;	.line	94; output.c	lcdString("           ");//para apagar os textos depois do numero
000ed8   0e00     movlw   0x00             	MOVLW	UPPER(___str_0)
000eda   6e05     movwf   0x05, 0x0        	MOVWF	r0x05
000edc   0e22     movlw   0x22             	MOVLW	HIGH(___str_0)
000ede   6e04     movwf   0x04, 0x0        	MOVWF	r0x04
000ee0   0ea0     movlw   0xa0             	MOVLW	LOW(___str_0)
000ee2   6e03     movwf   0x03, 0x0        	MOVWF	r0x03
000ee4   5005     movf    0x05, 0x0, 0x0   	MOVF	r0x05, W
000ee6   6ee5     movwf   0xe5, 0x0        	MOVWF	POSTDEC1
000ee8   5004     movf    0x04, 0x0, 0x0   	MOVF	r0x04, W
000eea   6ee5     movwf   0xe5, 0x0        	MOVWF	POSTDEC1
000eec   5003     movf    0x03, 0x0, 0x0   	MOVF	r0x03, W
000eee   6ee5     movwf   0xe5, 0x0        	MOVWF	POSTDEC1
000ef0   ec88     call    0x003f10, 0x0    	CALL	_lcdString
000ef2   f01f
000ef4   0e03     movlw   0x03             	MOVLW	0x03
000ef6   26e1     addwf   0xe1, 0x1, 0x0   	ADDWF	FSR1L, F
                                           _00121_DS_:
                                           ;	.line	96; output.c	if (numTela == STATE_IDIOM) {
000ef8   5000     movf    0x00, 0x0, 0x0   	MOVF	r0x00, W
000efa   0a06     xorlw   0x06             	XORLW	0x06
000efc   e102     bnz     0x000f02         	BNZ	_00182_DS_
000efe   5001     movf    0x01, 0x0, 0x0   	MOVF	r0x01, W
000f00   e001     bz      0x000f04         	BZ	_00183_DS_
                                           _00182_DS_:
000f02   d064     bra     0x000fcc         	BRA	_00127_DS_
                                           _00183_DS_:
                                           ;	.line	97; output.c	lcdCommand(0x80);
000f04   0e80     movlw   0x80             	MOVLW	0x80
000f06   6ee5     movwf   0xe5, 0x0        	MOVWF	POSTDEC1
000f08   ec2c     call    0x002858, 0x0    	CALL	_lcdCommand
000f0a   f014
000f0c   52e6     movf    0xe6, 0x1, 0x0   	MOVF	POSTINC1, F
                                           ;	.line	98; output.c	lcdString(msgs[numTela][idiom]);
000f0e   5001     movf    0x01, 0x0, 0x0   	MOVF	r0x01, W
000f10   6ee5     movwf   0xe5, 0x0        	MOVWF	POSTDEC1
000f12   5000     movf    0x00, 0x0, 0x0   	MOVF	r0x00, W
000f14   6ee5     movwf   0xe5, 0x0        	MOVWF	POSTDEC1
000f16   0e00     movlw   0x00             	MOVLW	0x00
000f18   6ee5     movwf   0xe5, 0x0        	MOVWF	POSTDEC1
000f1a   0e06     movlw   0x06             	MOVLW	0x06
000f1c   6ee5     movwf   0xe5, 0x0        	MOVWF	POSTDEC1
000f1e   eca8     call    0x003d50, 0x0    	CALL	__mulint
000f20   f01e
000f22   6e03     movwf   0x03, 0x0        	MOVWF	r0x03
000f24   cff3     movff   0xff3, 0x004     	MOVFF	PRODL, r0x04
000f26   f004
000f28   0e04     movlw   0x04             	MOVLW	0x04
000f2a   26e1     addwf   0xe1, 0x1, 0x0   	ADDWF	FSR1L, F
000f2c   0e60     movlw   0x60             	MOVLW	LOW(_msgs)
000f2e   2603     addwf   0x03, 0x1, 0x0   	ADDWF	r0x03, F
000f30   0e00     movlw   0x00             	MOVLW	HIGH(_msgs)
000f32   2204     addwfc  0x04, 0x1, 0x0   	ADDWFC	r0x04, F
                                           ; ;multiply lit val:0x03 by variable r0x02 and store in r0x05
000f34   5002     movf    0x02, 0x0, 0x0   	MOVF	r0x02, W
000f36   0d03     mullw   0x03             	MULLW	0x03
000f38   cff3     movff   0xff3, 0x005     	MOVFF	PRODL, r0x05
000f3a   f005
000f3c   5005     movf    0x05, 0x0, 0x0   	MOVF	r0x05, W
000f3e   2603     addwf   0x03, 0x1, 0x0   	ADDWF	r0x03, F
000f40   6ae8     clrf    0xe8, 0x0        	CLRF	WREG
000f42   2204     addwfc  0x04, 0x1, 0x0   	ADDWFC	r0x04, F
000f44   c003     movff   0x003, 0xfe9     	MOVFF	r0x03, FSR0L
000f46   ffe9
000f48   c004     movff   0x004, 0xfea     	MOVFF	r0x04, FSR0H
000f4a   ffea
000f4c   cfee     movff   0xfee, 0x003     	MOVFF	POSTINC0, r0x03
000f4e   f003
000f50   cfee     movff   0xfee, 0x004     	MOVFF	POSTINC0, r0x04
000f52   f004
000f54   cfef     movff   0xfef, 0x005     	MOVFF	INDF0, r0x05
000f56   f005
000f58   5005     movf    0x05, 0x0, 0x0   	MOVF	r0x05, W
000f5a   6ee5     movwf   0xe5, 0x0        	MOVWF	POSTDEC1
000f5c   5004     movf    0x04, 0x0, 0x0   	MOVF	r0x04, W
000f5e   6ee5     movwf   0xe5, 0x0        	MOVWF	POSTDEC1
000f60   5003     movf    0x03, 0x0, 0x0   	MOVF	r0x03, W
000f62   6ee5     movwf   0xe5, 0x0        	MOVWF	POSTDEC1
000f64   ec88     call    0x003f10, 0x0    	CALL	_lcdString
000f66   f01f
000f68   0e03     movlw   0x03             	MOVLW	0x03
000f6a   26e1     addwf   0xe1, 0x1, 0x0   	ADDWF	FSR1L, F
                                           ;	.line	99; output.c	lcdCommand(0xC0);
000f6c   0ec0     movlw   0xc0             	MOVLW	0xc0
000f6e   6ee5     movwf   0xe5, 0x0        	MOVWF	POSTDEC1
000f70   ec2c     call    0x002858, 0x0    	CALL	_lcdCommand
000f72   f014
000f74   52e6     movf    0xe6, 0x1, 0x0   	MOVF	POSTINC1, F
                                           ;	.line	100; output.c	if (getIdiom() == 0) {
000f76   ecef     call    0x004dde, 0x0    	CALL	_getIdiom
000f78   f026
000f7a   6e03     movwf   0x03, 0x0        	MOVWF	r0x03
000f7c   5003     movf    0x03, 0x0, 0x0   	MOVF	r0x03, W
000f7e   e110     bnz     0x000fa0         	BNZ	_00123_DS_
                                           ;	.line	101; output.c	lcdString("Portugues       ");
000f80   0e00     movlw   0x00             	MOVLW	UPPER(___str_1)
000f82   6e05     movwf   0x05, 0x0        	MOVWF	r0x05
000f84   0e22     movlw   0x22             	MOVLW	HIGH(___str_1)
000f86   6e04     movwf   0x04, 0x0        	MOVWF	r0x04
000f88   0eac     movlw   0xac             	MOVLW	LOW(___str_1)
000f8a   6e03     movwf   0x03, 0x0        	MOVWF	r0x03
000f8c   5005     movf    0x05, 0x0, 0x0   	MOVF	r0x05, W
000f8e   6ee5     movwf   0xe5, 0x0        	MOVWF	POSTDEC1
000f90   5004     movf    0x04, 0x0, 0x0   	MOVF	r0x04, W
000f92   6ee5     movwf   0xe5, 0x0        	MOVWF	POSTDEC1
000f94   5003     movf    0x03, 0x0, 0x0   	MOVF	r0x03, W
000f96   6ee5     movwf   0xe5, 0x0        	MOVWF	POSTDEC1
000f98   ec88     call    0x003f10, 0x0    	CALL	_lcdString
000f9a   f01f
000f9c   0e03     movlw   0x03             	MOVLW	0x03
000f9e   26e1     addwf   0xe1, 0x1, 0x0   	ADDWF	FSR1L, F
                                           _00123_DS_:
                                           ;	.line	103; output.c	if (getIdiom() == 1) {
000fa0   ecef     call    0x004dde, 0x0    	CALL	_getIdiom
000fa2   f026
000fa4   6e03     movwf   0x03, 0x0        	MOVWF	r0x03
000fa6   5003     movf    0x03, 0x0, 0x0   	MOVF	r0x03, W
000fa8   0a01     xorlw   0x01             	XORLW	0x01
000faa   e110     bnz     0x000fcc         	BNZ	_00127_DS_
                                           ;	.line	104; output.c	lcdString("English         ");
000fac   0e00     movlw   0x00             	MOVLW	UPPER(___str_2)
000fae   6e05     movwf   0x05, 0x0        	MOVWF	r0x05
000fb0   0e22     movlw   0x22             	MOVLW	HIGH(___str_2)
000fb2   6e04     movwf   0x04, 0x0        	MOVWF	r0x04
000fb4   0ebe     movlw   0xbe             	MOVLW	LOW(___str_2)
000fb6   6e03     movwf   0x03, 0x0        	MOVWF	r0x03
000fb8   5005     movf    0x05, 0x0, 0x0   	MOVF	r0x05, W
000fba   6ee5     movwf   0xe5, 0x0        	MOVWF	POSTDEC1
000fbc   5004     movf    0x04, 0x0, 0x0   	MOVF	r0x04, W
000fbe   6ee5     movwf   0xe5, 0x0        	MOVWF	POSTDEC1
000fc0   5003     movf    0x03, 0x0, 0x0   	MOVF	r0x03, W
000fc2   6ee5     movwf   0xe5, 0x0        	MOVWF	POSTDEC1
000fc4   ec88     call    0x003f10, 0x0    	CALL	_lcdString
000fc6   f01f
000fc8   0e03     movlw   0x03             	MOVLW	0x03
000fca   26e1     addwf   0xe1, 0x1, 0x0   	ADDWF	FSR1L, F
                                           _00127_DS_:
                                           ;	.line	108; output.c	if (numTela == STATE_RST) {
000fcc   5000     movf    0x00, 0x0, 0x0   	MOVF	r0x00, W
000fce   0a07     xorlw   0x07             	XORLW	0x07
000fd0   e102     bnz     0x000fd6         	BNZ	_00186_DS_
000fd2   5001     movf    0x01, 0x0, 0x0   	MOVF	r0x01, W
000fd4   e001     bz      0x000fd8         	BZ	_00187_DS_
                                           _00186_DS_:
000fd6   d064     bra     0x0010a0         	BRA	_00134_DS_
                                           _00187_DS_:
                                           ;	.line	109; output.c	lcdCommand(0x80);
000fd8   0e80     movlw   0x80             	MOVLW	0x80
000fda   6ee5     movwf   0xe5, 0x0        	MOVWF	POSTDEC1
000fdc   ec2c     call    0x002858, 0x0    	CALL	_lcdCommand
000fde   f014
000fe0   52e6     movf    0xe6, 0x1, 0x0   	MOVF	POSTINC1, F
                                           ;	.line	110; output.c	lcdString(msgs[numTela][idiom]);  
000fe2   5001     movf    0x01, 0x0, 0x0   	MOVF	r0x01, W
000fe4   6ee5     movwf   0xe5, 0x0        	MOVWF	POSTDEC1
000fe6   5000     movf    0x00, 0x0, 0x0   	MOVF	r0x00, W
000fe8   6ee5     movwf   0xe5, 0x0        	MOVWF	POSTDEC1
000fea   0e00     movlw   0x00             	MOVLW	0x00
000fec   6ee5     movwf   0xe5, 0x0        	MOVWF	POSTDEC1
000fee   0e06     movlw   0x06             	MOVLW	0x06
000ff0   6ee5     movwf   0xe5, 0x0        	MOVWF	POSTDEC1
000ff2   eca8     call    0x003d50, 0x0    	CALL	__mulint
000ff4   f01e
000ff6   6e00     movwf   0x00, 0x0        	MOVWF	r0x00
000ff8   cff3     movff   0xff3, 0x001     	MOVFF	PRODL, r0x01
000ffa   f001
000ffc   0e04     movlw   0x04             	MOVLW	0x04
000ffe   26e1     addwf   0xe1, 0x1, 0x0   	ADDWF	FSR1L, F
001000   0e60     movlw   0x60             	MOVLW	LOW(_msgs)
001002   2600     addwf   0x00, 0x1, 0x0   	ADDWF	r0x00, F
001004   0e00     movlw   0x00             	MOVLW	HIGH(_msgs)
001006   2201     addwfc  0x01, 0x1, 0x0   	ADDWFC	r0x01, F
                                           ; ;multiply lit val:0x03 by variable r0x02 and store in r0x02
001008   5002     movf    0x02, 0x0, 0x0   	MOVF	r0x02, W
00100a   0d03     mullw   0x03             	MULLW	0x03
00100c   cff3     movff   0xff3, 0x002     	MOVFF	PRODL, r0x02
00100e   f002
001010   5002     movf    0x02, 0x0, 0x0   	MOVF	r0x02, W
001012   2600     addwf   0x00, 0x1, 0x0   	ADDWF	r0x00, F
001014   6ae8     clrf    0xe8, 0x0        	CLRF	WREG
001016   2201     addwfc  0x01, 0x1, 0x0   	ADDWFC	r0x01, F
001018   c000     movff   0x000, 0xfe9     	MOVFF	r0x00, FSR0L
00101a   ffe9
00101c   c001     movff   0x001, 0xfea     	MOVFF	r0x01, FSR0H
00101e   ffea
001020   cfee     movff   0xfee, 0x000     	MOVFF	POSTINC0, r0x00
001022   f000
001024   cfee     movff   0xfee, 0x001     	MOVFF	POSTINC0, r0x01
001026   f001
001028   cfef     movff   0xfef, 0x002     	MOVFF	INDF0, r0x02
00102a   f002
00102c   5002     movf    0x02, 0x0, 0x0   	MOVF	r0x02, W
00102e   6ee5     movwf   0xe5, 0x0        	MOVWF	POSTDEC1
001030   5001     movf    0x01, 0x0, 0x0   	MOVF	r0x01, W
001032   6ee5     movwf   0xe5, 0x0        	MOVWF	POSTDEC1
001034   5000     movf    0x00, 0x0, 0x0   	MOVF	r0x00, W
001036   6ee5     movwf   0xe5, 0x0        	MOVWF	POSTDEC1
001038   ec88     call    0x003f10, 0x0    	CALL	_lcdString
00103a   f01f
00103c   0e03     movlw   0x03             	MOVLW	0x03
00103e   26e1     addwf   0xe1, 0x1, 0x0   	ADDWF	FSR1L, F
                                           ;	.line	111; output.c	lcdCommand(0xC0);
001040   0ec0     movlw   0xc0             	MOVLW	0xc0
001042   6ee5     movwf   0xe5, 0x0        	MOVWF	POSTDEC1
001044   ec2c     call    0x002858, 0x0    	CALL	_lcdCommand
001046   f014
001048   52e6     movf    0xe6, 0x1, 0x0   	MOVF	POSTINC1, F
                                           ;	.line	112; output.c	if (getIdiom() == 0) {
00104a   ecef     call    0x004dde, 0x0    	CALL	_getIdiom
00104c   f026
00104e   6e00     movwf   0x00, 0x0        	MOVWF	r0x00
001050   5000     movf    0x00, 0x0, 0x0   	MOVF	r0x00, W
001052   e110     bnz     0x001074         	BNZ	_00129_DS_
                                           ;	.line	113; output.c	lcdString(" (<-) S/N (->)  ");
001054   0e00     movlw   0x00             	MOVLW	UPPER(___str_3)
001056   6e02     movwf   0x02, 0x0        	MOVWF	r0x02
001058   0e22     movlw   0x22             	MOVLW	HIGH(___str_3)
00105a   6e01     movwf   0x01, 0x0        	MOVWF	r0x01
00105c   0ed0     movlw   0xd0             	MOVLW	LOW(___str_3)
00105e   6e00     movwf   0x00, 0x0        	MOVWF	r0x00
001060   5002     movf    0x02, 0x0, 0x0   	MOVF	r0x02, W
001062   6ee5     movwf   0xe5, 0x0        	MOVWF	POSTDEC1
001064   5001     movf    0x01, 0x0, 0x0   	MOVF	r0x01, W
001066   6ee5     movwf   0xe5, 0x0        	MOVWF	POSTDEC1
001068   5000     movf    0x00, 0x0, 0x0   	MOVF	r0x00, W
00106a   6ee5     movwf   0xe5, 0x0        	MOVWF	POSTDEC1
00106c   ec88     call    0x003f10, 0x0    	CALL	_lcdString
00106e   f01f
001070   0e03     movlw   0x03             	MOVLW	0x03
001072   26e1     addwf   0xe1, 0x1, 0x0   	ADDWF	FSR1L, F
                                           _00129_DS_:
                                           ;	.line	115; output.c	if (getIdiom() == 1) {
001074   ecef     call    0x004dde, 0x0    	CALL	_getIdiom
001076   f026
001078   6e00     movwf   0x00, 0x0        	MOVWF	r0x00
00107a   5000     movf    0x00, 0x0, 0x0   	MOVF	r0x00, W
00107c   0a01     xorlw   0x01             	XORLW	0x01
00107e   e110     bnz     0x0010a0         	BNZ	_00134_DS_
                                           ;	.line	116; output.c	lcdString(" (<-) Y/N (->)  ");
001080   0e00     movlw   0x00             	MOVLW	UPPER(___str_4)
001082   6e02     movwf   0x02, 0x0        	MOVWF	r0x02
001084   0e22     movlw   0x22             	MOVLW	HIGH(___str_4)
001086   6e01     movwf   0x01, 0x0        	MOVWF	r0x01
001088   0ee2     movlw   0xe2             	MOVLW	LOW(___str_4)
00108a   6e00     movwf   0x00, 0x0        	MOVWF	r0x00
00108c   5002     movf    0x02, 0x0, 0x0   	MOVF	r0x02, W
00108e   6ee5     movwf   0xe5, 0x0        	MOVWF	POSTDEC1
001090   5001     movf    0x01, 0x0, 0x0   	MOVF	r0x01, W
001092   6ee5     movwf   0xe5, 0x0        	MOVWF	POSTDEC1
001094   5000     movf    0x00, 0x0, 0x0   	MOVF	r0x00, W
001096   6ee5     movwf   0xe5, 0x0        	MOVWF	POSTDEC1
001098   ec88     call    0x003f10, 0x0    	CALL	_lcdString
00109a   f01f
00109c   0e03     movlw   0x03             	MOVLW	0x03
00109e   26e1     addwf   0xe1, 0x1, 0x0   	ADDWF	FSR1L, F
                                           _00134_DS_:
0010a0   cfe4     movff   0xfe4, 0x005     	MOVFF	PREINC1, r0x05
0010a2   f005
0010a4   cfe4     movff   0xfe4, 0x004     	MOVFF	PREINC1, r0x04
0010a6   f004
0010a8   cfe4     movff   0xfe4, 0x003     	MOVFF	PREINC1, r0x03
0010aa   f003
0010ac   cfe4     movff   0xfe4, 0x002     	MOVFF	PREINC1, r0x02
0010ae   f002
0010b0   cfe4     movff   0xfe4, 0x001     	MOVFF	PREINC1, r0x01
0010b2   f001
0010b4   cfe4     movff   0xfe4, 0x000     	MOVFF	PREINC1, r0x00
0010b6   f000
0010b8   cfe4     movff   0xfe4, 0xfd9     	MOVFF	PREINC1, FSR2L
0010ba   ffd9
0010bc   0012     return  0x0              	RETURN	

                                           ; ; Starting pCode block
                                           S_output__outputInit	code
                                           _outputInit:
                                           ;	.line	39; output.c	void outputInit(void) {   
002266   cfd9     movff   0xfd9, 0xfe5     	MOVFF	FSR2L, POSTDEC1
002268   ffe5
00226a   cfe1     movff   0xfe1, 0xfd9     	MOVFF	FSR1L, FSR2L
00226c   ffd9
                                           ;	.line	40; output.c	lcdInit();
00226e   ec23     call    0x001c46, 0x0    	CALL	_lcdInit
002270   f00e
                                           ;	.line	41; output.c	adcInit();
002272   eca0     call    0x004140, 0x0    	CALL	_adcInit
002274   f020
                                           ;	.line	42; output.c	serialInit();
002276   ece0     call    0x0043c0, 0x0    	CALL	_serialInit
002278   f021
00227a   0100     movlb   0x0              	BANKSEL	_state_ant
                                           ;	.line	43; output.c	state_ant = 0;
00227c   6be9     clrf    0xe9, 0x1        	CLRF	_state_ant, B
00227e   0100     movlb   0x0              	BANKSEL	_language_ant
                                           ;	.line	44; output.c	language_ant = 0;
002280   6bea     clrf    0xea, 0x1        	CLRF	_language_ant, B
002282   0100     movlb   0x0              	BANKSEL	_time_ant
                                           ;	.line	45; output.c	time_ant = 0;
002284   6bd7     clrf    0xd7, 0x1        	CLRF	_time_ant, B
002286   0100     movlb   0x0              	BANKSEL	(_time_ant + 1)
002288   6bd8     clrf    0xd8, 0x1        	CLRF	(_time_ant + 1), B
00228a   0100     movlb   0x0              	BANKSEL	_alarmLow_ant
                                           ;	.line	46; output.c	alarmLow_ant = 0;
00228c   6bd9     clrf    0xd9, 0x1        	CLRF	_alarmLow_ant, B
00228e   0100     movlb   0x0              	BANKSEL	(_alarmLow_ant + 1)
002290   6bda     clrf    0xda, 0x1        	CLRF	(_alarmLow_ant + 1), B
002292   0100     movlb   0x0              	BANKSEL	_alarmHigh_ant
                                           ;	.line	47; output.c	alarmHigh_ant = 0;
002294   6bdb     clrf    0xdb, 0x1        	CLRF	_alarmHigh_ant, B
002296   0100     movlb   0x0              	BANKSEL	(_alarmHigh_ant + 1)
002298   6bdc     clrf    0xdc, 0x1        	CLRF	(_alarmHigh_ant + 1), B
00229a   cfe4     movff   0xfe4, 0xfd9     	MOVFF	PREINC1, FSR2L
00229c   ffd9
00229e   0012     return  0x0              	RETURN	

                                           ; ; Starting pCode block
                                           ___str_0:
0022a0   2020     addwfc  0x20, 0x0, 0x0   	DB	0x20, 0x20, 0x20, 0x20, 0x20, 0x20, 0x20, 0x20, 0x20, 0x20, 0x20, 0x00
0022a2   2020     addwfc  0x20, 0x0, 0x0   
0022a4   2020     addwfc  0x20, 0x0, 0x0   
0022a6   2020     addwfc  0x20, 0x0, 0x0   
0022a8   2020     addwfc  0x20, 0x0, 0x0   
0022aa   0020     dw      0x0020           
                                           ; ; Starting pCode block
                                           ___str_1:
0022ac   6f50     movwf   0x50, 0x1        	DB	0x50, 0x6f, 0x72, 0x74, 0x75, 0x67, 0x75, 0x65, 0x73, 0x20, 0x20, 0x20
0022ae   7472     btg     0x72, 0x2, 0x0   
0022b0   6775     tstfsz  0x75, 0x1        
0022b2   6575     cpfsgt  0x75, 0x1        
0022b4   2073     addwfc  0x73, 0x0, 0x0   
0022b6   2020     addwfc  0x20, 0x0, 0x0   
0022b8   2020     addwfc  0x20, 0x0, 0x0   	DB	0x20, 0x20, 0x20, 0x20, 0x00
0022ba   2020     addwfc  0x20, 0x0, 0x0   
0022bc   0000     nop                      
                                           ; ; Starting pCode block
                                           ___str_2:
0022be   6e45     movwf   0x45, 0x0        	DB	0x45, 0x6e, 0x67, 0x6c, 0x69, 0x73, 0x68, 0x20, 0x20, 0x20, 0x20, 0x20
0022c0   6c67     negf    0x67, 0x0        
0022c2   7369     btg     0x69, 0x1, 0x1   
0022c4   2068     addwfc  0x68, 0x0, 0x0   
0022c6   2020     addwfc  0x20, 0x0, 0x0   
0022c8   2020     addwfc  0x20, 0x0, 0x0   
0022ca   2020     addwfc  0x20, 0x0, 0x0   	DB	0x20, 0x20, 0x20, 0x20, 0x00
0022cc   2020     addwfc  0x20, 0x0, 0x0   
0022ce   0000     nop                      
                                           ; ; Starting pCode block
                                           ___str_3:
0022d0   2820     incf    0x20, 0x0, 0x0   	DB	0x20, 0x28, 0x3c, 0x2d, 0x29, 0x20, 0x53, 0x2f, 0x4e, 0x20, 0x28, 0x2d
0022d2   2d3c     decfsz  0x3c, 0x0, 0x1   
0022d4   2029     addwfc  0x29, 0x0, 0x0   
0022d6   2f53     decfsz  0x53, 0x1, 0x1   
0022d8   204e     addwfc  0x4e, 0x0, 0x0   
0022da   2d28     decfsz  0x28, 0x0, 0x1   
0022dc   293e     incf    0x3e, 0x0, 0x1   	DB	0x3e, 0x29, 0x20, 0x20, 0x00
0022de   2020     addwfc  0x20, 0x0, 0x0   
0022e0   0000     nop                      
                                           ; ; Starting pCode block
                                           ___str_4:
0022e2   2820     incf    0x20, 0x0, 0x0   	DB	0x20, 0x28, 0x3c, 0x2d, 0x29, 0x20, 0x59, 0x2f, 0x4e, 0x20, 0x28, 0x2d
0022e4   2d3c     decfsz  0x3c, 0x0, 0x1   
0022e6   2029     addwfc  0x29, 0x0, 0x0   
0022e8   2f59     decfsz  0x59, 0x1, 0x1   
0022ea   204e     addwfc  0x4e, 0x0, 0x0   
0022ec   2d28     decfsz  0x28, 0x0, 0x1   
0022ee   293e     incf    0x3e, 0x0, 0x1   	DB	0x3e, 0x29, 0x20, 0x20, 0x00
0022f0   2020     addwfc  0x20, 0x0, 0x0   
0022f2   0000     nop                      
                                           ; ; Starting pCode block
                                           ___str_5:
0022f4   493c     infsnz  0x3c, 0x0, 0x1   	DB	0x3c, 0x49, 0x20, 0x20, 0x41, 0x4c, 0x5f, 0x41, 0x4c, 0x54, 0x4f, 0x20
0022f6   2020     addwfc  0x20, 0x0, 0x0   
0022f8   4c41     dcfsnz  0x41, 0x0, 0x0   
0022fa   415f     rrncf   0x5f, 0x0, 0x1   
0022fc   544c     subfwb  0x4c, 0x0, 0x0   
0022fe   204f     addwfc  0x4f, 0x0, 0x0   
002300   4120     rrncf   0x20, 0x0, 0x1   	DB	0x20, 0x41, 0x42, 0x3e, 0x00
002302   3e42     incfsz  0x42, 0x1, 0x0   
002304   0000     nop                      
                                           ; ; Starting pCode block
                                           ___str_6:
002306   493c     infsnz  0x3c, 0x0, 0x1   	DB	0x3c, 0x49, 0x20, 0x20, 0x41, 0x4c, 0x5f, 0x48, 0x49, 0x47, 0x48, 0x20
002308   2020     addwfc  0x20, 0x0, 0x0   
00230a   4c41     dcfsnz  0x41, 0x0, 0x0   
00230c   485f     infsnz  0x5f, 0x0, 0x0   
00230e   4749     rlncf   0x49, 0x1, 0x1   
002310   2048     addwfc  0x48, 0x0, 0x0   
002312   4120     rrncf   0x20, 0x0, 0x1   	DB	0x20, 0x41, 0x4c, 0x3e, 0x00
002314   3e4c     incfsz  0x4c, 0x1, 0x0   
002316   0000     nop                      
                                           ; ; Starting pCode block
                                           ___str_7:
002318   4c41     dcfsnz  0x41, 0x0, 0x0   	DB	0x41, 0x4c, 0x41, 0x52, 0x4d, 0x45, 0x5f, 0x41, 0x4c, 0x54, 0x4f, 0x3a
00231a   5241     movf    0x41, 0x1, 0x0   
00231c   454d     rlncf   0x4d, 0x0, 0x1   
00231e   415f     rrncf   0x5f, 0x0, 0x1   
002320   544c     subfwb  0x4c, 0x0, 0x0   
002322   3a4f     swapf   0x4f, 0x1, 0x0   
002324   2020     addwfc  0x20, 0x0, 0x0   	DB	0x20, 0x20, 0x20, 0x20, 0x00
002326   2020     addwfc  0x20, 0x0, 0x0   
002328   0000     nop                      
                                           ; ; Starting pCode block
                                           ___str_8:
00232a   4c41     dcfsnz  0x41, 0x0, 0x0   	DB	0x41, 0x4c, 0x41, 0x52, 0x4d, 0x5f, 0x48, 0x49, 0x47, 0x48, 0x3a, 0x20
00232c   5241     movf    0x41, 0x1, 0x0   
00232e   5f4d     subwf   0x4d, 0x1, 0x1   
002330   4948     infsnz  0x48, 0x0, 0x1   
002332   4847     infsnz  0x47, 0x0, 0x0   
002334   203a     addwfc  0x3a, 0x0, 0x0   
002336   2020     addwfc  0x20, 0x0, 0x0   	DB	0x20, 0x20, 0x20, 0x20, 0x00
002338   2020     addwfc  0x20, 0x0, 0x0   
00233a   0000     nop                      
                                           ; ; Starting pCode block
                                           ___str_9:
00233c   413c     rrncf   0x3c, 0x0, 0x1   	DB	0x3c, 0x41, 0x41, 0x20, 0x41, 0x4c, 0x5f, 0x42, 0x41, 0x49, 0x58, 0x4f
00233e   2041     addwfc  0x41, 0x0, 0x0   
002340   4c41     dcfsnz  0x41, 0x0, 0x0   
002342   425f     rrncf   0x5f, 0x1, 0x0   
002344   4941     infsnz  0x41, 0x0, 0x1   
002346   4f58     dcfsnz  0x58, 0x1, 0x1   
002348   2020     addwfc  0x20, 0x0, 0x0   	DB	0x20, 0x20, 0x54, 0x3e, 0x00
00234a   3e54     incfsz  0x54, 0x1, 0x0   
00234c   0000     nop                      
                                           ; ; Starting pCode block
                                           ___str_10:
00234e   413c     rrncf   0x3c, 0x0, 0x1   	DB	0x3c, 0x41, 0x48, 0x20, 0x20, 0x41, 0x4c, 0x5f, 0x4c, 0x4f, 0x57, 0x20
002350   2048     addwfc  0x48, 0x0, 0x0   
002352   4120     rrncf   0x20, 0x0, 0x1   
002354   5f4c     subwf   0x4c, 0x1, 0x1   
002356   4f4c     dcfsnz  0x4c, 0x1, 0x1   
002358   2057     addwfc  0x57, 0x0, 0x0   
00235a   2020     addwfc  0x20, 0x0, 0x0   	DB	0x20, 0x20, 0x54, 0x3e, 0x00
00235c   3e54     incfsz  0x54, 0x1, 0x0   
00235e   0000     nop                      
                                           ; ; Starting pCode block
                                           ___str_11:
002360   4c41     dcfsnz  0x41, 0x0, 0x0   	DB	0x41, 0x4c, 0x41, 0x52, 0x4d, 0x45, 0x5f, 0x42, 0x41, 0x49, 0x58, 0x4f
002362   5241     movf    0x41, 0x1, 0x0   
002364   454d     rlncf   0x4d, 0x0, 0x1   
002366   425f     rrncf   0x5f, 0x1, 0x0   
002368   4941     infsnz  0x41, 0x0, 0x1   
00236a   4f58     dcfsnz  0x58, 0x1, 0x1   
00236c   203a     addwfc  0x3a, 0x0, 0x0   	DB	0x3a, 0x20, 0x20, 0x20, 0x00
00236e   2020     addwfc  0x20, 0x0, 0x0   
002370   0000     nop                      
                                           ; ; Starting pCode block
                                           ___str_12:
002372   4c41     dcfsnz  0x41, 0x0, 0x0   	DB	0x41, 0x4c, 0x41, 0x52, 0x4d, 0x5f, 0x4c, 0x4f, 0x57, 0x3a, 0x20, 0x20
002374   5241     movf    0x41, 0x1, 0x0   
002376   5f4d     subwf   0x4d, 0x1, 0x1   
002378   4f4c     dcfsnz  0x4c, 0x1, 0x1   
00237a   3a57     swapf   0x57, 0x1, 0x0   
00237c   2020     addwfc  0x20, 0x0, 0x0   
00237e   2020     addwfc  0x20, 0x0, 0x0   	DB	0x20, 0x20, 0x20, 0x20, 0x00
002380   2020     addwfc  0x20, 0x0, 0x0   
002382   0000     nop                      
                                           ; ; Starting pCode block
                                           ___str_13:
002384   413c     rrncf   0x3c, 0x0, 0x1   	DB	0x3c, 0x41, 0x42, 0x20, 0x20, 0x20, 0x54, 0x45, 0x4d, 0x50, 0x4f, 0x20
002386   2042     addwfc  0x42, 0x0, 0x0   
002388   2020     addwfc  0x20, 0x0, 0x0   
00238a   4554     rlncf   0x54, 0x0, 0x1   
00238c   504d     movf    0x4d, 0x0, 0x0   
00238e   204f     addwfc  0x4f, 0x0, 0x0   
002390   2020     addwfc  0x20, 0x0, 0x0   	DB	0x20, 0x20, 0x49, 0x3e, 0x00
002392   3e49     incfsz  0x49, 0x1, 0x0   
002394   0000     nop                      
                                           ; ; Starting pCode block
                                           ___str_14:
002396   413c     rrncf   0x3c, 0x0, 0x1   	DB	0x3c, 0x41, 0x4c, 0x20, 0x20, 0x20, 0x54, 0x49, 0x4d, 0x45, 0x20, 0x20
002398   204c     addwfc  0x4c, 0x0, 0x0   
00239a   2020     addwfc  0x20, 0x0, 0x0   
00239c   4954     infsnz  0x54, 0x0, 0x1   
00239e   454d     rlncf   0x4d, 0x0, 0x1   
0023a0   2020     addwfc  0x20, 0x0, 0x0   
0023a2   2020     addwfc  0x20, 0x0, 0x0   	DB	0x20, 0x20, 0x49, 0x3e, 0x00
0023a4   3e49     incfsz  0x49, 0x1, 0x0   
0023a6   0000     nop                      
                                           ; ; Starting pCode block
                                           ___str_15:
0023a8   4c41     dcfsnz  0x41, 0x0, 0x0   	DB	0x41, 0x4c, 0x54, 0x45, 0x52, 0x41, 0x52, 0x5f, 0x54, 0x45, 0x4d, 0x50
0023aa   4554     rlncf   0x54, 0x0, 0x1   
0023ac   4152     rrncf   0x52, 0x0, 0x1   
0023ae   5f52     subwf   0x52, 0x1, 0x1   
0023b0   4554     rlncf   0x54, 0x0, 0x1   
0023b2   504d     movf    0x4d, 0x0, 0x0   
0023b4   3a4f     swapf   0x4f, 0x1, 0x0   	DB	0x4f, 0x3a, 0x20, 0x20, 0x00
0023b6   2020     addwfc  0x20, 0x0, 0x0   
0023b8   0000     nop                      
                                           ; ; Starting pCode block
                                           ___str_16:
0023ba   4843     infsnz  0x43, 0x0, 0x0   	DB	0x43, 0x48, 0x41, 0x4e, 0x47, 0x45, 0x5f, 0x54, 0x49, 0x4d, 0x45, 0x3a
0023bc   4e41     dcfsnz  0x41, 0x1, 0x0   
0023be   4547     rlncf   0x47, 0x0, 0x1   
0023c0   545f     subfwb  0x5f, 0x0, 0x0   
0023c2   4d49     dcfsnz  0x49, 0x0, 0x1   
0023c4   3a45     swapf   0x45, 0x1, 0x0   
0023c6   2020     addwfc  0x20, 0x0, 0x0   	DB	0x20, 0x20, 0x20, 0x20, 0x00
0023c8   2020     addwfc  0x20, 0x0, 0x0   
0023ca   0000     nop                      
                                           ; ; Starting pCode block
                                           ___str_17:
0023cc   543c     subfwb  0x3c, 0x0, 0x0   	DB	0x3c, 0x54, 0x20, 0x20, 0x49, 0x44, 0x49, 0x4f, 0x4d, 0x41, 0x20, 0x20
0023ce   2020     addwfc  0x20, 0x0, 0x0   
0023d0   4449     rlncf   0x49, 0x0, 0x0   
0023d2   4f49     dcfsnz  0x49, 0x1, 0x1   
0023d4   414d     rrncf   0x4d, 0x0, 0x1   
0023d6   2020     addwfc  0x20, 0x0, 0x0   
0023d8   4120     rrncf   0x20, 0x0, 0x1   	DB	0x20, 0x41, 0x41, 0x3e, 0x00
0023da   3e41     incfsz  0x41, 0x1, 0x0   
0023dc   0000     nop                      
                                           ; ; Starting pCode block
                                           ___str_18:
0023de   543c     subfwb  0x3c, 0x0, 0x0   	DB	0x3c, 0x54, 0x20, 0x20, 0x20, 0x49, 0x44, 0x49, 0x4f, 0x4d, 0x20, 0x20
0023e0   2020     addwfc  0x20, 0x0, 0x0   
0023e2   4920     infsnz  0x20, 0x0, 0x1   
0023e4   4944     infsnz  0x44, 0x0, 0x1   
0023e6   4d4f     dcfsnz  0x4f, 0x0, 0x1   
0023e8   2020     addwfc  0x20, 0x0, 0x0   
0023ea   4120     rrncf   0x20, 0x0, 0x1   	DB	0x20, 0x41, 0x48, 0x3e, 0x00
0023ec   3e48     incfsz  0x48, 0x1, 0x0   
0023ee   0000     nop                      
                                           ; ; Starting pCode block
                                           ___str_19:
0023f0   6552     cpfsgt  0x52, 0x1        	DB	0x52, 0x65, 0x73, 0x65, 0x74, 0x61, 0x72, 0x3f, 0x20, 0x20, 0x20, 0x20
0023f2   6573     cpfsgt  0x73, 0x1        
0023f4   6174     cpfslt  0x74, 0x1        
0023f6   3f72     incfsz  0x72, 0x1, 0x1   
0023f8   2020     addwfc  0x20, 0x0, 0x0   
0023fa   2020     addwfc  0x20, 0x0, 0x0   
0023fc   2020     addwfc  0x20, 0x0, 0x0   	DB	0x20, 0x20, 0x20, 0x20, 0x00
0023fe   2020     addwfc  0x20, 0x0, 0x0   
002400   0000     nop                      
                                           ; ; Starting pCode block
                                           ___str_20:
002402   6552     cpfsgt  0x52, 0x1        	DB	0x52, 0x65, 0x73, 0x65, 0x74, 0x3f, 0x20, 0x20, 0x20, 0x20, 0x20, 0x20
002404   6573     cpfsgt  0x73, 0x1        
002406   3f74     incfsz  0x74, 0x1, 0x1   
002408   2020     addwfc  0x20, 0x0, 0x0   
00240a   2020     addwfc  0x20, 0x0, 0x0   
00240c   2020     addwfc  0x20, 0x0, 0x0   
00240e   2020     addwfc  0x20, 0x0, 0x0   	DB	0x20, 0x20, 0x20, 0x20, 0x00
002410   2020     addwfc  0x20, 0x0, 0x0   
002412   0000     nop                      
                                           ; ; Starting pCode block
                                           ___str_21:
002414   7345     btg     0x45, 0x1, 0x1   	DB	0x45, 0x73, 0x74, 0x61, 0x64, 0x6f, 0x20, 0x3d, 0x20, 0x00
002416   6174     cpfslt  0x74, 0x1        
002418   6f64     movwf   0x64, 0x1        
00241a   3d20     incfsz  0x20, 0x0, 0x1   
00241c   0020     dw      0x0020           
                                           ; ; Starting pCode block
                                           ___str_22:
00241e   7453     btg     0x53, 0x2, 0x0   	DB	0x53, 0x74, 0x61, 0x74, 0x65, 0x20, 0x3d, 0x20, 0x00
002420   7461     btg     0x61, 0x2, 0x0   
002422   2065     addwfc  0x65, 0x0, 0x0   
002424   203d     addwfc  0x3d, 0x0, 0x0   
002426   0000     nop                      
                                           ; ; Starting pCode block
                                           ___str_23:
002428   6c41     negf    0x41, 0x0        	DB	0x41, 0x6c, 0x61, 0x72, 0x6d, 0x65, 0x20, 0x41, 0x6c, 0x74, 0x6f, 0x20
00242a   7261     btg     0x61, 0x1, 0x0   
00242c   656d     cpfsgt  0x6d, 0x1        
00242e   4120     rrncf   0x20, 0x0, 0x1   
002430   746c     btg     0x6c, 0x2, 0x0   
002432   206f     addwfc  0x6f, 0x0, 0x0   
002434   203d     addwfc  0x3d, 0x0, 0x0   	DB	0x3d, 0x20, 0x00
002436   0000     nop                      
                                           ; ; Starting pCode block
                                           ___str_24:
002438   6c41     negf    0x41, 0x0        	DB	0x41, 0x6c, 0x61, 0x72, 0x6d, 0x20, 0x48, 0x69, 0x67, 0x68, 0x20, 0x3d
00243a   7261     btg     0x61, 0x1, 0x0   
00243c   206d     addwfc  0x6d, 0x0, 0x0   
00243e   6948     setf    0x48, 0x1        
002440   6867     setf    0x67, 0x0        
002442   3d20     incfsz  0x20, 0x0, 0x1   
002444   0020     dw      0x0020           	DB	0x20, 0x00
                                           ; ; Starting pCode block
                                           ___str_25:
002446   6c41     negf    0x41, 0x0        	DB	0x41, 0x6c, 0x61, 0x72, 0x6d, 0x65, 0x20, 0x42, 0x61, 0x69, 0x78, 0x6f
002448   7261     btg     0x61, 0x1, 0x0   
00244a   656d     cpfsgt  0x6d, 0x1        
00244c   4220     rrncf   0x20, 0x1, 0x0   
00244e   6961     setf    0x61, 0x1        
002450   6f78     movwf   0x78, 0x1        
002452   3d20     incfsz  0x20, 0x0, 0x1   	DB	0x20, 0x3d, 0x20, 0x00
002454   0020     dw      0x0020           
                                           ; ; Starting pCode block
                                           ___str_26:
002456   6c41     negf    0x41, 0x0        	DB	0x41, 0x6c, 0x61, 0x72, 0x6d, 0x20, 0x4c, 0x6f, 0x77, 0x20, 0x3d, 0x20
002458   7261     btg     0x61, 0x1, 0x0   
00245a   206d     addwfc  0x6d, 0x0, 0x0   
00245c   6f4c     movwf   0x4c, 0x1        
00245e   2077     addwfc  0x77, 0x0, 0x0   
002460   203d     addwfc  0x3d, 0x0, 0x0   
002462   0000     nop                      	DB	0x00
                                           ; ; Starting pCode block
                                           ___str_27:
002464   6554     cpfsgt  0x54, 0x1        	DB	0x54, 0x65, 0x6d, 0x70, 0x6f, 0x20, 0x3d, 0x20, 0x00
002466   706d     btg     0x6d, 0x0, 0x0   
002468   206f     addwfc  0x6f, 0x0, 0x0   
00246a   203d     addwfc  0x3d, 0x0, 0x0   
00246c   0000     nop                      
                                           ; ; Starting pCode block
                                           ___str_28:
00246e   6954     setf    0x54, 0x1        	DB	0x54, 0x69, 0x6d, 0x65, 0x20, 0x3d, 0x20, 0x00
002470   656d     cpfsgt  0x6d, 0x1        
002472   3d20     incfsz  0x20, 0x0, 0x1   
002474   0020     dw      0x0020           
                                           ; ; Starting pCode block
                                           ___str_29:
002476   6449     cpfsgt  0x49, 0x0        	DB	0x49, 0x64, 0x69, 0x6f, 0x6d, 0x61, 0x20, 0x3d, 0x20, 0x00
002478   6f69     movwf   0x69, 0x1        
00247a   616d     cpfslt  0x6d, 0x1        
00247c   3d20     incfsz  0x20, 0x0, 0x1   
00247e   0020     dw      0x0020           
                                           ; ; Starting pCode block
                                           ___str_30:
002480   6449     cpfsgt  0x49, 0x0        	DB	0x49, 0x64, 0x69, 0x6f, 0x6d, 0x20, 0x3d, 0x20, 0x00
002482   6f69     movwf   0x69, 0x1        
002484   206d     addwfc  0x6d, 0x0, 0x0   
002486   203d     addwfc  0x3d, 0x0, 0x0   
002488   0000     nop                      


                                           ; Statistics:
                                           ; code size:	 2494 (0x09be) bytes ( 1.90%)
                                           ;           	 1247 (0x04df) words
                                           ; udata size:	    8 (0x0008) bytes ( 0.45%)
                                           ; access size:	   15 (0x000f) bytes


                                           	end
                                           ;--------------------------------------------------------
                                           ; File Created by SDCC : free open source ANSI-C Compiler
                                           ; Version 3.6.0 #9615 (MINGW64)
                                           ;--------------------------------------------------------
                                           ; PIC16 port for the Microchip 16-bit core micros
                                           ;--------------------------------------------------------
                                           	list	p=18f4550
                                           	radix	dec


                                           ;--------------------------------------------------------
                                           ; public variables in this module
                                           ;--------------------------------------------------------
                                           	global	_smInit
                                           	global	_smLoop

                                           ;--------------------------------------------------------
                                           ; extern variables in this module
                                           ;--------------------------------------------------------
                                           	extern	_varInit
                                           	extern	_getState
                                           	extern	_setState
                                           	extern	_getStateRst
                                           	extern	_setStateRst
                                           	extern	_getTime
                                           	extern	_setTime
                                           	extern	_getAlarmLow
                                           	extern	_setAlarmLow
                                           	extern	_getAlarmHigh
                                           	extern	_setAlarmHigh
                                           	extern	_getIdiom
                                           	extern	_setIdiom
                                           	extern	_eventRead
                                           	extern	_outputPrint
                                           	extern	_outputSerial

                                           ;--------------------------------------------------------
                                           ;	Equates to used internal registers
                                           ;--------------------------------------------------------
                                           STATUS	equ	0xfd8
                                           PCL	equ	0xff9
                                           PCLATH	equ	0xffa
                                           PCLATU	equ	0xffb
                                           WREG	equ	0xfe8
                                           FSR1L	equ	0xfe1
                                           FSR2L	equ	0xfd9
                                           POSTINC1	equ	0xfe6
                                           POSTDEC1	equ	0xfe5
                                           PREINC1	equ	0xfe4
                                           PRODL	equ	0xff3


                                           ; Internal registers
                                           .registers	udata_ovr	0x0000
                                           r0x00	res	1
                                           r0x01	res	1
                                           r0x02	res	1

                                           udata_stateMachine_0	udata
                                           _stateRST	res	1

                                           ;--------------------------------------------------------
                                           ; global & static initialisations
                                           ;--------------------------------------------------------
                                           ; I code from now on!
                                           ; ; Starting pCode block
                                           S_stateMachine__smLoop	code
                                           _smLoop:
                                           ;	.line	12; stateMachine.c	void smLoop(void) {
0018b4   cfd9     movff   0xfd9, 0xfe5     	MOVFF	FSR2L, POSTDEC1
0018b6   ffe5
0018b8   cfe1     movff   0xfe1, 0xfd9     	MOVFF	FSR1L, FSR2L
0018ba   ffd9
0018bc   c000     movff   0x000, 0xfe5     	MOVFF	r0x00, POSTDEC1
0018be   ffe5
0018c0   c001     movff   0x001, 0xfe5     	MOVFF	r0x01, POSTDEC1
0018c2   ffe5
0018c4   c002     movff   0x002, 0xfe5     	MOVFF	r0x02, POSTDEC1
0018c6   ffe5
                                           ;	.line	16; stateMachine.c	event = eventRead();
0018c8   ecc4     call    0x003388, 0x0    	CALL	_eventRead
0018ca   f019
0018cc   6e00     movwf   0x00, 0x0        	MOVWF	r0x00
0018ce   cff3     movff   0xff3, 0x001     	MOVFF	PRODL, r0x01
0018d0   f001
                                           ;	.line	18; stateMachine.c	switch (getState()) {
0018d2   ec3e     call    0x004c7c, 0x0    	CALL	_getState
0018d4   f026
0018d6   6e01     movwf   0x01, 0x0        	MOVWF	r0x01
0018d8   0e08     movlw   0x08             	MOVLW	0x08
0018da   5c01     subwf   0x01, 0x0, 0x0   	SUBWF	r0x01, W
0018dc   b0d8     btfsc   0xd8, 0x0, 0x0   	BTFSC	STATUS, 0
0018de   d183     bra     0x001be6         	BRA	_00178_DS_
0018e0   6afa     clrf    0xfa, 0x0        	CLRF	PCLATH
0018e2   6afb     clrf    0xfb, 0x0        	CLRF	PCLATU
0018e4   3401     rlcf    0x01, 0x0, 0x0   	RLCF	r0x01, W
0018e6   36fa     rlcf    0xfa, 0x1, 0x0   	RLCF	PCLATH, F
0018e8   34e8     rlcf    0xe8, 0x0, 0x0   	RLCF	WREG, W
0018ea   36fa     rlcf    0xfa, 0x1, 0x0   	RLCF	PCLATH, F
0018ec   0bfc     andlw   0xfc             	ANDLW	0xfc
0018ee   0ffe     addlw   0xfe             	ADDLW	LOW(_00276_DS_)
0018f0   6ee5     movwf   0xe5, 0x0        	MOVWF	POSTDEC1
0018f2   0e18     movlw   0x18             	MOVLW	HIGH(_00276_DS_)
0018f4   22fa     addwfc  0xfa, 0x1, 0x0   	ADDWFC	PCLATH, F
0018f6   0e00     movlw   0x00             	MOVLW	UPPER(_00276_DS_)
0018f8   22fb     addwfc  0xfb, 0x1, 0x0   	ADDWFC	PCLATU, F
0018fa   50e4     movf    0xe4, 0x0, 0x0   	MOVF	PREINC1, W
0018fc   6ef9     movwf   0xf9, 0x0        	MOVWF	PCL
                                           _00276_DS_:
0018fe   ef8f     goto    0x00191e         	GOTO	_00110_DS_
001900   f00c
001902   efb6     goto    0x00196c         	GOTO	_00119_DS_
001904   f00c
001906   eff2     goto    0x0019e4         	GOTO	_00128_DS_
001908   f00c
00190a   ef19     goto    0x001a32         	GOTO	_00137_DS_
00190c   f00d
00190e   ef55     goto    0x001aaa         	GOTO	_00146_DS_
001910   f00d
001912   ef7c     goto    0x001af8         	GOTO	_00155_DS_
001914   f00d
001916   efb8     goto    0x001b70         	GOTO	_00164_DS_
001918   f00d
00191a   efe2     goto    0x001bc4         	GOTO	_00173_DS_
00191c   f00d
                                           _00110_DS_:
                                           ;	.line	21; stateMachine.c	if (event == EV_RIGHT) {
00191e   5000     movf    0x00, 0x0, 0x0   	MOVF	r0x00, W
001920   0a03     xorlw   0x03             	XORLW	0x03
001922   e105     bnz     0x00192e         	BNZ	_00112_DS_
                                           ;	.line	22; stateMachine.c	setState(STATE_ALARM_LOW);
001924   0e02     movlw   0x02             	MOVLW	0x02
001926   6ee5     movwf   0xe5, 0x0        	MOVWF	POSTDEC1
001928   eca8     call    0x004d50, 0x0    	CALL	_setState
00192a   f026
00192c   52e6     movf    0xe6, 0x1, 0x0   	MOVF	POSTINC1, F
                                           _00112_DS_:
                                           ;	.line	24; stateMachine.c	if (event == EV_LEFT) {
00192e   5000     movf    0x00, 0x0, 0x0   	MOVF	r0x00, W
001930   0a02     xorlw   0x02             	XORLW	0x02
001932   e105     bnz     0x00193e         	BNZ	_00114_DS_
                                           ;	.line	25; stateMachine.c	setState(STATE_IDIOM);
001934   0e06     movlw   0x06             	MOVLW	0x06
001936   6ee5     movwf   0xe5, 0x0        	MOVWF	POSTDEC1
001938   eca8     call    0x004d50, 0x0    	CALL	_setState
00193a   f026
00193c   52e6     movf    0xe6, 0x1, 0x0   	MOVF	POSTINC1, F
                                           _00114_DS_:
                                           ;	.line	29; stateMachine.c	if (event == EV_ENTER) {
00193e   5000     movf    0x00, 0x0, 0x0   	MOVF	r0x00, W
001940   0a04     xorlw   0x04             	XORLW	0x04
001942   e105     bnz     0x00194e         	BNZ	_00116_DS_
                                           ;	.line	30; stateMachine.c	setState(STATE_SET_AH);
001944   0e01     movlw   0x01             	MOVLW	0x01
001946   6ee5     movwf   0xe5, 0x0        	MOVWF	POSTDEC1
001948   eca8     call    0x004d50, 0x0    	CALL	_setState
00194a   f026
00194c   52e6     movf    0xe6, 0x1, 0x0   	MOVF	POSTINC1, F
                                           _00116_DS_:
                                           ;	.line	32; stateMachine.c	if (event == EV_RESET) {
00194e   5000     movf    0x00, 0x0, 0x0   	MOVF	r0x00, W
001950   0a05     xorlw   0x05             	XORLW	0x05
001952   e001     bz      0x001956         	BZ	_00284_DS_
001954   d14d     bra     0x001bf0         	BRA	_00179_DS_
                                           _00284_DS_:
                                           ;	.line	33; stateMachine.c	setStateRst(STATE_ALARM_HIGH);
001956   0e00     movlw   0x00             	MOVLW	0x00
001958   6ee5     movwf   0xe5, 0x0        	MOVWF	POSTDEC1
00195a   ec29     call    0x005052, 0x0    	CALL	_setStateRst
00195c   f028
00195e   52e6     movf    0xe6, 0x1, 0x0   	MOVF	POSTINC1, F
                                           ;	.line	34; stateMachine.c	setState(STATE_RST);
001960   0e07     movlw   0x07             	MOVLW	0x07
001962   6ee5     movwf   0xe5, 0x0        	MOVWF	POSTDEC1
001964   eca8     call    0x004d50, 0x0    	CALL	_setState
001966   f026
001968   52e6     movf    0xe6, 0x1, 0x0   	MOVF	POSTINC1, F
                                           ;	.line	36; stateMachine.c	break; 
00196a   d142     bra     0x001bf0         	BRA	_00179_DS_
                                           _00119_DS_:
                                           ;	.line	39; stateMachine.c	if (event == EV_RIGHT) {
00196c   5000     movf    0x00, 0x0, 0x0   	MOVF	r0x00, W
00196e   0a03     xorlw   0x03             	XORLW	0x03
001970   e10f     bnz     0x001990         	BNZ	_00121_DS_
                                           ;	.line	40; stateMachine.c	setAlarmHigh(getAlarmHigh() + 1);
001972   ec1a     call    0x004e34, 0x0    	CALL	_getAlarmHigh
001974   f027
001976   6e01     movwf   0x01, 0x0        	MOVWF	r0x01
001978   cff3     movff   0xff3, 0x002     	MOVFF	PRODL, r0x02
00197a   f002
00197c   4a01     infsnz  0x01, 0x1, 0x0   	INFSNZ	r0x01, F
00197e   2a02     incf    0x02, 0x1, 0x0   	INCF	r0x02, F
001980   5002     movf    0x02, 0x0, 0x0   	MOVF	r0x02, W
001982   6ee5     movwf   0xe5, 0x0        	MOVWF	POSTDEC1
001984   5001     movf    0x01, 0x0, 0x0   	MOVF	r0x01, W
001986   6ee5     movwf   0xe5, 0x0        	MOVWF	POSTDEC1
001988   ecf3     call    0x0045e6, 0x0    	CALL	_setAlarmHigh
00198a   f022
00198c   52e6     movf    0xe6, 0x1, 0x0   	MOVF	POSTINC1, F
00198e   52e6     movf    0xe6, 0x1, 0x0   	MOVF	POSTINC1, F
                                           _00121_DS_:
                                           ;	.line	42; stateMachine.c	if (event == EV_LEFT) {
001990   5000     movf    0x00, 0x0, 0x0   	MOVF	r0x00, W
001992   0a02     xorlw   0x02             	XORLW	0x02
001994   e110     bnz     0x0019b6         	BNZ	_00123_DS_
                                           ;	.line	43; stateMachine.c	setAlarmHigh(getAlarmHigh() - 1);
001996   ec1a     call    0x004e34, 0x0    	CALL	_getAlarmHigh
001998   f027
00199a   6e01     movwf   0x01, 0x0        	MOVWF	r0x01
00199c   cff3     movff   0xff3, 0x002     	MOVFF	PRODL, r0x02
00199e   f002
0019a0   0eff     movlw   0xff             	MOVLW	0xff
0019a2   2601     addwf   0x01, 0x1, 0x0   	ADDWF	r0x01, F
0019a4   2202     addwfc  0x02, 0x1, 0x0   	ADDWFC	r0x02, F
0019a6   5002     movf    0x02, 0x0, 0x0   	MOVF	r0x02, W
0019a8   6ee5     movwf   0xe5, 0x0        	MOVWF	POSTDEC1
0019aa   5001     movf    0x01, 0x0, 0x0   	MOVF	r0x01, W
0019ac   6ee5     movwf   0xe5, 0x0        	MOVWF	POSTDEC1
0019ae   ecf3     call    0x0045e6, 0x0    	CALL	_setAlarmHigh
0019b0   f022
0019b2   52e6     movf    0xe6, 0x1, 0x0   	MOVF	POSTINC1, F
0019b4   52e6     movf    0xe6, 0x1, 0x0   	MOVF	POSTINC1, F
                                           _00123_DS_:
                                           ;	.line	47; stateMachine.c	if (event == EV_ENTER) {
0019b6   5000     movf    0x00, 0x0, 0x0   	MOVF	r0x00, W
0019b8   0a04     xorlw   0x04             	XORLW	0x04
0019ba   e105     bnz     0x0019c6         	BNZ	_00125_DS_
                                           ;	.line	48; stateMachine.c	setState(STATE_ALARM_HIGH);
0019bc   0e00     movlw   0x00             	MOVLW	0x00
0019be   6ee5     movwf   0xe5, 0x0        	MOVWF	POSTDEC1
0019c0   eca8     call    0x004d50, 0x0    	CALL	_setState
0019c2   f026
0019c4   52e6     movf    0xe6, 0x1, 0x0   	MOVF	POSTINC1, F
                                           _00125_DS_:
                                           ;	.line	50; stateMachine.c	if (event == EV_RESET) {
0019c6   5000     movf    0x00, 0x0, 0x0   	MOVF	r0x00, W
0019c8   0a05     xorlw   0x05             	XORLW	0x05
0019ca   e001     bz      0x0019ce         	BZ	_00292_DS_
0019cc   d111     bra     0x001bf0         	BRA	_00179_DS_
                                           _00292_DS_:
                                           ;	.line	51; stateMachine.c	setStateRst(STATE_SET_AH);
0019ce   0e01     movlw   0x01             	MOVLW	0x01
0019d0   6ee5     movwf   0xe5, 0x0        	MOVWF	POSTDEC1
0019d2   ec29     call    0x005052, 0x0    	CALL	_setStateRst
0019d4   f028
0019d6   52e6     movf    0xe6, 0x1, 0x0   	MOVF	POSTINC1, F
                                           ;	.line	52; stateMachine.c	setState(STATE_RST);
0019d8   0e07     movlw   0x07             	MOVLW	0x07
0019da   6ee5     movwf   0xe5, 0x0        	MOVWF	POSTDEC1
0019dc   eca8     call    0x004d50, 0x0    	CALL	_setState
0019de   f026
0019e0   52e6     movf    0xe6, 0x1, 0x0   	MOVF	POSTINC1, F
                                           ;	.line	54; stateMachine.c	break;
0019e2   d106     bra     0x001bf0         	BRA	_00179_DS_
                                           _00128_DS_:
                                           ;	.line	58; stateMachine.c	if (event == EV_RIGHT) {
0019e4   5000     movf    0x00, 0x0, 0x0   	MOVF	r0x00, W
0019e6   0a03     xorlw   0x03             	XORLW	0x03
0019e8   e105     bnz     0x0019f4         	BNZ	_00130_DS_
                                           ;	.line	59; stateMachine.c	setState(STATE_TIME);
0019ea   0e04     movlw   0x04             	MOVLW	0x04
0019ec   6ee5     movwf   0xe5, 0x0        	MOVWF	POSTDEC1
0019ee   eca8     call    0x004d50, 0x0    	CALL	_setState
0019f0   f026
0019f2   52e6     movf    0xe6, 0x1, 0x0   	MOVF	POSTINC1, F
                                           _00130_DS_:
                                           ;	.line	61; stateMachine.c	if (event == EV_LEFT) {
0019f4   5000     movf    0x00, 0x0, 0x0   	MOVF	r0x00, W
0019f6   0a02     xorlw   0x02             	XORLW	0x02
0019f8   e105     bnz     0x001a04         	BNZ	_00132_DS_
                                           ;	.line	62; stateMachine.c	setState(STATE_ALARM_HIGH);
0019fa   0e00     movlw   0x00             	MOVLW	0x00
0019fc   6ee5     movwf   0xe5, 0x0        	MOVWF	POSTDEC1
0019fe   eca8     call    0x004d50, 0x0    	CALL	_setState
001a00   f026
001a02   52e6     movf    0xe6, 0x1, 0x0   	MOVF	POSTINC1, F
                                           _00132_DS_:
                                           ;	.line	66; stateMachine.c	if (event == EV_ENTER) {
001a04   5000     movf    0x00, 0x0, 0x0   	MOVF	r0x00, W
001a06   0a04     xorlw   0x04             	XORLW	0x04
001a08   e105     bnz     0x001a14         	BNZ	_00134_DS_
                                           ;	.line	67; stateMachine.c	setState(STATE_SET_AL);
001a0a   0e03     movlw   0x03             	MOVLW	0x03
001a0c   6ee5     movwf   0xe5, 0x0        	MOVWF	POSTDEC1
001a0e   eca8     call    0x004d50, 0x0    	CALL	_setState
001a10   f026
001a12   52e6     movf    0xe6, 0x1, 0x0   	MOVF	POSTINC1, F
                                           _00134_DS_:
                                           ;	.line	69; stateMachine.c	if (event == EV_RESET) {
001a14   5000     movf    0x00, 0x0, 0x0   	MOVF	r0x00, W
001a16   0a05     xorlw   0x05             	XORLW	0x05
001a18   e001     bz      0x001a1c         	BZ	_00300_DS_
001a1a   d0ea     bra     0x001bf0         	BRA	_00179_DS_
                                           _00300_DS_:
                                           ;	.line	70; stateMachine.c	setStateRst(STATE_ALARM_LOW);
001a1c   0e02     movlw   0x02             	MOVLW	0x02
001a1e   6ee5     movwf   0xe5, 0x0        	MOVWF	POSTDEC1
001a20   ec29     call    0x005052, 0x0    	CALL	_setStateRst
001a22   f028
001a24   52e6     movf    0xe6, 0x1, 0x0   	MOVF	POSTINC1, F
                                           ;	.line	71; stateMachine.c	setState(STATE_RST);
001a26   0e07     movlw   0x07             	MOVLW	0x07
001a28   6ee5     movwf   0xe5, 0x0        	MOVWF	POSTDEC1
001a2a   eca8     call    0x004d50, 0x0    	CALL	_setState
001a2c   f026
001a2e   52e6     movf    0xe6, 0x1, 0x0   	MOVF	POSTINC1, F
                                           ;	.line	73; stateMachine.c	break;            
001a30   d0df     bra     0x001bf0         	BRA	_00179_DS_
                                           _00137_DS_:
                                           ;	.line	76; stateMachine.c	if (event == EV_RIGHT) {
001a32   5000     movf    0x00, 0x0, 0x0   	MOVF	r0x00, W
001a34   0a03     xorlw   0x03             	XORLW	0x03
001a36   e10f     bnz     0x001a56         	BNZ	_00139_DS_
                                           ;	.line	77; stateMachine.c	setAlarmLow(getAlarmLow() + 1);
001a38   ec2e     call    0x004e5c, 0x0    	CALL	_getAlarmLow
001a3a   f027
001a3c   6e01     movwf   0x01, 0x0        	MOVWF	r0x01
001a3e   cff3     movff   0xff3, 0x002     	MOVFF	PRODL, r0x02
001a40   f002
001a42   4a01     infsnz  0x01, 0x1, 0x0   	INFSNZ	r0x01, F
001a44   2a02     incf    0x02, 0x1, 0x0   	INCF	r0x02, F
001a46   5002     movf    0x02, 0x0, 0x0   	MOVF	r0x02, W
001a48   6ee5     movwf   0xe5, 0x0        	MOVWF	POSTDEC1
001a4a   5001     movf    0x01, 0x0, 0x0   	MOVF	r0x01, W
001a4c   6ee5     movwf   0xe5, 0x0        	MOVWF	POSTDEC1
001a4e   ec24     call    0x004648, 0x0    	CALL	_setAlarmLow
001a50   f023
001a52   52e6     movf    0xe6, 0x1, 0x0   	MOVF	POSTINC1, F
001a54   52e6     movf    0xe6, 0x1, 0x0   	MOVF	POSTINC1, F
                                           _00139_DS_:
                                           ;	.line	79; stateMachine.c	if (event == EV_LEFT) {
001a56   5000     movf    0x00, 0x0, 0x0   	MOVF	r0x00, W
001a58   0a02     xorlw   0x02             	XORLW	0x02
001a5a   e110     bnz     0x001a7c         	BNZ	_00141_DS_
                                           ;	.line	80; stateMachine.c	setAlarmLow(getAlarmLow() - 1);
001a5c   ec2e     call    0x004e5c, 0x0    	CALL	_getAlarmLow
001a5e   f027
001a60   6e01     movwf   0x01, 0x0        	MOVWF	r0x01
001a62   cff3     movff   0xff3, 0x002     	MOVFF	PRODL, r0x02
001a64   f002
001a66   0eff     movlw   0xff             	MOVLW	0xff
001a68   2601     addwf   0x01, 0x1, 0x0   	ADDWF	r0x01, F
001a6a   2202     addwfc  0x02, 0x1, 0x0   	ADDWFC	r0x02, F
001a6c   5002     movf    0x02, 0x0, 0x0   	MOVF	r0x02, W
001a6e   6ee5     movwf   0xe5, 0x0        	MOVWF	POSTDEC1
001a70   5001     movf    0x01, 0x0, 0x0   	MOVF	r0x01, W
001a72   6ee5     movwf   0xe5, 0x0        	MOVWF	POSTDEC1
001a74   ec24     call    0x004648, 0x0    	CALL	_setAlarmLow
001a76   f023
001a78   52e6     movf    0xe6, 0x1, 0x0   	MOVF	POSTINC1, F
001a7a   52e6     movf    0xe6, 0x1, 0x0   	MOVF	POSTINC1, F
                                           _00141_DS_:
                                           ;	.line	84; stateMachine.c	if (event == EV_ENTER) {
001a7c   5000     movf    0x00, 0x0, 0x0   	MOVF	r0x00, W
001a7e   0a04     xorlw   0x04             	XORLW	0x04
001a80   e105     bnz     0x001a8c         	BNZ	_00143_DS_
                                           ;	.line	85; stateMachine.c	setState(STATE_ALARM_LOW);
001a82   0e02     movlw   0x02             	MOVLW	0x02
001a84   6ee5     movwf   0xe5, 0x0        	MOVWF	POSTDEC1
001a86   eca8     call    0x004d50, 0x0    	CALL	_setState
001a88   f026
001a8a   52e6     movf    0xe6, 0x1, 0x0   	MOVF	POSTINC1, F
                                           _00143_DS_:
                                           ;	.line	87; stateMachine.c	if (event == EV_RESET) {
001a8c   5000     movf    0x00, 0x0, 0x0   	MOVF	r0x00, W
001a8e   0a05     xorlw   0x05             	XORLW	0x05
001a90   e001     bz      0x001a94         	BZ	_00308_DS_
001a92   d0ae     bra     0x001bf0         	BRA	_00179_DS_
                                           _00308_DS_:
                                           ;	.line	88; stateMachine.c	setStateRst(STATE_SET_AL);
001a94   0e03     movlw   0x03             	MOVLW	0x03
001a96   6ee5     movwf   0xe5, 0x0        	MOVWF	POSTDEC1
001a98   ec29     call    0x005052, 0x0    	CALL	_setStateRst
001a9a   f028
001a9c   52e6     movf    0xe6, 0x1, 0x0   	MOVF	POSTINC1, F
                                           ;	.line	89; stateMachine.c	setState(STATE_RST);
001a9e   0e07     movlw   0x07             	MOVLW	0x07
001aa0   6ee5     movwf   0xe5, 0x0        	MOVWF	POSTDEC1
001aa2   eca8     call    0x004d50, 0x0    	CALL	_setState
001aa4   f026
001aa6   52e6     movf    0xe6, 0x1, 0x0   	MOVF	POSTINC1, F
                                           ;	.line	91; stateMachine.c	break;
001aa8   d0a3     bra     0x001bf0         	BRA	_00179_DS_
                                           _00146_DS_:
                                           ;	.line	95; stateMachine.c	if (event == EV_RIGHT) {
001aaa   5000     movf    0x00, 0x0, 0x0   	MOVF	r0x00, W
001aac   0a03     xorlw   0x03             	XORLW	0x03
001aae   e105     bnz     0x001aba         	BNZ	_00148_DS_
                                           ;	.line	96; stateMachine.c	setState(STATE_IDIOM);
001ab0   0e06     movlw   0x06             	MOVLW	0x06
001ab2   6ee5     movwf   0xe5, 0x0        	MOVWF	POSTDEC1
001ab4   eca8     call    0x004d50, 0x0    	CALL	_setState
001ab6   f026
001ab8   52e6     movf    0xe6, 0x1, 0x0   	MOVF	POSTINC1, F
                                           _00148_DS_:
                                           ;	.line	98; stateMachine.c	if (event == EV_LEFT) {
001aba   5000     movf    0x00, 0x0, 0x0   	MOVF	r0x00, W
001abc   0a02     xorlw   0x02             	XORLW	0x02
001abe   e105     bnz     0x001aca         	BNZ	_00150_DS_
                                           ;	.line	99; stateMachine.c	setState(STATE_ALARM_LOW);
001ac0   0e02     movlw   0x02             	MOVLW	0x02
001ac2   6ee5     movwf   0xe5, 0x0        	MOVWF	POSTDEC1
001ac4   eca8     call    0x004d50, 0x0    	CALL	_setState
001ac6   f026
001ac8   52e6     movf    0xe6, 0x1, 0x0   	MOVF	POSTINC1, F
                                           _00150_DS_:
                                           ;	.line	103; stateMachine.c	if (event == EV_ENTER) {
001aca   5000     movf    0x00, 0x0, 0x0   	MOVF	r0x00, W
001acc   0a04     xorlw   0x04             	XORLW	0x04
001ace   e105     bnz     0x001ada         	BNZ	_00152_DS_
                                           ;	.line	104; stateMachine.c	setState(STATE_SET_T);
001ad0   0e05     movlw   0x05             	MOVLW	0x05
001ad2   6ee5     movwf   0xe5, 0x0        	MOVWF	POSTDEC1
001ad4   eca8     call    0x004d50, 0x0    	CALL	_setState
001ad6   f026
001ad8   52e6     movf    0xe6, 0x1, 0x0   	MOVF	POSTINC1, F
                                           _00152_DS_:
                                           ;	.line	106; stateMachine.c	if (event == EV_RESET) {
001ada   5000     movf    0x00, 0x0, 0x0   	MOVF	r0x00, W
001adc   0a05     xorlw   0x05             	XORLW	0x05
001ade   e001     bz      0x001ae2         	BZ	_00316_DS_
001ae0   d087     bra     0x001bf0         	BRA	_00179_DS_
                                           _00316_DS_:
                                           ;	.line	107; stateMachine.c	setStateRst(STATE_TIME);
001ae2   0e04     movlw   0x04             	MOVLW	0x04
001ae4   6ee5     movwf   0xe5, 0x0        	MOVWF	POSTDEC1
001ae6   ec29     call    0x005052, 0x0    	CALL	_setStateRst
001ae8   f028
001aea   52e6     movf    0xe6, 0x1, 0x0   	MOVF	POSTINC1, F
                                           ;	.line	108; stateMachine.c	setState(STATE_RST);
001aec   0e07     movlw   0x07             	MOVLW	0x07
001aee   6ee5     movwf   0xe5, 0x0        	MOVWF	POSTDEC1
001af0   eca8     call    0x004d50, 0x0    	CALL	_setState
001af2   f026
001af4   52e6     movf    0xe6, 0x1, 0x0   	MOVF	POSTINC1, F
                                           ;	.line	110; stateMachine.c	break;    
001af6   d07c     bra     0x001bf0         	BRA	_00179_DS_
                                           _00155_DS_:
                                           ;	.line	113; stateMachine.c	if (event == EV_RIGHT) {
001af8   5000     movf    0x00, 0x0, 0x0   	MOVF	r0x00, W
001afa   0a03     xorlw   0x03             	XORLW	0x03
001afc   e10f     bnz     0x001b1c         	BNZ	_00157_DS_
                                           ;	.line	114; stateMachine.c	setTime(getTime() + 1);
001afe   ec42     call    0x004e84, 0x0    	CALL	_getTime
001b00   f027
001b02   6e01     movwf   0x01, 0x0        	MOVWF	r0x01
001b04   cff3     movff   0xff3, 0x002     	MOVFF	PRODL, r0x02
001b06   f002
001b08   4a01     infsnz  0x01, 0x1, 0x0   	INFSNZ	r0x01, F
001b0a   2a02     incf    0x02, 0x1, 0x0   	INCF	r0x02, F
001b0c   5002     movf    0x02, 0x0, 0x0   	MOVF	r0x02, W
001b0e   6ee5     movwf   0xe5, 0x0        	MOVWF	POSTDEC1
001b10   5001     movf    0x01, 0x0, 0x0   	MOVF	r0x01, W
001b12   6ee5     movwf   0xe5, 0x0        	MOVWF	POSTDEC1
001b14   ec35     call    0x00486a, 0x0    	CALL	_setTime
001b16   f024
001b18   52e6     movf    0xe6, 0x1, 0x0   	MOVF	POSTINC1, F
001b1a   52e6     movf    0xe6, 0x1, 0x0   	MOVF	POSTINC1, F
                                           _00157_DS_:
                                           ;	.line	116; stateMachine.c	if (event == EV_LEFT) {
001b1c   5000     movf    0x00, 0x0, 0x0   	MOVF	r0x00, W
001b1e   0a02     xorlw   0x02             	XORLW	0x02
001b20   e110     bnz     0x001b42         	BNZ	_00159_DS_
                                           ;	.line	117; stateMachine.c	setTime(getTime() - 1);
001b22   ec42     call    0x004e84, 0x0    	CALL	_getTime
001b24   f027
001b26   6e01     movwf   0x01, 0x0        	MOVWF	r0x01
001b28   cff3     movff   0xff3, 0x002     	MOVFF	PRODL, r0x02
001b2a   f002
001b2c   0eff     movlw   0xff             	MOVLW	0xff
001b2e   2601     addwf   0x01, 0x1, 0x0   	ADDWF	r0x01, F
001b30   2202     addwfc  0x02, 0x1, 0x0   	ADDWFC	r0x02, F
001b32   5002     movf    0x02, 0x0, 0x0   	MOVF	r0x02, W
001b34   6ee5     movwf   0xe5, 0x0        	MOVWF	POSTDEC1
001b36   5001     movf    0x01, 0x0, 0x0   	MOVF	r0x01, W
001b38   6ee5     movwf   0xe5, 0x0        	MOVWF	POSTDEC1
001b3a   ec35     call    0x00486a, 0x0    	CALL	_setTime
001b3c   f024
001b3e   52e6     movf    0xe6, 0x1, 0x0   	MOVF	POSTINC1, F
001b40   52e6     movf    0xe6, 0x1, 0x0   	MOVF	POSTINC1, F
                                           _00159_DS_:
                                           ;	.line	121; stateMachine.c	if (event == EV_ENTER) {
001b42   5000     movf    0x00, 0x0, 0x0   	MOVF	r0x00, W
001b44   0a04     xorlw   0x04             	XORLW	0x04
001b46   e105     bnz     0x001b52         	BNZ	_00161_DS_
                                           ;	.line	122; stateMachine.c	setState(STATE_TIME);
001b48   0e04     movlw   0x04             	MOVLW	0x04
001b4a   6ee5     movwf   0xe5, 0x0        	MOVWF	POSTDEC1
001b4c   eca8     call    0x004d50, 0x0    	CALL	_setState
001b4e   f026
001b50   52e6     movf    0xe6, 0x1, 0x0   	MOVF	POSTINC1, F
                                           _00161_DS_:
                                           ;	.line	124; stateMachine.c	if (event == EV_RESET) {
001b52   5000     movf    0x00, 0x0, 0x0   	MOVF	r0x00, W
001b54   0a05     xorlw   0x05             	XORLW	0x05
001b56   e001     bz      0x001b5a         	BZ	_00324_DS_
001b58   d04b     bra     0x001bf0         	BRA	_00179_DS_
                                           _00324_DS_:
                                           ;	.line	125; stateMachine.c	setStateRst(STATE_SET_T);
001b5a   0e05     movlw   0x05             	MOVLW	0x05
001b5c   6ee5     movwf   0xe5, 0x0        	MOVWF	POSTDEC1
001b5e   ec29     call    0x005052, 0x0    	CALL	_setStateRst
001b60   f028
001b62   52e6     movf    0xe6, 0x1, 0x0   	MOVF	POSTINC1, F
                                           ;	.line	126; stateMachine.c	setState(STATE_RST);
001b64   0e07     movlw   0x07             	MOVLW	0x07
001b66   6ee5     movwf   0xe5, 0x0        	MOVWF	POSTDEC1
001b68   eca8     call    0x004d50, 0x0    	CALL	_setState
001b6a   f026
001b6c   52e6     movf    0xe6, 0x1, 0x0   	MOVF	POSTINC1, F
                                           ;	.line	128; stateMachine.c	break;
001b6e   d040     bra     0x001bf0         	BRA	_00179_DS_
                                           _00164_DS_:
                                           ;	.line	132; stateMachine.c	if (event == EV_RIGHT) {
001b70   5000     movf    0x00, 0x0, 0x0   	MOVF	r0x00, W
001b72   0a03     xorlw   0x03             	XORLW	0x03
001b74   e105     bnz     0x001b80         	BNZ	_00166_DS_
                                           ;	.line	133; stateMachine.c	setState(STATE_ALARM_HIGH);
001b76   0e00     movlw   0x00             	MOVLW	0x00
001b78   6ee5     movwf   0xe5, 0x0        	MOVWF	POSTDEC1
001b7a   eca8     call    0x004d50, 0x0    	CALL	_setState
001b7c   f026
001b7e   52e6     movf    0xe6, 0x1, 0x0   	MOVF	POSTINC1, F
                                           _00166_DS_:
                                           ;	.line	135; stateMachine.c	if (event == EV_LEFT) {
001b80   5000     movf    0x00, 0x0, 0x0   	MOVF	r0x00, W
001b82   0a02     xorlw   0x02             	XORLW	0x02
001b84   e105     bnz     0x001b90         	BNZ	_00168_DS_
                                           ;	.line	136; stateMachine.c	setState(STATE_TIME);
001b86   0e04     movlw   0x04             	MOVLW	0x04
001b88   6ee5     movwf   0xe5, 0x0        	MOVWF	POSTDEC1
001b8a   eca8     call    0x004d50, 0x0    	CALL	_setState
001b8c   f026
001b8e   52e6     movf    0xe6, 0x1, 0x0   	MOVF	POSTINC1, F
                                           _00168_DS_:
                                           ;	.line	140; stateMachine.c	if (event == EV_ENTER) {
001b90   5000     movf    0x00, 0x0, 0x0   	MOVF	r0x00, W
001b92   0a04     xorlw   0x04             	XORLW	0x04
001b94   e109     bnz     0x001ba8         	BNZ	_00170_DS_
                                           ;	.line	141; stateMachine.c	setIdiom(getIdiom() + 1);
001b96   ecef     call    0x004dde, 0x0    	CALL	_getIdiom
001b98   f026
001b9a   6e01     movwf   0x01, 0x0        	MOVWF	r0x01
001b9c   2a01     incf    0x01, 0x1, 0x0   	INCF	r0x01, F
001b9e   5001     movf    0x01, 0x0, 0x0   	MOVF	r0x01, W
001ba0   6ee5     movwf   0xe5, 0x0        	MOVWF	POSTDEC1
001ba2   ec5b     call    0x004cb6, 0x0    	CALL	_setIdiom
001ba4   f026
001ba6   52e6     movf    0xe6, 0x1, 0x0   	MOVF	POSTINC1, F
                                           _00170_DS_:
                                           ;	.line	143; stateMachine.c	if (event == EV_RESET) {
001ba8   5000     movf    0x00, 0x0, 0x0   	MOVF	r0x00, W
001baa   0a05     xorlw   0x05             	XORLW	0x05
001bac   e121     bnz     0x001bf0         	BNZ	_00179_DS_
                                           ;	.line	144; stateMachine.c	setStateRst(STATE_IDIOM);
001bae   0e06     movlw   0x06             	MOVLW	0x06
001bb0   6ee5     movwf   0xe5, 0x0        	MOVWF	POSTDEC1
001bb2   ec29     call    0x005052, 0x0    	CALL	_setStateRst
001bb4   f028
001bb6   52e6     movf    0xe6, 0x1, 0x0   	MOVF	POSTINC1, F
                                           ;	.line	145; stateMachine.c	setState(STATE_RST);
001bb8   0e07     movlw   0x07             	MOVLW	0x07
001bba   6ee5     movwf   0xe5, 0x0        	MOVWF	POSTDEC1
001bbc   eca8     call    0x004d50, 0x0    	CALL	_setState
001bbe   f026
001bc0   52e6     movf    0xe6, 0x1, 0x0   	MOVF	POSTINC1, F
                                           ;	.line	147; stateMachine.c	break;      
001bc2   d016     bra     0x001bf0         	BRA	_00179_DS_
                                           _00173_DS_:
                                           ;	.line	151; stateMachine.c	if (event == EV_RIGHT) {
001bc4   5000     movf    0x00, 0x0, 0x0   	MOVF	r0x00, W
001bc6   0a03     xorlw   0x03             	XORLW	0x03
001bc8   e108     bnz     0x001bda         	BNZ	_00175_DS_
                                           ;	.line	152; stateMachine.c	setState(getStateRst());
001bca   ec3c     call    0x005078, 0x0    	CALL	_getStateRst
001bcc   f028
001bce   6e01     movwf   0x01, 0x0        	MOVWF	r0x01
001bd0   5001     movf    0x01, 0x0, 0x0   	MOVF	r0x01, W
001bd2   6ee5     movwf   0xe5, 0x0        	MOVWF	POSTDEC1
001bd4   eca8     call    0x004d50, 0x0    	CALL	_setState
001bd6   f026
001bd8   52e6     movf    0xe6, 0x1, 0x0   	MOVF	POSTINC1, F
                                           _00175_DS_:
                                           ;	.line	154; stateMachine.c	if (event == EV_LEFT) {
001bda   5000     movf    0x00, 0x0, 0x0   	MOVF	r0x00, W
001bdc   0a02     xorlw   0x02             	XORLW	0x02
001bde   e108     bnz     0x001bf0         	BNZ	_00179_DS_
                                           ;	.line	155; stateMachine.c	varInit();
001be0   ece0     call    0x0047c0, 0x0    	CALL	_varInit
001be2   f023
                                           ;	.line	157; stateMachine.c	break;
001be4   d005     bra     0x001bf0         	BRA	_00179_DS_
                                           _00178_DS_:
                                           ;	.line	159; stateMachine.c	default: setState(STATE_ALARM_HIGH);
001be6   0e00     movlw   0x00             	MOVLW	0x00
001be8   6ee5     movwf   0xe5, 0x0        	MOVWF	POSTDEC1
001bea   eca8     call    0x004d50, 0x0    	CALL	_setState
001bec   f026
001bee   52e6     movf    0xe6, 0x1, 0x0   	MOVF	POSTINC1, F
                                           _00179_DS_:
                                           ;	.line	163; stateMachine.c	outputPrint(getState(), getIdiom());
001bf0   ec3e     call    0x004c7c, 0x0    	CALL	_getState
001bf2   f026
001bf4   6e00     movwf   0x00, 0x0        	MOVWF	r0x00
001bf6   6a01     clrf    0x01, 0x0        	CLRF	r0x01
001bf8   ecef     call    0x004dde, 0x0    	CALL	_getIdiom
001bfa   f026
001bfc   6e02     movwf   0x02, 0x0        	MOVWF	r0x02
001bfe   5002     movf    0x02, 0x0, 0x0   	MOVF	r0x02, W
001c00   6ee5     movwf   0xe5, 0x0        	MOVWF	POSTDEC1
001c02   5001     movf    0x01, 0x0, 0x0   	MOVF	r0x01, W
001c04   6ee5     movwf   0xe5, 0x0        	MOVWF	POSTDEC1
001c06   5000     movf    0x00, 0x0, 0x0   	MOVF	r0x00, W
001c08   6ee5     movwf   0xe5, 0x0        	MOVWF	POSTDEC1
001c0a   ec3b     call    0x000a76, 0x0    	CALL	_outputPrint
001c0c   f005
001c0e   0e03     movlw   0x03             	MOVLW	0x03
001c10   26e1     addwf   0xe1, 0x1, 0x0   	ADDWF	FSR1L, F
                                           ;	.line	164; stateMachine.c	outputSerial(getState(), getIdiom());
001c12   ec3e     call    0x004c7c, 0x0    	CALL	_getState
001c14   f026
001c16   6e00     movwf   0x00, 0x0        	MOVWF	r0x00
001c18   6a01     clrf    0x01, 0x0        	CLRF	r0x01
001c1a   ecef     call    0x004dde, 0x0    	CALL	_getIdiom
001c1c   f026
001c1e   6e02     movwf   0x02, 0x0        	MOVWF	r0x02
001c20   5002     movf    0x02, 0x0, 0x0   	MOVF	r0x02, W
001c22   6ee5     movwf   0xe5, 0x0        	MOVWF	POSTDEC1
001c24   5001     movf    0x01, 0x0, 0x0   	MOVF	r0x01, W
001c26   6ee5     movwf   0xe5, 0x0        	MOVWF	POSTDEC1
001c28   5000     movf    0x00, 0x0, 0x0   	MOVF	r0x00, W
001c2a   6ee5     movwf   0xe5, 0x0        	MOVWF	POSTDEC1
001c2c   eccc     call    0x001f98, 0x0    	CALL	_outputSerial
001c2e   f00f
001c30   0e03     movlw   0x03             	MOVLW	0x03
001c32   26e1     addwf   0xe1, 0x1, 0x0   	ADDWF	FSR1L, F
001c34   cfe4     movff   0xfe4, 0x002     	MOVFF	PREINC1, r0x02
001c36   f002
001c38   cfe4     movff   0xfe4, 0x001     	MOVFF	PREINC1, r0x01
001c3a   f001
001c3c   cfe4     movff   0xfe4, 0x000     	MOVFF	PREINC1, r0x00
001c3e   f000
001c40   cfe4     movff   0xfe4, 0xfd9     	MOVFF	PREINC1, FSR2L
001c42   ffd9
001c44   0012     return  0x0              	RETURN	

                                           ; ; Starting pCode block
                                           S_stateMachine__smInit	code
                                           _smInit:
                                           ;	.line	8; stateMachine.c	void smInit(void) {
005022   cfd9     movff   0xfd9, 0xfe5     	MOVFF	FSR2L, POSTDEC1
005024   ffe5
005026   cfe1     movff   0xfe1, 0xfd9     	MOVFF	FSR1L, FSR2L
005028   ffd9
                                           ;	.line	9; stateMachine.c	setState(STATE_TIME);    
00502a   0e04     movlw   0x04             	MOVLW	0x04
00502c   6ee5     movwf   0xe5, 0x0        	MOVWF	POSTDEC1
00502e   eca8     call    0x004d50, 0x0    	CALL	_setState
005030   f026
005032   52e6     movf    0xe6, 0x1, 0x0   	MOVF	POSTINC1, F
005034   cfe4     movff   0xfe4, 0xfd9     	MOVFF	PREINC1, FSR2L
005036   ffd9
005038   0012     return  0x0              	RETURN	



                                           ; Statistics:
                                           ; code size:	  938 (0x03aa) bytes ( 0.72%)
                                           ;           	  469 (0x01d5) words
                                           ; udata size:	    1 (0x0001) bytes ( 0.06%)
                                           ; access size:	    3 (0x0003) bytes


                                           	end
                                           ;--------------------------------------------------------
                                           ; File Created by SDCC : free open source ANSI-C Compiler
                                           ; Version 3.6.0 #9615 (MINGW64)
                                           ;--------------------------------------------------------
                                           ; PIC16 port for the Microchip 16-bit core micros
                                           ;--------------------------------------------------------
                                           	list	p=18f4550
                                           	radix	dec


                                           ;--------------------------------------------------------
                                           ; public variables in this module
                                           ;--------------------------------------------------------
                                           	global	_varInit
                                           	global	_getState
                                           	global	_setState
                                           	global	_getStateRst
                                           	global	_setStateRst
                                           	global	_getTime
                                           	global	_setTime
                                           	global	_getAlarmLow
                                           	global	_setAlarmLow
                                           	global	_getAlarmHigh
                                           	global	_setAlarmHigh
                                           	global	_getIdiom
                                           	global	_setIdiom

                                           ;--------------------------------------------------------
                                           ; extern variables in this module
                                           ;--------------------------------------------------------
                                           	extern	__moduchar
                                           	extern	_rtcInit
                                           	extern	_rtcStore
                                           	extern	_rtcStoreInt
                                           	extern	_rtcRead
                                           	extern	_rtcReadInt

                                           ;--------------------------------------------------------
                                           ;	Equates to used internal registers
                                           ;--------------------------------------------------------
                                           STATUS	equ	0xfd8
                                           WREG	equ	0xfe8
                                           FSR1L	equ	0xfe1
                                           FSR2L	equ	0xfd9
                                           POSTINC1	equ	0xfe6
                                           POSTDEC1	equ	0xfe5
                                           PREINC1	equ	0xfe4
                                           PLUSW2	equ	0xfdb
                                           PRODL	equ	0xff3


                                           ; Internal registers
                                           .registers	udata_ovr	0x0000
                                           r0x00	res	1
                                           r0x01	res	1

                                           udata_var_0	udata
                                           _state	res	1

                                           udata_var_1	udata
                                           _stateRst	res	1

                                           udata_var_2	udata
                                           _idiom	res	1

                                           udata_var_3	udata
                                           _time	res	2

                                           udata_var_4	udata
                                           _alarmLow	res	2

                                           udata_var_5	udata
                                           _alarmHigh	res	2

                                           ;--------------------------------------------------------
                                           ; global & static initialisations
                                           ;--------------------------------------------------------
                                           ; I code from now on!
                                           ; ; Starting pCode block
                                           S_var__setIdiom	code
                                           _setIdiom:
                                           ;	.line	80; var.c	void setIdiom(char newIdiom){
004cb6   cfd9     movff   0xfd9, 0xfe5     	MOVFF	FSR2L, POSTDEC1
004cb8   ffe5
004cba   cfe1     movff   0xfe1, 0xfd9     	MOVFF	FSR1L, FSR2L
004cbc   ffd9
004cbe   c000     movff   0x000, 0xfe5     	MOVFF	r0x00, POSTDEC1
004cc0   ffe5
004cc2   0e02     movlw   0x02             	MOVLW	0x02
004cc4   cfdb     movff   0xfdb, 0x000     	MOVFF	PLUSW2, r0x00
004cc6   f000
                                           ;	.line	83; var.c	idiom = newIdiom%2; 
004cc8   0e01     movlw   0x01             	MOVLW	0x01
004cca   1400     andwf   0x00, 0x0, 0x0   	ANDWF	r0x00, W
004ccc   0100     movlb   0x0              	BANKSEL	_idiom
004cce   6fee     movwf   0xee, 0x1        	MOVWF	_idiom, B
004cd0   0100     movlb   0x0              	BANKSEL	_idiom
                                           ;	.line	84; var.c	rtcStore(ADDRESS_IDIOM, idiom);
004cd2   51ee     movf    0xee, 0x0, 0x1   	MOVF	_idiom, W, B
004cd4   6ee5     movwf   0xe5, 0x0        	MOVWF	POSTDEC1
004cd6   0e8a     movlw   0x8a             	MOVLW	0x8a
004cd8   6ee5     movwf   0xe5, 0x0        	MOVWF	POSTDEC1
004cda   ec5e     call    0x0048bc, 0x0    	CALL	_rtcStore
004cdc   f024
004cde   52e6     movf    0xe6, 0x1, 0x0   	MOVF	POSTINC1, F
004ce0   52e6     movf    0xe6, 0x1, 0x0   	MOVF	POSTINC1, F
004ce2   cfe4     movff   0xfe4, 0x000     	MOVFF	PREINC1, r0x00
004ce4   f000
004ce6   cfe4     movff   0xfe4, 0xfd9     	MOVFF	PREINC1, FSR2L
004ce8   ffd9
004cea   0012     return  0x0              	RETURN	

                                           ; ; Starting pCode block
                                           S_var__getIdiom	code
                                           _getIdiom:
                                           ;	.line	76; var.c	char getIdiom(void){
004dde   cfd9     movff   0xfd9, 0xfe5     	MOVFF	FSR2L, POSTDEC1
004de0   ffe5
004de2   cfe1     movff   0xfe1, 0xfd9     	MOVFF	FSR1L, FSR2L
004de4   ffd9
004de6   c000     movff   0x000, 0xfe5     	MOVFF	r0x00, POSTDEC1
004de8   ffe5
                                           ;	.line	77; var.c	idiom = rtcRead(ADDRESS_IDIOM)%2;
004dea   0e8a     movlw   0x8a             	MOVLW	0x8a
004dec   6ee5     movwf   0xe5, 0x0        	MOVWF	POSTDEC1
004dee   ecae     call    0x00495c, 0x0    	CALL	_rtcRead
004df0   f024
004df2   6e00     movwf   0x00, 0x0        	MOVWF	r0x00
004df4   52e6     movf    0xe6, 0x1, 0x0   	MOVF	POSTINC1, F
004df6   0e01     movlw   0x01             	MOVLW	0x01
004df8   1400     andwf   0x00, 0x0, 0x0   	ANDWF	r0x00, W
004dfa   0100     movlb   0x0              	BANKSEL	_idiom
004dfc   6fee     movwf   0xee, 0x1        	MOVWF	_idiom, B
004dfe   0100     movlb   0x0              	BANKSEL	_idiom
                                           ;	.line	78; var.c	return idiom;
004e00   51ee     movf    0xee, 0x0, 0x1   	MOVF	_idiom, W, B
004e02   cfe4     movff   0xfe4, 0x000     	MOVFF	PREINC1, r0x00
004e04   f000
004e06   cfe4     movff   0xfe4, 0xfd9     	MOVFF	PREINC1, FSR2L
004e08   ffd9
004e0a   0012     return  0x0              	RETURN	

                                           ; ; Starting pCode block
                                           S_var__setAlarmHigh	code
                                           _setAlarmHigh:
                                           ;	.line	69; var.c	void setAlarmHigh(int newAlarmHigh) {
0045e6   cfd9     movff   0xfd9, 0xfe5     	MOVFF	FSR2L, POSTDEC1
0045e8   ffe5
0045ea   cfe1     movff   0xfe1, 0xfd9     	MOVFF	FSR1L, FSR2L
0045ec   ffd9
0045ee   c000     movff   0x000, 0xfe5     	MOVFF	r0x00, POSTDEC1
0045f0   ffe5
0045f2   c001     movff   0x001, 0xfe5     	MOVFF	r0x01, POSTDEC1
0045f4   ffe5
0045f6   0e02     movlw   0x02             	MOVLW	0x02
0045f8   cfdb     movff   0xfdb, 0x000     	MOVFF	PLUSW2, r0x00
0045fa   f000
0045fc   0e03     movlw   0x03             	MOVLW	0x03
0045fe   cfdb     movff   0xfdb, 0x001     	MOVFF	PLUSW2, r0x01
004600   f001
                                           ;	.line	70; var.c	if(newAlarmHigh >= alarmLow) {
004602   5001     movf    0x01, 0x0, 0x0   	MOVF	r0x01, W
004604   0f80     addlw   0x80             	ADDLW	0x80
004606   6ef3     movwf   0xf3, 0x0        	MOVWF	PRODL
004608   0100     movlb   0x0              	BANKSEL	(_alarmLow + 1)
00460a   51e0     movf    0xe0, 0x0, 0x1   	MOVF	(_alarmLow + 1), W, B
00460c   0f80     addlw   0x80             	ADDLW	0x80
00460e   5cf3     subwf   0xf3, 0x0, 0x0   	SUBWF	PRODL, W
004610   e103     bnz     0x004618         	BNZ	_00171_DS_
004612   0100     movlb   0x0              	BANKSEL	_alarmLow
004614   51df     movf    0xdf, 0x0, 0x1   	MOVF	_alarmLow, W, B
004616   5c00     subwf   0x00, 0x0, 0x0   	SUBWF	r0x00, W
                                           _00171_DS_:
004618   e310     bnc     0x00463a         	BNC	_00166_DS_
                                           ;	.line	71; var.c	alarmHigh = newAlarmHigh;
00461a   c000     movff   0x000, 0x0e1     	MOVFF	r0x00, _alarmHigh
00461c   f0e1
00461e   c001     movff   0x001, 0x0e2     	MOVFF	r0x01, (_alarmHigh + 1)
004620   f0e2
004622   0100     movlb   0x0              	BANKSEL	(_alarmHigh + 1)
                                           ;	.line	72; var.c	rtcStoreInt(ADDRESS_AH, alarmHigh);	
004624   51e2     movf    0xe2, 0x0, 0x1   	MOVF	(_alarmHigh + 1), W, B
004626   6ee5     movwf   0xe5, 0x0        	MOVWF	POSTDEC1
004628   0100     movlb   0x0              	BANKSEL	_alarmHigh
00462a   51e1     movf    0xe1, 0x0, 0x1   	MOVF	_alarmHigh, W, B
00462c   6ee5     movwf   0xe5, 0x0        	MOVWF	POSTDEC1
00462e   0ebc     movlw   0xbc             	MOVLW	0xbc
004630   6ee5     movwf   0xe5, 0x0        	MOVWF	POSTDEC1
004632   ec67     call    0x0042ce, 0x0    	CALL	_rtcStoreInt
004634   f021
004636   0e03     movlw   0x03             	MOVLW	0x03
004638   26e1     addwf   0xe1, 0x1, 0x0   	ADDWF	FSR1L, F
                                           _00166_DS_:
00463a   cfe4     movff   0xfe4, 0x001     	MOVFF	PREINC1, r0x01
00463c   f001
00463e   cfe4     movff   0xfe4, 0x000     	MOVFF	PREINC1, r0x00
004640   f000
004642   cfe4     movff   0xfe4, 0xfd9     	MOVFF	PREINC1, FSR2L
004644   ffd9
004646   0012     return  0x0              	RETURN	

                                           ; ; Starting pCode block
                                           S_var__getAlarmHigh	code
                                           _getAlarmHigh:
                                           ;	.line	64; var.c	int getAlarmHigh(void) {
004e34   cfd9     movff   0xfd9, 0xfe5     	MOVFF	FSR2L, POSTDEC1
004e36   ffe5
004e38   cfe1     movff   0xfe1, 0xfd9     	MOVFF	FSR1L, FSR2L
004e3a   ffd9
                                           ;	.line	65; var.c	alarmHigh = rtcReadInt(ADDRESS_AH);
004e3c   0ebc     movlw   0xbc             	MOVLW	0xbc
004e3e   6ee5     movwf   0xe5, 0x0        	MOVWF	POSTDEC1
004e40   eca5     call    0x00434a, 0x0    	CALL	_rtcReadInt
004e42   f021
004e44   0100     movlb   0x0              	BANKSEL	_alarmHigh
004e46   6fe1     movwf   0xe1, 0x1        	MOVWF	_alarmHigh, B
004e48   cff3     movff   0xff3, 0x0e2     	MOVFF	PRODL, (_alarmHigh + 1)
004e4a   f0e2
004e4c   52e6     movf    0xe6, 0x1, 0x0   	MOVF	POSTINC1, F
                                           ;	.line	66; var.c	return alarmHigh;
004e4e   c0e2     movff   0x0e2, 0xff3     	MOVFF	(_alarmHigh + 1), PRODL
004e50   fff3
004e52   0100     movlb   0x0              	BANKSEL	_alarmHigh
004e54   51e1     movf    0xe1, 0x0, 0x1   	MOVF	_alarmHigh, W, B
004e56   cfe4     movff   0xfe4, 0xfd9     	MOVFF	PREINC1, FSR2L
004e58   ffd9
004e5a   0012     return  0x0              	RETURN	

                                           ; ; Starting pCode block
                                           S_var__setAlarmLow	code
                                           _setAlarmLow:
                                           ;	.line	58; var.c	void setAlarmLow(int newAlarmLow) {
004648   cfd9     movff   0xfd9, 0xfe5     	MOVFF	FSR2L, POSTDEC1
00464a   ffe5
00464c   cfe1     movff   0xfe1, 0xfd9     	MOVFF	FSR1L, FSR2L
00464e   ffd9
004650   c000     movff   0x000, 0xfe5     	MOVFF	r0x00, POSTDEC1
004652   ffe5
004654   c001     movff   0x001, 0xfe5     	MOVFF	r0x01, POSTDEC1
004656   ffe5
004658   0e02     movlw   0x02             	MOVLW	0x02
00465a   cfdb     movff   0xfdb, 0x000     	MOVFF	PLUSW2, r0x00
00465c   f000
00465e   0e03     movlw   0x03             	MOVLW	0x03
004660   cfdb     movff   0xfdb, 0x001     	MOVFF	PLUSW2, r0x01
004662   f001
004664   0100     movlb   0x0              	BANKSEL	(_alarmHigh + 1)
                                           ;	.line	59; var.c	if(newAlarmLow <= alarmHigh) {
004666   51e2     movf    0xe2, 0x0, 0x1   	MOVF	(_alarmHigh + 1), W, B
004668   0f80     addlw   0x80             	ADDLW	0x80
00466a   6ef3     movwf   0xf3, 0x0        	MOVWF	PRODL
00466c   5001     movf    0x01, 0x0, 0x0   	MOVF	r0x01, W
00466e   0f80     addlw   0x80             	ADDLW	0x80
004670   5cf3     subwf   0xf3, 0x0, 0x0   	SUBWF	PRODL, W
004672   e103     bnz     0x00467a         	BNZ	_00154_DS_
004674   5000     movf    0x00, 0x0, 0x0   	MOVF	r0x00, W
004676   0100     movlb   0x0              	BANKSEL	_alarmHigh
004678   5de1     subwf   0xe1, 0x0, 0x1   	SUBWF	_alarmHigh, W, B
                                           _00154_DS_:
00467a   e310     bnc     0x00469c         	BNC	_00149_DS_
                                           ;	.line	60; var.c	alarmLow = newAlarmLow;
00467c   c000     movff   0x000, 0x0df     	MOVFF	r0x00, _alarmLow
00467e   f0df
004680   c001     movff   0x001, 0x0e0     	MOVFF	r0x01, (_alarmLow + 1)
004682   f0e0
004684   0100     movlb   0x0              	BANKSEL	(_alarmLow + 1)
                                           ;	.line	61; var.c	rtcStoreInt(ADDRESS_AL, alarmLow);	
004686   51e0     movf    0xe0, 0x0, 0x1   	MOVF	(_alarmLow + 1), W, B
004688   6ee5     movwf   0xe5, 0x0        	MOVWF	POSTDEC1
00468a   0100     movlb   0x0              	BANKSEL	_alarmLow
00468c   51df     movf    0xdf, 0x0, 0x1   	MOVF	_alarmLow, W, B
00468e   6ee5     movwf   0xe5, 0x0        	MOVWF	POSTDEC1
004690   0e58     movlw   0x58             	MOVLW	0x58
004692   6ee5     movwf   0xe5, 0x0        	MOVWF	POSTDEC1
004694   ec67     call    0x0042ce, 0x0    	CALL	_rtcStoreInt
004696   f021
004698   0e03     movlw   0x03             	MOVLW	0x03
00469a   26e1     addwf   0xe1, 0x1, 0x0   	ADDWF	FSR1L, F
                                           _00149_DS_:
00469c   cfe4     movff   0xfe4, 0x001     	MOVFF	PREINC1, r0x01
00469e   f001
0046a0   cfe4     movff   0xfe4, 0x000     	MOVFF	PREINC1, r0x00
0046a2   f000
0046a4   cfe4     movff   0xfe4, 0xfd9     	MOVFF	PREINC1, FSR2L
0046a6   ffd9
0046a8   0012     return  0x0              	RETURN	

                                           ; ; Starting pCode block
                                           S_var__getAlarmLow	code
                                           _getAlarmLow:
                                           ;	.line	54; var.c	int getAlarmLow(void) {
004e5c   cfd9     movff   0xfd9, 0xfe5     	MOVFF	FSR2L, POSTDEC1
004e5e   ffe5
004e60   cfe1     movff   0xfe1, 0xfd9     	MOVFF	FSR1L, FSR2L
004e62   ffd9
                                           ;	.line	55; var.c	alarmLow = rtcReadInt(ADDRESS_AL);
004e64   0e58     movlw   0x58             	MOVLW	0x58
004e66   6ee5     movwf   0xe5, 0x0        	MOVWF	POSTDEC1
004e68   eca5     call    0x00434a, 0x0    	CALL	_rtcReadInt
004e6a   f021
004e6c   0100     movlb   0x0              	BANKSEL	_alarmLow
004e6e   6fdf     movwf   0xdf, 0x1        	MOVWF	_alarmLow, B
004e70   cff3     movff   0xff3, 0x0e0     	MOVFF	PRODL, (_alarmLow + 1)
004e72   f0e0
004e74   52e6     movf    0xe6, 0x1, 0x0   	MOVF	POSTINC1, F
                                           ;	.line	56; var.c	return alarmLow;
004e76   c0e0     movff   0x0e0, 0xff3     	MOVFF	(_alarmLow + 1), PRODL
004e78   fff3
004e7a   0100     movlb   0x0              	BANKSEL	_alarmLow
004e7c   51df     movf    0xdf, 0x0, 0x1   	MOVF	_alarmLow, W, B
004e7e   cfe4     movff   0xfe4, 0xfd9     	MOVFF	PREINC1, FSR2L
004e80   ffd9
004e82   0012     return  0x0              	RETURN	

                                           ; ; Starting pCode block
                                           S_var__setTime	code
                                           _setTime:
                                           ;	.line	46; var.c	void setTime(int newTime) {
00486a   cfd9     movff   0xfd9, 0xfe5     	MOVFF	FSR2L, POSTDEC1
00486c   ffe5
00486e   cfe1     movff   0xfe1, 0xfd9     	MOVFF	FSR1L, FSR2L
004870   ffd9
004872   c000     movff   0x000, 0xfe5     	MOVFF	r0x00, POSTDEC1
004874   ffe5
004876   c001     movff   0x001, 0xfe5     	MOVFF	r0x01, POSTDEC1
004878   ffe5
00487a   0e02     movlw   0x02             	MOVLW	0x02
00487c   cfdb     movff   0xfdb, 0x000     	MOVFF	PLUSW2, r0x00
00487e   f000
004880   0e03     movlw   0x03             	MOVLW	0x03
004882   cfdb     movff   0xfdb, 0x001     	MOVFF	PLUSW2, r0x01
004884   f001
                                           ;	.line	47; var.c	if((newTime)>=0){
004886   80d8     bsf     0xd8, 0x0, 0x0   	BSF	STATUS, 0
004888   ae01     btfss   0x01, 0x7, 0x0   	BTFSS	r0x01, 7
00488a   90d8     bcf     0xd8, 0x0, 0x0   	BCF	STATUS, 0
00488c   e210     bc      0x0048ae         	BC	_00137_DS_
                                           ;	.line	48; var.c	time = newTime; 
00488e   c000     movff   0x000, 0x0dd     	MOVFF	r0x00, _time
004890   f0dd
004892   c001     movff   0x001, 0x0de     	MOVFF	r0x01, (_time + 1)
004894   f0de
004896   0100     movlb   0x0              	BANKSEL	(_time + 1)
                                           ;	.line	49; var.c	rtcStoreInt(ADDRESS_TIME, time);	
004898   51de     movf    0xde, 0x0, 0x1   	MOVF	(_time + 1), W, B
00489a   6ee5     movwf   0xe5, 0x0        	MOVWF	POSTDEC1
00489c   0100     movlb   0x0              	BANKSEL	_time
00489e   51dd     movf    0xdd, 0x0, 0x1   	MOVF	_time, W, B
0048a0   6ee5     movwf   0xe5, 0x0        	MOVWF	POSTDEC1
0048a2   0ef4     movlw   0xf4             	MOVLW	0xf4
0048a4   6ee5     movwf   0xe5, 0x0        	MOVWF	POSTDEC1
0048a6   ec67     call    0x0042ce, 0x0    	CALL	_rtcStoreInt
0048a8   f021
0048aa   0e03     movlw   0x03             	MOVLW	0x03
0048ac   26e1     addwf   0xe1, 0x1, 0x0   	ADDWF	FSR1L, F
                                           _00137_DS_:
0048ae   cfe4     movff   0xfe4, 0x001     	MOVFF	PREINC1, r0x01
0048b0   f001
0048b2   cfe4     movff   0xfe4, 0x000     	MOVFF	PREINC1, r0x00
0048b4   f000
0048b6   cfe4     movff   0xfe4, 0xfd9     	MOVFF	PREINC1, FSR2L
0048b8   ffd9
0048ba   0012     return  0x0              	RETURN	

                                           ; ; Starting pCode block
                                           S_var__getTime	code
                                           _getTime:
                                           ;	.line	42; var.c	int getTime(void) {      
004e84   cfd9     movff   0xfd9, 0xfe5     	MOVFF	FSR2L, POSTDEC1
004e86   ffe5
004e88   cfe1     movff   0xfe1, 0xfd9     	MOVFF	FSR1L, FSR2L
004e8a   ffd9
                                           ;	.line	43; var.c	time = rtcReadInt(ADDRESS_TIME);	
004e8c   0ef4     movlw   0xf4             	MOVLW	0xf4
004e8e   6ee5     movwf   0xe5, 0x0        	MOVWF	POSTDEC1
004e90   eca5     call    0x00434a, 0x0    	CALL	_rtcReadInt
004e92   f021
004e94   0100     movlb   0x0              	BANKSEL	_time
004e96   6fdd     movwf   0xdd, 0x1        	MOVWF	_time, B
004e98   cff3     movff   0xff3, 0x0de     	MOVFF	PRODL, (_time + 1)
004e9a   f0de
004e9c   52e6     movf    0xe6, 0x1, 0x0   	MOVF	POSTINC1, F
                                           ;	.line	44; var.c	return time;
004e9e   c0de     movff   0x0de, 0xff3     	MOVFF	(_time + 1), PRODL
004ea0   fff3
004ea2   0100     movlb   0x0              	BANKSEL	_time
004ea4   51dd     movf    0xdd, 0x0, 0x1   	MOVF	_time, W, B
004ea6   cfe4     movff   0xfe4, 0xfd9     	MOVFF	PREINC1, FSR2L
004ea8   ffd9
004eaa   0012     return  0x0              	RETURN	

                                           ; ; Starting pCode block
                                           S_var__setStateRst	code
                                           _setStateRst:
                                           ;	.line	38; var.c	void setStateRst(char newStateRst) {
005052   cfd9     movff   0xfd9, 0xfe5     	MOVFF	FSR2L, POSTDEC1
005054   ffe5
005056   cfe1     movff   0xfe1, 0xfd9     	MOVFF	FSR1L, FSR2L
005058   ffd9
00505a   0e02     movlw   0x02             	MOVLW	0x02
00505c   cfdb     movff   0xfdb, 0x0ed     	MOVFF	PLUSW2, _stateRst
00505e   f0ed
                                           ;	.line	39; var.c	stateRst = newStateRst;
005060   cfe4     movff   0xfe4, 0xfd9     	MOVFF	PREINC1, FSR2L
005062   ffd9
005064   0012     return  0x0              	RETURN	

                                           ; ; Starting pCode block
                                           S_var__getStateRst	code
                                           _getStateRst:
                                           ;	.line	35; var.c	char getStateRst(void) {
005078   cfd9     movff   0xfd9, 0xfe5     	MOVFF	FSR2L, POSTDEC1
00507a   ffe5
00507c   cfe1     movff   0xfe1, 0xfd9     	MOVFF	FSR1L, FSR2L
00507e   ffd9
005080   0100     movlb   0x0              	BANKSEL	_stateRst
                                           ;	.line	36; var.c	return stateRst;
005082   51ed     movf    0xed, 0x0, 0x1   	MOVF	_stateRst, W, B
005084   cfe4     movff   0xfe4, 0xfd9     	MOVFF	PREINC1, FSR2L
005086   ffd9
005088   0012     return  0x0              	RETURN	

                                           ; ; Starting pCode block
                                           S_var__setState	code
                                           _setState:
                                           ;	.line	31; var.c	void setState(char newState) {   
004d50   cfd9     movff   0xfd9, 0xfe5     	MOVFF	FSR2L, POSTDEC1
004d52   ffe5
004d54   cfe1     movff   0xfe1, 0xfd9     	MOVFF	FSR1L, FSR2L
004d56   ffd9
004d58   c000     movff   0x000, 0xfe5     	MOVFF	r0x00, POSTDEC1
004d5a   ffe5
004d5c   0e02     movlw   0x02             	MOVLW	0x02
004d5e   cfdb     movff   0xfdb, 0x000     	MOVFF	PLUSW2, r0x00
004d60   f000
                                           ;	.line	32; var.c	rtcStore(ADDRESS_STATE , newState);
004d62   5000     movf    0x00, 0x0, 0x0   	MOVF	r0x00, W
004d64   6ee5     movwf   0xe5, 0x0        	MOVWF	POSTDEC1
004d66   0e90     movlw   0x90             	MOVLW	0x90
004d68   6ee5     movwf   0xe5, 0x0        	MOVWF	POSTDEC1
004d6a   ec5e     call    0x0048bc, 0x0    	CALL	_rtcStore
004d6c   f024
004d6e   52e6     movf    0xe6, 0x1, 0x0   	MOVF	POSTINC1, F
004d70   52e6     movf    0xe6, 0x1, 0x0   	MOVF	POSTINC1, F
                                           ;	.line	33; var.c	state = newState;	
004d72   c000     movff   0x000, 0x0ec     	MOVFF	r0x00, _state
004d74   f0ec
004d76   cfe4     movff   0xfe4, 0x000     	MOVFF	PREINC1, r0x00
004d78   f000
004d7a   cfe4     movff   0xfe4, 0xfd9     	MOVFF	PREINC1, FSR2L
004d7c   ffd9
004d7e   0012     return  0x0              	RETURN	

                                           ; ; Starting pCode block
                                           S_var__getState	code
                                           _getState:
                                           ;	.line	27; var.c	char getState(void) {    
004c7c   cfd9     movff   0xfd9, 0xfe5     	MOVFF	FSR2L, POSTDEC1
004c7e   ffe5
004c80   cfe1     movff   0xfe1, 0xfd9     	MOVFF	FSR1L, FSR2L
004c82   ffd9
004c84   c000     movff   0x000, 0xfe5     	MOVFF	r0x00, POSTDEC1
004c86   ffe5
                                           ;	.line	28; var.c	state = rtcRead(ADDRESS_STATE )%9;	
004c88   0e90     movlw   0x90             	MOVLW	0x90
004c8a   6ee5     movwf   0xe5, 0x0        	MOVWF	POSTDEC1
004c8c   ecae     call    0x00495c, 0x0    	CALL	_rtcRead
004c8e   f024
004c90   6e00     movwf   0x00, 0x0        	MOVWF	r0x00
004c92   52e6     movf    0xe6, 0x1, 0x0   	MOVF	POSTINC1, F
004c94   0e09     movlw   0x09             	MOVLW	0x09
004c96   6ee5     movwf   0xe5, 0x0        	MOVWF	POSTDEC1
004c98   c000     movff   0x000, 0xfe5     	MOVFF	r0x00, POSTDEC1
004c9a   ffe5
004c9c   ec1b     call    0x004436, 0x0    	CALL	__moduchar
004c9e   f022
004ca0   0100     movlb   0x0              	BANKSEL	_state
004ca2   6fec     movwf   0xec, 0x1        	MOVWF	_state, B
004ca4   50e4     movf    0xe4, 0x0, 0x0   	MOVF	PREINC1, W
004ca6   50e4     movf    0xe4, 0x0, 0x0   	MOVF	PREINC1, W
004ca8   0100     movlb   0x0              	BANKSEL	_state
                                           ;	.line	29; var.c	return state;
004caa   51ec     movf    0xec, 0x0, 0x1   	MOVF	_state, W, B
004cac   cfe4     movff   0xfe4, 0x000     	MOVFF	PREINC1, r0x00
004cae   f000
004cb0   cfe4     movff   0xfe4, 0xfd9     	MOVFF	PREINC1, FSR2L
004cb2   ffd9
004cb4   0012     return  0x0              	RETURN	

                                           ; ; Starting pCode block
                                           S_var__varInit	code
                                           _varInit:
                                           ;	.line	18; var.c	void varInit(void) {
0047c0   cfd9     movff   0xfd9, 0xfe5     	MOVFF	FSR2L, POSTDEC1
0047c2   ffe5
0047c4   cfe1     movff   0xfe1, 0xfd9     	MOVFF	FSR1L, FSR2L
0047c6   ffd9
                                           ;	.line	19; var.c	rtcInit();
0047c8   ec33     call    0x005066, 0x0    	CALL	_rtcInit
0047ca   f028
                                           ;	.line	20; var.c	setState(0);    
0047cc   0e00     movlw   0x00             	MOVLW	0x00
0047ce   6ee5     movwf   0xe5, 0x0        	MOVWF	POSTDEC1
0047d0   eca8     call    0x004d50, 0x0    	CALL	_setState
0047d2   f026
0047d4   52e6     movf    0xe6, 0x1, 0x0   	MOVF	POSTINC1, F
                                           ;	.line	21; var.c	setIdiom(0);
0047d6   0e00     movlw   0x00             	MOVLW	0x00
0047d8   6ee5     movwf   0xe5, 0x0        	MOVWF	POSTDEC1
0047da   ec5b     call    0x004cb6, 0x0    	CALL	_setIdiom
0047dc   f026
0047de   52e6     movf    0xe6, 0x1, 0x0   	MOVF	POSTINC1, F
                                           ;	.line	22; var.c	setTime(1000);
0047e0   0e03     movlw   0x03             	MOVLW	0x03
0047e2   6ee5     movwf   0xe5, 0x0        	MOVWF	POSTDEC1
0047e4   0ee8     movlw   0xe8             	MOVLW	0xe8
0047e6   6ee5     movwf   0xe5, 0x0        	MOVWF	POSTDEC1
0047e8   ec35     call    0x00486a, 0x0    	CALL	_setTime
0047ea   f024
0047ec   52e6     movf    0xe6, 0x1, 0x0   	MOVF	POSTINC1, F
0047ee   52e6     movf    0xe6, 0x1, 0x0   	MOVF	POSTINC1, F
                                           ;	.line	23; var.c	setAlarmLow(512);
0047f0   0e02     movlw   0x02             	MOVLW	0x02
0047f2   6ee5     movwf   0xe5, 0x0        	MOVWF	POSTDEC1
0047f4   0e00     movlw   0x00             	MOVLW	0x00
0047f6   6ee5     movwf   0xe5, 0x0        	MOVWF	POSTDEC1
0047f8   ec24     call    0x004648, 0x0    	CALL	_setAlarmLow
0047fa   f023
0047fc   52e6     movf    0xe6, 0x1, 0x0   	MOVF	POSTINC1, F
0047fe   52e6     movf    0xe6, 0x1, 0x0   	MOVF	POSTINC1, F
                                           ;	.line	24; var.c	setAlarmHigh(512);
004800   0e02     movlw   0x02             	MOVLW	0x02
004802   6ee5     movwf   0xe5, 0x0        	MOVWF	POSTDEC1
004804   0e00     movlw   0x00             	MOVLW	0x00
004806   6ee5     movwf   0xe5, 0x0        	MOVWF	POSTDEC1
004808   ecf3     call    0x0045e6, 0x0    	CALL	_setAlarmHigh
00480a   f022
00480c   52e6     movf    0xe6, 0x1, 0x0   	MOVF	POSTINC1, F
00480e   52e6     movf    0xe6, 0x1, 0x0   	MOVF	POSTINC1, F
004810   cfe4     movff   0xfe4, 0xfd9     	MOVFF	PREINC1, FSR2L
004812   ffd9
004814   0012     return  0x0              	RETURN	



                                           ; Statistics:
                                           ; code size:	  728 (0x02d8) bytes ( 0.56%)
                                           ;           	  364 (0x016c) words
                                           ; udata size:	    9 (0x0009) bytes ( 0.50%)
                                           ; access size:	    2 (0x0002) bytes


                                           	end
                                           ;--------------------------------------------------------
                                           ; File Created by SDCC : free open source ANSI-C Compiler
                                           ; Version 3.6.0 #9615 (MINGW64)
                                           ;--------------------------------------------------------
                                           ; PIC16 port for the Microchip 16-bit core micros
                                           ;--------------------------------------------------------
                                           	list	p=18f4550
                                           	radix	dec


                                           ;--------------------------------------------------------
                                           ; public variables in this module
                                           ;--------------------------------------------------------
                                           	global	_eventInit
                                           	global	_eventRead

                                           ;--------------------------------------------------------
                                           ; extern variables in this module
                                           ;--------------------------------------------------------
                                           	extern	_kpRead
                                           	extern	_kpInit
                                           	extern	_serialInit
                                           	extern	_serialProtocol

                                           ;--------------------------------------------------------
                                           ;	Equates to used internal registers
                                           ;--------------------------------------------------------
                                           STATUS	equ	0xfd8
                                           WREG	equ	0xfe8
                                           FSR1L	equ	0xfe1
                                           FSR2L	equ	0xfd9
                                           POSTDEC1	equ	0xfe5
                                           PREINC1	equ	0xfe4
                                           PRODL	equ	0xff3


                                           ; Internal registers
                                           .registers	udata_ovr	0x0000
                                           r0x00	res	1
                                           r0x01	res	1
                                           r0x02	res	1
                                           r0x03	res	1
                                           r0x04	res	1
                                           r0x05	res	1
                                           r0x06	res	1
                                           r0x07	res	1

                                           udata_event_0	udata
                                           _key_ant	res	1

                                           ;--------------------------------------------------------
                                           ; global & static initialisations
                                           ;--------------------------------------------------------
                                           ; I code from now on!
                                           ; ; Starting pCode block
                                           S_event__eventRead	code
                                           _eventRead:
                                           ;	.line	14; event.c	unsigned int eventRead(void) {
003388   cfd9     movff   0xfd9, 0xfe5     	MOVFF	FSR2L, POSTDEC1
00338a   ffe5
00338c   cfe1     movff   0xfe1, 0xfd9     	MOVFF	FSR1L, FSR2L
00338e   ffd9
003390   c000     movff   0x000, 0xfe5     	MOVFF	r0x00, POSTDEC1
003392   ffe5
003394   c001     movff   0x001, 0xfe5     	MOVFF	r0x01, POSTDEC1
003396   ffe5
003398   c002     movff   0x002, 0xfe5     	MOVFF	r0x02, POSTDEC1
00339a   ffe5
00339c   c003     movff   0x003, 0xfe5     	MOVFF	r0x03, POSTDEC1
00339e   ffe5
0033a0   c004     movff   0x004, 0xfe5     	MOVFF	r0x04, POSTDEC1
0033a2   ffe5
0033a4   c005     movff   0x005, 0xfe5     	MOVFF	r0x05, POSTDEC1
0033a6   ffe5
0033a8   c006     movff   0x006, 0xfe5     	MOVFF	r0x06, POSTDEC1
0033aa   ffe5
0033ac   c007     movff   0x007, 0xfe5     	MOVFF	r0x07, POSTDEC1
0033ae   ffe5
                                           ;	.line	16; event.c	int ev = EV_NOEVENT;
0033b0   0e06     movlw   0x06             	MOVLW	0x06
0033b2   6e00     movwf   0x00, 0x0        	MOVWF	r0x00
0033b4   6a01     clrf    0x01, 0x0        	CLRF	r0x01
                                           ;	.line	17; event.c	key = kpRead();
0033b6   ece8     call    0x002fd0, 0x0    	CALL	_kpRead
0033b8   f017
0033ba   6e02     movwf   0x02, 0x0        	MOVWF	r0x02
0033bc   6a03     clrf    0x03, 0x0        	CLRF	r0x03
                                           ;	.line	18; event.c	serial = serialProtocol();
0033be   ec5f     call    0x0010be, 0x0    	CALL	_serialProtocol
0033c0   f008
0033c2   6e04     movwf   0x04, 0x0        	MOVWF	r0x04
0033c4   6a05     clrf    0x05, 0x0        	CLRF	r0x05
                                           ;	.line	19; event.c	if ((key != key_ant) || (serial !=0)) {
0033c6   c0ef     movff   0x0ef, 0x006     	MOVFF	_key_ant, r0x06
0033c8   f006
0033ca   6a07     clrf    0x07, 0x0        	CLRF	r0x07
0033cc   5002     movf    0x02, 0x0, 0x0   	MOVF	r0x02, W
0033ce   1806     xorwf   0x06, 0x0, 0x0   	XORWF	r0x06, W
0033d0   e107     bnz     0x0033e0         	BNZ	_00122_DS_
0033d2   5003     movf    0x03, 0x0, 0x0   	MOVF	r0x03, W
0033d4   1807     xorwf   0x07, 0x0, 0x0   	XORWF	r0x07, W
0033d6   e001     bz      0x0033da         	BZ	_00143_DS_
                                           _00142_DS_:
0033d8   d003     bra     0x0033e0         	BRA	_00122_DS_
                                           _00143_DS_:
0033da   5004     movf    0x04, 0x0, 0x0   	MOVF	r0x04, W
0033dc   1005     iorwf   0x05, 0x0, 0x0   	IORWF	r0x05, W
0033de   e038     bz      0x003450         	BZ	_00123_DS_
                                           _00122_DS_:
                                           ;	.line	20; event.c	if ((key == 1)|| (serial == 'A')) {
0033e0   5002     movf    0x02, 0x0, 0x0   	MOVF	r0x02, W
0033e2   0a01     xorlw   0x01             	XORLW	0x01
0033e4   e102     bnz     0x0033ea         	BNZ	_00145_DS_
0033e6   5003     movf    0x03, 0x0, 0x0   	MOVF	r0x03, W
0033e8   e006     bz      0x0033f6         	BZ	_00110_DS_
                                           _00145_DS_:
0033ea   5004     movf    0x04, 0x0, 0x0   	MOVF	r0x04, W
0033ec   0a41     xorlw   0x41             	XORLW	0x41
0033ee   e106     bnz     0x0033fc         	BNZ	_00111_DS_
0033f0   5005     movf    0x05, 0x0, 0x0   	MOVF	r0x05, W
0033f2   e001     bz      0x0033f6         	BZ	_00110_DS_
                                           _00146_DS_:
0033f4   d003     bra     0x0033fc         	BRA	_00111_DS_
                                           _00110_DS_:
                                           ;	.line	21; event.c	ev = EV_LEFT;
0033f6   0e02     movlw   0x02             	MOVLW	0x02
0033f8   6e00     movwf   0x00, 0x0        	MOVWF	r0x00
0033fa   6a01     clrf    0x01, 0x0        	CLRF	r0x01
                                           _00111_DS_:
                                           ;	.line	24; event.c	if ((key == 2)||(serial== 'S')) {
0033fc   5002     movf    0x02, 0x0, 0x0   	MOVF	r0x02, W
0033fe   0a02     xorlw   0x02             	XORLW	0x02
003400   e102     bnz     0x003406         	BNZ	_00149_DS_
003402   5003     movf    0x03, 0x0, 0x0   	MOVF	r0x03, W
003404   e006     bz      0x003412         	BZ	_00113_DS_
                                           _00149_DS_:
003406   5004     movf    0x04, 0x0, 0x0   	MOVF	r0x04, W
003408   0a53     xorlw   0x53             	XORLW	0x53
00340a   e106     bnz     0x003418         	BNZ	_00114_DS_
00340c   5005     movf    0x05, 0x0, 0x0   	MOVF	r0x05, W
00340e   e001     bz      0x003412         	BZ	_00113_DS_
                                           _00150_DS_:
003410   d003     bra     0x003418         	BRA	_00114_DS_
                                           _00113_DS_:
                                           ;	.line	25; event.c	ev = EV_ENTER;
003412   0e04     movlw   0x04             	MOVLW	0x04
003414   6e00     movwf   0x00, 0x0        	MOVWF	r0x00
003416   6a01     clrf    0x01, 0x0        	CLRF	r0x01
                                           _00114_DS_:
                                           ;	.line	28; event.c	if ((key == 3)||(serial=='D')) {
003418   5002     movf    0x02, 0x0, 0x0   	MOVF	r0x02, W
00341a   0a03     xorlw   0x03             	XORLW	0x03
00341c   e102     bnz     0x003422         	BNZ	_00153_DS_
00341e   5003     movf    0x03, 0x0, 0x0   	MOVF	r0x03, W
003420   e006     bz      0x00342e         	BZ	_00116_DS_
                                           _00153_DS_:
003422   5004     movf    0x04, 0x0, 0x0   	MOVF	r0x04, W
003424   0a44     xorlw   0x44             	XORLW	0x44
003426   e106     bnz     0x003434         	BNZ	_00117_DS_
003428   5005     movf    0x05, 0x0, 0x0   	MOVF	r0x05, W
00342a   e001     bz      0x00342e         	BZ	_00116_DS_
                                           _00154_DS_:
00342c   d003     bra     0x003434         	BRA	_00117_DS_
                                           _00116_DS_:
                                           ;	.line	29; event.c	ev = EV_RIGHT;
00342e   0e03     movlw   0x03             	MOVLW	0x03
003430   6e00     movwf   0x00, 0x0        	MOVWF	r0x00
003432   6a01     clrf    0x01, 0x0        	CLRF	r0x01
                                           _00117_DS_:
                                           ;	.line	32; event.c	if ((key == 4)||(serial=='@')) {
003434   5002     movf    0x02, 0x0, 0x0   	MOVF	r0x02, W
003436   0a04     xorlw   0x04             	XORLW	0x04
003438   e102     bnz     0x00343e         	BNZ	_00157_DS_
00343a   5003     movf    0x03, 0x0, 0x0   	MOVF	r0x03, W
00343c   e006     bz      0x00344a         	BZ	_00119_DS_
                                           _00157_DS_:
00343e   5004     movf    0x04, 0x0, 0x0   	MOVF	r0x04, W
003440   0a40     xorlw   0x40             	XORLW	0x40
003442   e106     bnz     0x003450         	BNZ	_00123_DS_
003444   5005     movf    0x05, 0x0, 0x0   	MOVF	r0x05, W
003446   e001     bz      0x00344a         	BZ	_00119_DS_
                                           _00158_DS_:
003448   d003     bra     0x003450         	BRA	_00123_DS_
                                           _00119_DS_:
                                           ;	.line	33; event.c	ev = EV_RESET;
00344a   0e05     movlw   0x05             	MOVLW	0x05
00344c   6e00     movwf   0x00, 0x0        	MOVWF	r0x00
00344e   6a01     clrf    0x01, 0x0        	CLRF	r0x01
                                           _00123_DS_:
                                           ;	.line	37; event.c	key_ant = key; 
003450   5002     movf    0x02, 0x0, 0x0   	MOVF	r0x02, W
003452   0100     movlb   0x0              	BANKSEL	_key_ant
003454   6fef     movwf   0xef, 0x1        	MOVWF	_key_ant, B
                                           ;	.line	38; event.c	return ev;
003456   c001     movff   0x001, 0xff3     	MOVFF	r0x01, PRODL
003458   fff3
00345a   5000     movf    0x00, 0x0, 0x0   	MOVF	r0x00, W
00345c   cfe4     movff   0xfe4, 0x007     	MOVFF	PREINC1, r0x07
00345e   f007
003460   cfe4     movff   0xfe4, 0x006     	MOVFF	PREINC1, r0x06
003462   f006
003464   cfe4     movff   0xfe4, 0x005     	MOVFF	PREINC1, r0x05
003466   f005
003468   cfe4     movff   0xfe4, 0x004     	MOVFF	PREINC1, r0x04
00346a   f004
00346c   cfe4     movff   0xfe4, 0x003     	MOVFF	PREINC1, r0x03
00346e   f003
003470   cfe4     movff   0xfe4, 0x002     	MOVFF	PREINC1, r0x02
003472   f002
003474   cfe4     movff   0xfe4, 0x001     	MOVFF	PREINC1, r0x01
003476   f001
003478   cfe4     movff   0xfe4, 0x000     	MOVFF	PREINC1, r0x00
00347a   f000
00347c   cfe4     movff   0xfe4, 0xfd9     	MOVFF	PREINC1, FSR2L
00347e   ffd9
003480   0012     return  0x0              	RETURN	

                                           ; ; Starting pCode block
                                           S_event__eventInit	code
                                           _eventInit:
                                           ;	.line	8; event.c	void eventInit(void) {
005008   cfd9     movff   0xfd9, 0xfe5     	MOVFF	FSR2L, POSTDEC1
00500a   ffe5
00500c   cfe1     movff   0xfe1, 0xfd9     	MOVFF	FSR1L, FSR2L
00500e   ffd9
                                           ;	.line	9; event.c	kpInit();
005010   ecdf     call    0x004bbe, 0x0    	CALL	_kpInit
005012   f025
                                           ;	.line	10; event.c	serialInit();
005014   ece0     call    0x0043c0, 0x0    	CALL	_serialInit
005016   f021
005018   0100     movlb   0x0              	BANKSEL	_key_ant
                                           ;	.line	11; event.c	key_ant = 0;    
00501a   6bef     clrf    0xef, 0x1        	CLRF	_key_ant, B
00501c   cfe4     movff   0xfe4, 0xfd9     	MOVFF	PREINC1, FSR2L
00501e   ffd9
005020   0012     return  0x0              	RETURN	



                                           ; Statistics:
                                           ; code size:	  276 (0x0114) bytes ( 0.21%)
                                           ;           	  138 (0x008a) words
                                           ; udata size:	    1 (0x0001) bytes ( 0.06%)
                                           ; access size:	    8 (0x0008) bytes


                                           	end
                                           ;--------------------------------------------------------
                                           ; File Created by SDCC : free open source ANSI-C Compiler
                                           ; Version 3.6.0 #9615 (MINGW64)
                                           ;--------------------------------------------------------
                                           ; PIC16 port for the Microchip 16-bit core micros
                                           ;--------------------------------------------------------
                                           	list	p=18f4550
                                           	radix	dec


                                           ;--------------------------------------------------------
                                           ; public variables in this module
                                           ;--------------------------------------------------------
                                           	global	_kpInit
                                           	global	_kpRead
                                           	global	_tecla_pressionada

                                           ;--------------------------------------------------------
                                           ; extern variables in this module
                                           ;--------------------------------------------------------
                                           	extern	_adcRead
                                           	extern	__divuint

                                           ;--------------------------------------------------------
                                           ;	Equates to used internal registers
                                           ;--------------------------------------------------------
                                           STATUS	equ	0xfd8
                                           WREG	equ	0xfe8
                                           FSR1L	equ	0xfe1
                                           FSR2L	equ	0xfd9
                                           INDF0	equ	0xfef
                                           POSTINC1	equ	0xfe6
                                           POSTDEC1	equ	0xfe5
                                           PREINC1	equ	0xfe4
                                           PRODL	equ	0xff3


                                           ; Internal registers
                                           .registers	udata_ovr	0x0000
                                           r0x00	res	1
                                           r0x01	res	1
                                           r0x02	res	1
                                           r0x03	res	1
                                           r0x04	res	1
                                           r0x05	res	1

                                           udata_keypad_0	udata
                                           _tecla_pressionada	res	1

                                           ;--------------------------------------------------------
                                           ; global & static initialisations
                                           ;--------------------------------------------------------
                                           ; I code from now on!
                                           ; ; Starting pCode block
                                           S_keypad__kpRead	code
                                           _kpRead:
                                           ;	.line	16; keypad.c	unsigned char kpRead (void) {
002fd0   cfd9     movff   0xfd9, 0xfe5     	MOVFF	FSR2L, POSTDEC1
002fd2   ffe5
002fd4   cfe1     movff   0xfe1, 0xfd9     	MOVFF	FSR1L, FSR2L
002fd6   ffd9
002fd8   c000     movff   0x000, 0xfe5     	MOVFF	r0x00, POSTDEC1
002fda   ffe5
002fdc   c001     movff   0x001, 0xfe5     	MOVFF	r0x01, POSTDEC1
002fde   ffe5
002fe0   c002     movff   0x002, 0xfe5     	MOVFF	r0x02, POSTDEC1
002fe2   ffe5
002fe4   c003     movff   0x003, 0xfe5     	MOVFF	r0x03, POSTDEC1
002fe6   ffe5
002fe8   c004     movff   0x004, 0xfe5     	MOVFF	r0x04, POSTDEC1
002fea   ffe5
002fec   c005     movff   0x005, 0xfe5     	MOVFF	r0x05, POSTDEC1
002fee   ffe5
                                           ;	.line	17; keypad.c	unsigned int Vteclado = 0, i;
002ff0   6a00     clrf    0x00, 0x0        	CLRF	r0x00
002ff2   6a01     clrf    0x01, 0x0        	CLRF	r0x01
                                           ;	.line	21; keypad.c	for(i=0; i<50; i++) {
002ff4   6a02     clrf    0x02, 0x0        	CLRF	r0x02
002ff6   6a03     clrf    0x03, 0x0        	CLRF	r0x03
                                           _00138_DS_:
                                           ;	.line	22; keypad.c	Vteclado += adcRead(KP);
002ff8   0e03     movlw   0x03             	MOVLW	0x03
002ffa   6ee5     movwf   0xe5, 0x0        	MOVWF	POSTDEC1
002ffc   ecba     call    0x003574, 0x0    	CALL	_adcRead
002ffe   f01a
003000   6e04     movwf   0x04, 0x0        	MOVWF	r0x04
003002   cff3     movff   0xff3, 0x005     	MOVFF	PRODL, r0x05
003004   f005
003006   52e6     movf    0xe6, 0x1, 0x0   	MOVF	POSTINC1, F
003008   5004     movf    0x04, 0x0, 0x0   	MOVF	r0x04, W
00300a   2600     addwf   0x00, 0x1, 0x0   	ADDWF	r0x00, F
00300c   5005     movf    0x05, 0x0, 0x0   	MOVF	r0x05, W
00300e   2201     addwfc  0x01, 0x1, 0x0   	ADDWFC	r0x01, F
                                           ;	.line	21; keypad.c	for(i=0; i<50; i++) {
003010   4a02     infsnz  0x02, 0x1, 0x0   	INFSNZ	r0x02, F
003012   2a03     incf    0x03, 0x1, 0x0   	INCF	r0x03, F
003014   0e00     movlw   0x00             	MOVLW	0x00
003016   5c03     subwf   0x03, 0x0, 0x0   	SUBWF	r0x03, W
003018   e102     bnz     0x00301e         	BNZ	_00194_DS_
00301a   0e32     movlw   0x32             	MOVLW	0x32
00301c   5c02     subwf   0x02, 0x0, 0x0   	SUBWF	r0x02, W
                                           _00194_DS_:
00301e   e3ec     bnc     0x002ff8         	BNC	_00138_DS_
                                           ;	.line	25; keypad.c	Vteclado = Vteclado/50;
003020   0e00     movlw   0x00             	MOVLW	0x00
003022   6ee5     movwf   0xe5, 0x0        	MOVWF	POSTDEC1
003024   0e32     movlw   0x32             	MOVLW	0x32
003026   6ee5     movwf   0xe5, 0x0        	MOVWF	POSTDEC1
003028   5001     movf    0x01, 0x0, 0x0   	MOVF	r0x01, W
00302a   6ee5     movwf   0xe5, 0x0        	MOVWF	POSTDEC1
00302c   5000     movf    0x00, 0x0, 0x0   	MOVF	r0x00, W
00302e   6ee5     movwf   0xe5, 0x0        	MOVWF	POSTDEC1
003030   ecfa     call    0x003bf4, 0x0    	CALL	__divuint
003032   f01d
003034   6e00     movwf   0x00, 0x0        	MOVWF	r0x00
003036   cff3     movff   0xff3, 0x001     	MOVFF	PRODL, r0x01
003038   f001
00303a   0e04     movlw   0x04             	MOVLW	0x04
00303c   26e1     addwf   0xe1, 0x1, 0x0   	ADDWF	FSR1L, F
                                           ;	.line	27; keypad.c	if((Vteclado>=0)&&(Vteclado<150)) 
00303e   0e00     movlw   0x00             	MOVLW	0x00
003040   5c01     subwf   0x01, 0x0, 0x0   	SUBWF	r0x01, W
003042   e102     bnz     0x003048         	BNZ	_00195_DS_
003044   0e96     movlw   0x96             	MOVLW	0x96
003046   5c00     subwf   0x00, 0x0, 0x0   	SUBWF	r0x00, W
                                           _00195_DS_:
003048   e207     bc      0x003058         	BC	_00114_DS_
00304a   0100     movlb   0x0              	BANKSEL	_tecla_pressionada
                                           ;	.line	30; keypad.c	if(tecla_pressionada!=1) {
00304c   51f0     movf    0xf0, 0x0, 0x1   	MOVF	_tecla_pressionada, W, B
00304e   0a01     xorlw   0x01             	XORLW	0x01
003050   e003     bz      0x003058         	BZ	_00114_DS_
                                           ;	.line	31; keypad.c	tecla_pressionada = 1;            
003052   0e01     movlw   0x01             	MOVLW	0x01
003054   0100     movlb   0x0              	BANKSEL	_tecla_pressionada
003056   6ff0     movwf   0xf0, 0x1        	MOVWF	_tecla_pressionada, B
                                           _00114_DS_:
                                           ;	.line	34; keypad.c	if((Vteclado>250)&&(Vteclado<=320)) 
003058   0e00     movlw   0x00             	MOVLW	0x00
00305a   5c01     subwf   0x01, 0x0, 0x0   	SUBWF	r0x01, W
00305c   e102     bnz     0x003062         	BNZ	_00198_DS_
00305e   0efb     movlw   0xfb             	MOVLW	0xfb
003060   5c00     subwf   0x00, 0x0, 0x0   	SUBWF	r0x00, W
                                           _00198_DS_:
003062   e30d     bnc     0x00307e         	BNC	_00119_DS_
003064   0e01     movlw   0x01             	MOVLW	0x01
003066   5c01     subwf   0x01, 0x0, 0x0   	SUBWF	r0x01, W
003068   e102     bnz     0x00306e         	BNZ	_00199_DS_
00306a   0e41     movlw   0x41             	MOVLW	0x41
00306c   5c00     subwf   0x00, 0x0, 0x0   	SUBWF	r0x00, W
                                           _00199_DS_:
00306e   e207     bc      0x00307e         	BC	_00119_DS_
003070   0100     movlb   0x0              	BANKSEL	_tecla_pressionada
                                           ;	.line	37; keypad.c	if(tecla_pressionada!=2) {
003072   51f0     movf    0xf0, 0x0, 0x1   	MOVF	_tecla_pressionada, W, B
003074   0a02     xorlw   0x02             	XORLW	0x02
003076   e003     bz      0x00307e         	BZ	_00119_DS_
                                           ;	.line	38; keypad.c	tecla_pressionada = 2;           
003078   0e02     movlw   0x02             	MOVLW	0x02
00307a   0100     movlb   0x0              	BANKSEL	_tecla_pressionada
00307c   6ff0     movwf   0xf0, 0x1        	MOVWF	_tecla_pressionada, B
                                           _00119_DS_:
                                           ;	.line	42; keypad.c	if((Vteclado>425)&&(Vteclado<=475)) 
00307e   0e01     movlw   0x01             	MOVLW	0x01
003080   5c01     subwf   0x01, 0x0, 0x0   	SUBWF	r0x01, W
003082   e102     bnz     0x003088         	BNZ	_00202_DS_
003084   0eaa     movlw   0xaa             	MOVLW	0xaa
003086   5c00     subwf   0x00, 0x0, 0x0   	SUBWF	r0x00, W
                                           _00202_DS_:
003088   e30d     bnc     0x0030a4         	BNC	_00124_DS_
00308a   0e01     movlw   0x01             	MOVLW	0x01
00308c   5c01     subwf   0x01, 0x0, 0x0   	SUBWF	r0x01, W
00308e   e102     bnz     0x003094         	BNZ	_00203_DS_
003090   0edc     movlw   0xdc             	MOVLW	0xdc
003092   5c00     subwf   0x00, 0x0, 0x0   	SUBWF	r0x00, W
                                           _00203_DS_:
003094   e207     bc      0x0030a4         	BC	_00124_DS_
003096   0100     movlb   0x0              	BANKSEL	_tecla_pressionada
                                           ;	.line	44; keypad.c	if(tecla_pressionada!=3) {
003098   51f0     movf    0xf0, 0x0, 0x1   	MOVF	_tecla_pressionada, W, B
00309a   0a03     xorlw   0x03             	XORLW	0x03
00309c   e003     bz      0x0030a4         	BZ	_00124_DS_
                                           ;	.line	45; keypad.c	tecla_pressionada = 3;
00309e   0e03     movlw   0x03             	MOVLW	0x03
0030a0   0100     movlb   0x0              	BANKSEL	_tecla_pressionada
0030a2   6ff0     movwf   0xf0, 0x1        	MOVWF	_tecla_pressionada, B
                                           _00124_DS_:
                                           ;	.line	49; keypad.c	if((Vteclado>620)&&(Vteclado<=680)) 
0030a4   0e02     movlw   0x02             	MOVLW	0x02
0030a6   5c01     subwf   0x01, 0x0, 0x0   	SUBWF	r0x01, W
0030a8   e102     bnz     0x0030ae         	BNZ	_00206_DS_
0030aa   0e6d     movlw   0x6d             	MOVLW	0x6d
0030ac   5c00     subwf   0x00, 0x0, 0x0   	SUBWF	r0x00, W
                                           _00206_DS_:
0030ae   e30d     bnc     0x0030ca         	BNC	_00129_DS_
0030b0   0e02     movlw   0x02             	MOVLW	0x02
0030b2   5c01     subwf   0x01, 0x0, 0x0   	SUBWF	r0x01, W
0030b4   e102     bnz     0x0030ba         	BNZ	_00207_DS_
0030b6   0ea9     movlw   0xa9             	MOVLW	0xa9
0030b8   5c00     subwf   0x00, 0x0, 0x0   	SUBWF	r0x00, W
                                           _00207_DS_:
0030ba   e207     bc      0x0030ca         	BC	_00129_DS_
0030bc   0100     movlb   0x0              	BANKSEL	_tecla_pressionada
                                           ;	.line	51; keypad.c	if(tecla_pressionada!=4) {
0030be   51f0     movf    0xf0, 0x0, 0x1   	MOVF	_tecla_pressionada, W, B
0030c0   0a04     xorlw   0x04             	XORLW	0x04
0030c2   e003     bz      0x0030ca         	BZ	_00129_DS_
                                           ;	.line	52; keypad.c	tecla_pressionada = 4;           
0030c4   0e04     movlw   0x04             	MOVLW	0x04
0030c6   0100     movlb   0x0              	BANKSEL	_tecla_pressionada
0030c8   6ff0     movwf   0xf0, 0x1        	MOVWF	_tecla_pressionada, B
                                           _00129_DS_:
                                           ;	.line	56; keypad.c	if((Vteclado>720)&&(Vteclado<=780))
0030ca   0e02     movlw   0x02             	MOVLW	0x02
0030cc   5c01     subwf   0x01, 0x0, 0x0   	SUBWF	r0x01, W
0030ce   e102     bnz     0x0030d4         	BNZ	_00210_DS_
0030d0   0ed1     movlw   0xd1             	MOVLW	0xd1
0030d2   5c00     subwf   0x00, 0x0, 0x0   	SUBWF	r0x00, W
                                           _00210_DS_:
0030d4   e30d     bnc     0x0030f0         	BNC	_00134_DS_
0030d6   0e03     movlw   0x03             	MOVLW	0x03
0030d8   5c01     subwf   0x01, 0x0, 0x0   	SUBWF	r0x01, W
0030da   e102     bnz     0x0030e0         	BNZ	_00211_DS_
0030dc   0e0d     movlw   0x0d             	MOVLW	0x0d
0030de   5c00     subwf   0x00, 0x0, 0x0   	SUBWF	r0x00, W
                                           _00211_DS_:
0030e0   e207     bc      0x0030f0         	BC	_00134_DS_
0030e2   0100     movlb   0x0              	BANKSEL	_tecla_pressionada
                                           ;	.line	58; keypad.c	if(tecla_pressionada!=5) {
0030e4   51f0     movf    0xf0, 0x0, 0x1   	MOVF	_tecla_pressionada, W, B
0030e6   0a05     xorlw   0x05             	XORLW	0x05
0030e8   e003     bz      0x0030f0         	BZ	_00134_DS_
                                           ;	.line	59; keypad.c	tecla_pressionada = 5;            
0030ea   0e05     movlw   0x05             	MOVLW	0x05
0030ec   0100     movlb   0x0              	BANKSEL	_tecla_pressionada
0030ee   6ff0     movwf   0xf0, 0x1        	MOVWF	_tecla_pressionada, B
                                           _00134_DS_:
                                           ;	.line	63; keypad.c	if(Vteclado>=980)
0030f0   0e03     movlw   0x03             	MOVLW	0x03
0030f2   5c01     subwf   0x01, 0x0, 0x0   	SUBWF	r0x01, W
0030f4   e102     bnz     0x0030fa         	BNZ	_00214_DS_
0030f6   0ed4     movlw   0xd4             	MOVLW	0xd4
0030f8   5c00     subwf   0x00, 0x0, 0x0   	SUBWF	r0x00, W
                                           _00214_DS_:
0030fa   e302     bnc     0x003100         	BNC	_00137_DS_
0030fc   0100     movlb   0x0              	BANKSEL	_tecla_pressionada
                                           ;	.line	65; keypad.c	tecla_pressionada = 0;        
0030fe   6bf0     clrf    0xf0, 0x1        	CLRF	_tecla_pressionada, B
                                           _00137_DS_:
003100   0100     movlb   0x0              	BANKSEL	_tecla_pressionada
                                           ;	.line	68; keypad.c	return tecla_pressionada;    
003102   51f0     movf    0xf0, 0x0, 0x1   	MOVF	_tecla_pressionada, W, B
003104   cfe4     movff   0xfe4, 0x005     	MOVFF	PREINC1, r0x05
003106   f005
003108   cfe4     movff   0xfe4, 0x004     	MOVFF	PREINC1, r0x04
00310a   f004
00310c   cfe4     movff   0xfe4, 0x003     	MOVFF	PREINC1, r0x03
00310e   f003
003110   cfe4     movff   0xfe4, 0x002     	MOVFF	PREINC1, r0x02
003112   f002
003114   cfe4     movff   0xfe4, 0x001     	MOVFF	PREINC1, r0x01
003116   f001
003118   cfe4     movff   0xfe4, 0x000     	MOVFF	PREINC1, r0x00
00311a   f000
00311c   cfe4     movff   0xfe4, 0xfd9     	MOVFF	PREINC1, FSR2L
00311e   ffd9
003120   0012     return  0x0              	RETURN	

                                           ; ; Starting pCode block
                                           S_keypad__kpInit	code
                                           _kpInit:
                                           ;	.line	5; keypad.c	void kpInit(void)   //Inicia o teclado a partir dos registros necessarios 
004bbe   cfd9     movff   0xfd9, 0xfe5     	MOVFF	FSR2L, POSTDEC1
004bc0   ffe5
004bc2   cfe1     movff   0xfe1, 0xfd9     	MOVFF	FSR1L, FSR2L
004bc4   ffd9
004bc6   c000     movff   0x000, 0xfe5     	MOVFF	r0x00, POSTDEC1
004bc8   ffe5
                                           ;	.line	7; keypad.c	bitClr(INTCON2, 7); //liga pull up   
004bca   ee0f     lfsr    0x0, 0xff1       	LFSR	0x00, 0xff1
004bcc   f0f1
004bce   cfef     movff   0xfef, 0x000     	MOVFF	INDF0, r0x00
004bd0   f000
004bd2   9e00     bcf     0x00, 0x7, 0x0   	BCF	r0x00, 7
004bd4   ee0f     lfsr    0x0, 0xff1       	LFSR	0x00, 0xff1
004bd6   f0f1
004bd8   c000     movff   0x000, 0xfef     	MOVFF	r0x00, INDF0
004bda   ffef
                                           ;	.line	8; keypad.c	bitSet(TRISE, 0);
004bdc   ee0f     lfsr    0x0, 0xf96       	LFSR	0x00, 0xf96
004bde   f096
004be0   cfef     movff   0xfef, 0x000     	MOVFF	INDF0, r0x00
004be2   f000
004be4   8000     bsf     0x00, 0x0, 0x0   	BSF	r0x00, 0
004be6   ee0f     lfsr    0x0, 0xf96       	LFSR	0x00, 0xf96
004be8   f096
004bea   c000     movff   0x000, 0xfef     	MOVFF	r0x00, INDF0
004bec   ffef
                                           ;	.line	10; keypad.c	SPPCFG = 0x00;          // SFR nao presente no PIC18F4520
004bee   ee0f     lfsr    0x0, 0xf63       	LFSR	0x00, 0xf63
004bf0   f063
004bf2   0e00     movlw   0x00             	MOVLW	0x00
004bf4   6eef     movwf   0xef, 0x0        	MOVWF	INDF0
004bf6   cfe4     movff   0xfe4, 0x000     	MOVFF	PREINC1, r0x00
004bf8   f000
004bfa   cfe4     movff   0xfe4, 0xfd9     	MOVFF	PREINC1, FSR2L
004bfc   ffd9
004bfe   0012     return  0x0              	RETURN	



                                           ; Statistics:
                                           ; code size:	  404 (0x0194) bytes ( 0.31%)
                                           ;           	  202 (0x00ca) words
                                           ; udata size:	    1 (0x0001) bytes ( 0.06%)
                                           ; access size:	    6 (0x0006) bytes


                                           	end
                                           ;--------------------------------------------------------
                                           ; File Created by SDCC : free open source ANSI-C Compiler
                                           ; Version 3.6.0 #9615 (MINGW64)
                                           ;--------------------------------------------------------
                                           ; PIC16 port for the Microchip 16-bit core micros
                                           ;--------------------------------------------------------
                                           	list	p=18f4550
                                           	radix	dec


                                           ;--------------------------------------------------------
                                           ; public variables in this module
                                           ;--------------------------------------------------------
                                           	global	_timerEnded
                                           	global	_timerWait
                                           	global	_timerReset
                                           	global	_timerInit

                                           ;--------------------------------------------------------
                                           ; extern variables in this module
                                           ;--------------------------------------------------------
                                           	extern	__mulint

                                           ;--------------------------------------------------------
                                           ;	Equates to used internal registers
                                           ;--------------------------------------------------------
                                           STATUS	equ	0xfd8
                                           WREG	equ	0xfe8
                                           FSR1L	equ	0xfe1
                                           FSR2L	equ	0xfd9
                                           INDF0	equ	0xfef
                                           POSTDEC1	equ	0xfe5
                                           PREINC1	equ	0xfe4
                                           PLUSW2	equ	0xfdb
                                           PRODL	equ	0xff3


                                           ; Internal registers
                                           .registers	udata_ovr	0x0000
                                           r0x00	res	1
                                           r0x01	res	1
                                           r0x02	res	1
                                           r0x03	res	1
                                           r0x04	res	1
                                           r0x05	res	1

                                           ;--------------------------------------------------------
                                           ; global & static initialisations
                                           ;--------------------------------------------------------
                                           ; I code from now on!
                                           ; ; Starting pCode block
                                           S_timer__timerInit	code
                                           _timerInit:
                                           ;	.line	46; timer.c	void timerInit(void) {
004d80   cfd9     movff   0xfd9, 0xfe5     	MOVFF	FSR2L, POSTDEC1
004d82   ffe5
004d84   cfe1     movff   0xfe1, 0xfd9     	MOVFF	FSR1L, FSR2L
004d86   ffd9
004d88   c000     movff   0x000, 0xfe5     	MOVFF	r0x00, POSTDEC1
004d8a   ffe5
                                           ;	.line	47; timer.c	T0CON = 0b00001000; //configura timer 0 sem prescaler
004d8c   ee0f     lfsr    0x0, 0xfd5       	LFSR	0x00, 0xfd5
004d8e   f0d5
004d90   0e08     movlw   0x08             	MOVLW	0x08
004d92   6eef     movwf   0xef, 0x0        	MOVWF	INDF0
                                           ;	.line	48; timer.c	bitSet(T0CON, 7); //liga o timer 0
004d94   ee0f     lfsr    0x0, 0xfd5       	LFSR	0x00, 0xfd5
004d96   f0d5
004d98   cfef     movff   0xfef, 0x000     	MOVFF	INDF0, r0x00
004d9a   f000
004d9c   8e00     bsf     0x00, 0x7, 0x0   	BSF	r0x00, 7
004d9e   ee0f     lfsr    0x0, 0xfd5       	LFSR	0x00, 0xfd5
004da0   f0d5
004da2   c000     movff   0x000, 0xfef     	MOVFF	r0x00, INDF0
004da4   ffef
004da6   cfe4     movff   0xfe4, 0x000     	MOVFF	PREINC1, r0x00
004da8   f000
004daa   cfe4     movff   0xfe4, 0xfd9     	MOVFF	PREINC1, FSR2L
004dac   ffd9
004dae   0012     return  0x0              	RETURN	

                                           ; ; Starting pCode block
                                           S_timer__timerReset	code
                                           _timerReset:
                                           ;	.line	33; timer.c	void timerReset(unsigned int tempo) {
003902   cfd9     movff   0xfd9, 0xfe5     	MOVFF	FSR2L, POSTDEC1
003904   ffe5
003906   cfe1     movff   0xfe1, 0xfd9     	MOVFF	FSR1L, FSR2L
003908   ffd9
00390a   c000     movff   0x000, 0xfe5     	MOVFF	r0x00, POSTDEC1
00390c   ffe5
00390e   c001     movff   0x001, 0xfe5     	MOVFF	r0x01, POSTDEC1
003910   ffe5
003912   c002     movff   0x002, 0xfe5     	MOVFF	r0x02, POSTDEC1
003914   ffe5
003916   c003     movff   0x003, 0xfe5     	MOVFF	r0x03, POSTDEC1
003918   ffe5
00391a   c004     movff   0x004, 0xfe5     	MOVFF	r0x04, POSTDEC1
00391c   ffe5
00391e   c005     movff   0x005, 0xfe5     	MOVFF	r0x05, POSTDEC1
003920   ffe5
003922   0e02     movlw   0x02             	MOVLW	0x02
003924   cfdb     movff   0xfdb, 0x000     	MOVFF	PLUSW2, r0x00
003926   f000
003928   0e03     movlw   0x03             	MOVLW	0x03
00392a   cfdb     movff   0xfdb, 0x001     	MOVFF	PLUSW2, r0x01
00392c   f001
                                           ;	.line	35; timer.c	unsigned ciclos = tempo * 2;
00392e   5001     movf    0x01, 0x0, 0x0   	MOVF	r0x01, W
003930   6ee5     movwf   0xe5, 0x0        	MOVWF	POSTDEC1
003932   5000     movf    0x00, 0x0, 0x0   	MOVF	r0x00, W
003934   6ee5     movwf   0xe5, 0x0        	MOVWF	POSTDEC1
003936   0e00     movlw   0x00             	MOVLW	0x00
003938   6ee5     movwf   0xe5, 0x0        	MOVWF	POSTDEC1
00393a   0e02     movlw   0x02             	MOVLW	0x02
00393c   6ee5     movwf   0xe5, 0x0        	MOVWF	POSTDEC1
00393e   eca8     call    0x003d50, 0x0    	CALL	__mulint
003940   f01e
003942   6e00     movwf   0x00, 0x0        	MOVWF	r0x00
003944   cff3     movff   0xff3, 0x001     	MOVFF	PRODL, r0x01
003946   f001
003948   0e04     movlw   0x04             	MOVLW	0x04
00394a   26e1     addwf   0xe1, 0x1, 0x0   	ADDWF	FSR1L, F
                                           ;	.line	37; timer.c	ciclos = 65535 - ciclos;
00394c   c000     movff   0x000, 0x002     	MOVFF	r0x00, r0x02
00394e   f002
003950   c001     movff   0x001, 0x003     	MOVFF	r0x01, r0x03
003952   f003
003954   6a04     clrf    0x04, 0x0        	CLRF	r0x04
003956   6a05     clrf    0x05, 0x0        	CLRF	r0x05
003958   5002     movf    0x02, 0x0, 0x0   	MOVF	r0x02, W
00395a   08ff     sublw   0xff             	SUBLW	0xff
00395c   6e02     movwf   0x02, 0x0        	MOVWF	r0x02
00395e   0eff     movlw   0xff             	MOVLW	0xff
003960   5603     subfwb  0x03, 0x1, 0x0   	SUBFWB	r0x03, F
003962   0e00     movlw   0x00             	MOVLW	0x00
003964   5604     subfwb  0x04, 0x1, 0x0   	SUBFWB	r0x04, F
003966   0e00     movlw   0x00             	MOVLW	0x00
003968   5605     subfwb  0x05, 0x1, 0x0   	SUBFWB	r0x05, F
00396a   5002     movf    0x02, 0x0, 0x0   	MOVF	r0x02, W
00396c   6e00     movwf   0x00, 0x0        	MOVWF	r0x00
00396e   5003     movf    0x03, 0x0, 0x0   	MOVF	r0x03, W
003970   6e01     movwf   0x01, 0x0        	MOVWF	r0x01
                                           ;	.line	39; timer.c	ciclos -= 14; //subtrai tempo de overhead(experimental)
003972   0ef2     movlw   0xf2             	MOVLW	0xf2
003974   2600     addwf   0x00, 0x1, 0x0   	ADDWF	r0x00, F
003976   a0d8     btfss   0xd8, 0x0, 0x0   	BTFSS	STATUS, 0
003978   0601     decf    0x01, 0x1, 0x0   	DECF	r0x01, F
                                           ;	.line	40; timer.c	TMR0H = (ciclos >> 8); //salva a parte alta
00397a   5001     movf    0x01, 0x0, 0x0   	MOVF	r0x01, W
00397c   6e02     movwf   0x02, 0x0        	MOVWF	r0x02
00397e   6a03     clrf    0x03, 0x0        	CLRF	r0x03
003980   ee0f     lfsr    0x0, 0xfd7       	LFSR	0x00, 0xfd7
003982   f0d7
003984   c002     movff   0x002, 0xfef     	MOVFF	r0x02, INDF0
003986   ffef
                                           ;	.line	41; timer.c	TMR0L = (ciclos & 0x00FF); // salva a parte baixa
003988   6a01     clrf    0x01, 0x0        	CLRF	r0x01
00398a   ee0f     lfsr    0x0, 0xfd6       	LFSR	0x00, 0xfd6
00398c   f0d6
00398e   c000     movff   0x000, 0xfef     	MOVFF	r0x00, INDF0
003990   ffef
                                           ;	.line	43; timer.c	bitClr(INTCON, 2); //limpa a flag de overflow
003992   ee0f     lfsr    0x0, 0xff2       	LFSR	0x00, 0xff2
003994   f0f2
003996   cfef     movff   0xfef, 0x000     	MOVFF	INDF0, r0x00
003998   f000
00399a   9400     bcf     0x00, 0x2, 0x0   	BCF	r0x00, 2
00399c   ee0f     lfsr    0x0, 0xff2       	LFSR	0x00, 0xff2
00399e   f0f2
0039a0   c000     movff   0x000, 0xfef     	MOVFF	r0x00, INDF0
0039a2   ffef
0039a4   cfe4     movff   0xfe4, 0x005     	MOVFF	PREINC1, r0x05
0039a6   f005
0039a8   cfe4     movff   0xfe4, 0x004     	MOVFF	PREINC1, r0x04
0039aa   f004
0039ac   cfe4     movff   0xfe4, 0x003     	MOVFF	PREINC1, r0x03
0039ae   f003
0039b0   cfe4     movff   0xfe4, 0x002     	MOVFF	PREINC1, r0x02
0039b2   f002
0039b4   cfe4     movff   0xfe4, 0x001     	MOVFF	PREINC1, r0x01
0039b6   f001
0039b8   cfe4     movff   0xfe4, 0x000     	MOVFF	PREINC1, r0x00
0039ba   f000
0039bc   cfe4     movff   0xfe4, 0xfd9     	MOVFF	PREINC1, FSR2L
0039be   ffd9
0039c0   0012     return  0x0              	RETURN	

                                           ; ; Starting pCode block
                                           S_timer__timerWait	code
                                           _timerWait:
                                           ;	.line	27; timer.c	void timerWait(void) {
004f88   cfd9     movff   0xfd9, 0xfe5     	MOVFF	FSR2L, POSTDEC1
004f8a   ffe5
004f8c   cfe1     movff   0xfe1, 0xfd9     	MOVFF	FSR1L, FSR2L
004f8e   ffd9
004f90   c000     movff   0x000, 0xfe5     	MOVFF	r0x00, POSTDEC1
004f92   ffe5
                                           _00110_DS_:
                                           ;	.line	28; timer.c	while (!bitTst(INTCON, 2));
004f94   ee0f     lfsr    0x0, 0xff2       	LFSR	0x00, 0xff2
004f96   f0f2
004f98   cfef     movff   0xfef, 0x000     	MOVFF	INDF0, r0x00
004f9a   f000
004f9c   a400     btfss   0x00, 0x2, 0x0   	BTFSS	r0x00, 2
004f9e   d7fa     bra     0x004f94         	BRA	_00110_DS_
004fa0   cfe4     movff   0xfe4, 0x000     	MOVFF	PREINC1, r0x00
004fa2   f000
004fa4   cfe4     movff   0xfe4, 0xfd9     	MOVFF	PREINC1, FSR2L
004fa6   ffd9
004fa8   0012     return  0x0              	RETURN	

                                           ; ; Starting pCode block
                                           S_timer__timerEnded	code
                                           _timerEnded:
                                           ;	.line	23; timer.c	char timerEnded(void) {
004f64   cfd9     movff   0xfd9, 0xfe5     	MOVFF	FSR2L, POSTDEC1
004f66   ffe5
004f68   cfe1     movff   0xfe1, 0xfd9     	MOVFF	FSR1L, FSR2L
004f6a   ffd9
004f6c   c000     movff   0x000, 0xfe5     	MOVFF	r0x00, POSTDEC1
004f6e   ffe5
                                           ;	.line	24; timer.c	return bitTst(INTCON, 2);
004f70   ee0f     lfsr    0x0, 0xff2       	LFSR	0x00, 0xff2
004f72   f0f2
004f74   cfef     movff   0xfef, 0x000     	MOVFF	INDF0, r0x00
004f76   f000
004f78   0e04     movlw   0x04             	MOVLW	0x04
004f7a   1600     andwf   0x00, 0x1, 0x0   	ANDWF	r0x00, F
004f7c   5000     movf    0x00, 0x0, 0x0   	MOVF	r0x00, W
004f7e   cfe4     movff   0xfe4, 0x000     	MOVFF	PREINC1, r0x00
004f80   f000
004f82   cfe4     movff   0xfe4, 0xfd9     	MOVFF	PREINC1, FSR2L
004f84   ffd9
004f86   0012     return  0x0              	RETURN	



                                           ; Statistics:
                                           ; code size:	  310 (0x0136) bytes ( 0.24%)
                                           ;           	  155 (0x009b) words
                                           ; udata size:	    0 (0x0000) bytes ( 0.00%)
                                           ; access size:	    6 (0x0006) bytes


                                           	end
                                           ;--------------------------------------------------------
                                           ; File Created by SDCC : free open source ANSI-C Compiler
                                           ; Version 3.6.0 #9615 (MINGW64)
                                           ;--------------------------------------------------------
                                           ; PIC16 port for the Microchip 16-bit core micros
                                           ;--------------------------------------------------------
                                           	list	p=18f4550
                                           	radix	dec


                                           ;--------------------------------------------------------
                                           ; public variables in this module
                                           ;--------------------------------------------------------
                                           	global	_serialSend
                                           	global	_serialInt
                                           	global	_serialString
                                           	global	_serialRead
                                           	global	_serialInit
                                           	global	_serialProtocol
                                           	global	_code
                                           	global	_mi
                                           	global	_cen
                                           	global	_dez
                                           	global	_uni

                                           ;--------------------------------------------------------
                                           ; extern variables in this module
                                           ;--------------------------------------------------------
                                           	extern	__gptrget1
                                           	extern	_setTime
                                           	extern	_setAlarmLow
                                           	extern	_setAlarmHigh
                                           	extern	__divsint
                                           	extern	__modsint
                                           	extern	__mulint

                                           ;--------------------------------------------------------
                                           ;	Equates to used internal registers
                                           ;--------------------------------------------------------
                                           STATUS	equ	0xfd8
                                           WREG	equ	0xfe8
                                           FSR0L	equ	0xfe9
                                           FSR1L	equ	0xfe1
                                           FSR2L	equ	0xfd9
                                           INDF0	equ	0xfef
                                           POSTINC1	equ	0xfe6
                                           POSTDEC1	equ	0xfe5
                                           PREINC1	equ	0xfe4
                                           PLUSW2	equ	0xfdb
                                           PRODL	equ	0xff3


                                           ; Internal registers
                                           .registers	udata_ovr	0x0000
                                           r0x00	res	1
                                           r0x01	res	1
                                           r0x02	res	1
                                           r0x03	res	1
                                           r0x04	res	1
                                           r0x05	res	1
                                           r0x06	res	1

                                           udata_serial_0	udata
                                           _mi	res	1

                                           udata_serial_1	udata
                                           _cen	res	1

                                           udata_serial_2	udata
                                           _uni	res	1

                                           udata_serial_3	udata
                                           _dez	res	1

                                           udata_serial_4	udata
                                           _code	res	1

                                           ;--------------------------------------------------------
                                           ; global & static initialisations
                                           ;--------------------------------------------------------
                                           ; I code from now on!
                                           ; ; Starting pCode block
                                           S_serial__serialProtocol	code
                                           _serialProtocol:
                                           ;	.line	61; serial.c	unsigned char serialProtocol(void) {
0010be   cfd9     movff   0xfd9, 0xfe5     	MOVFF	FSR2L, POSTDEC1
0010c0   ffe5
0010c2   cfe1     movff   0xfe1, 0xfd9     	MOVFF	FSR1L, FSR2L
0010c4   ffd9
0010c6   c000     movff   0x000, 0xfe5     	MOVFF	r0x00, POSTDEC1
0010c8   ffe5
0010ca   c001     movff   0x001, 0xfe5     	MOVFF	r0x01, POSTDEC1
0010cc   ffe5
0010ce   c002     movff   0x002, 0xfe5     	MOVFF	r0x02, POSTDEC1
0010d0   ffe5
0010d2   c003     movff   0x003, 0xfe5     	MOVFF	r0x03, POSTDEC1
0010d4   ffe5
0010d6   c004     movff   0x004, 0xfe5     	MOVFF	r0x04, POSTDEC1
0010d8   ffe5
0010da   c005     movff   0x005, 0xfe5     	MOVFF	r0x05, POSTDEC1
0010dc   ffe5
0010de   0100     movlb   0x0              	BANKSEL	_code
                                           ;	.line	63; serial.c	if(code == 0){
0010e0   51f5     movf    0xf5, 0x0, 0x1   	MOVF	_code, W, B
0010e2   e108     bnz     0x0010f4         	BNZ	_00162_DS_
                                           ;	.line	64; serial.c	code = serialRead();
0010e4   ecc0     call    0x004580, 0x0    	CALL	_serialRead
0010e6   f022
0010e8   0100     movlb   0x0              	BANKSEL	_code
0010ea   6ff5     movwf   0xf5, 0x1        	MOVWF	_code, B
0010ec   0100     movlb   0x0              	BANKSEL	_code
                                           ;	.line	65; serial.c	return code;
0010ee   51f5     movf    0xf5, 0x0, 0x1   	MOVF	_code, W, B
0010f0   ef81     goto    0x001502         	GOTO	_00210_DS_
0010f2   f00a
                                           _00162_DS_:
0010f4   0100     movlb   0x0              	BANKSEL	_code
                                           ;	.line	68; serial.c	switch (code){
0010f6   51f5     movf    0xf5, 0x0, 0x1   	MOVF	_code, W, B
0010f8   0a43     xorlw   0x43             	XORLW	0x43
0010fa   e102     bnz     0x001100         	BNZ	_00303_DS_
0010fc   ef6a     goto    0x0014d4         	GOTO	_00207_DS_
0010fe   f00a
                                           _00303_DS_:
001100   0100     movlb   0x0              	BANKSEL	_code
001102   51f5     movf    0xf5, 0x0, 0x1   	MOVF	_code, W, B
001104   0a48     xorlw   0x48             	XORLW	0x48
001106   e101     bnz     0x00110a         	BNZ	_00305_DS_
001108   d09c     bra     0x001242         	BRA	_00177_DS_
                                           _00305_DS_:
00110a   0100     movlb   0x0              	BANKSEL	_code
00110c   51f5     movf    0xf5, 0x0, 0x1   	MOVF	_code, W, B
00110e   0a4c     xorlw   0x4c             	XORLW	0x4c
001110   e101     bnz     0x001114         	BNZ	_00307_DS_
001112   d12a     bra     0x001368         	BRA	_00191_DS_
                                           _00307_DS_:
001114   0100     movlb   0x0              	BANKSEL	_code
001116   51f5     movf    0xf5, 0x0, 0x1   	MOVF	_code, W, B
001118   0a54     xorlw   0x54             	XORLW	0x54
00111a   e002     bz      0x001120         	BZ	_00309_DS_
00111c   ef75     goto    0x0014ea         	GOTO	_00208_DS_
00111e   f00a
                                           _00309_DS_:
001120   0100     movlb   0x0              	BANKSEL	_mi
                                           ;	.line	71; serial.c	if(mi == 0){
001122   51f1     movf    0xf1, 0x0, 0x1   	MOVF	_mi, W, B
001124   e104     bnz     0x00112e         	BNZ	_00165_DS_
                                           ;	.line	72; serial.c	mi = serialRead();
001126   ecc0     call    0x004580, 0x0    	CALL	_serialRead
001128   f022
00112a   0100     movlb   0x0              	BANKSEL	_mi
00112c   6ff1     movwf   0xf1, 0x1        	MOVWF	_mi, B
                                           _00165_DS_:
00112e   0100     movlb   0x0              	BANKSEL	_cen
                                           ;	.line	74; serial.c	if(cen == 0 && mi!=0){
001130   51f2     movf    0xf2, 0x0, 0x1   	MOVF	_cen, W, B
001132   e107     bnz     0x001142         	BNZ	_00167_DS_
001134   0100     movlb   0x0              	BANKSEL	_mi
001136   51f1     movf    0xf1, 0x0, 0x1   	MOVF	_mi, W, B
001138   e004     bz      0x001142         	BZ	_00167_DS_
                                           ;	.line	75; serial.c	cen = serialRead();
00113a   ecc0     call    0x004580, 0x0    	CALL	_serialRead
00113c   f022
00113e   0100     movlb   0x0              	BANKSEL	_cen
001140   6ff2     movwf   0xf2, 0x1        	MOVWF	_cen, B
                                           _00167_DS_:
001142   0100     movlb   0x0              	BANKSEL	_dez
                                           ;	.line	77; serial.c	if(dez == 0 && cen!=0 ){
001144   51f4     movf    0xf4, 0x0, 0x1   	MOVF	_dez, W, B
001146   e107     bnz     0x001156         	BNZ	_00170_DS_
001148   0100     movlb   0x0              	BANKSEL	_cen
00114a   51f2     movf    0xf2, 0x0, 0x1   	MOVF	_cen, W, B
00114c   e004     bz      0x001156         	BZ	_00170_DS_
                                           ;	.line	78; serial.c	dez = serialRead();
00114e   ecc0     call    0x004580, 0x0    	CALL	_serialRead
001150   f022
001152   0100     movlb   0x0              	BANKSEL	_dez
001154   6ff4     movwf   0xf4, 0x1        	MOVWF	_dez, B
                                           _00170_DS_:
001156   0100     movlb   0x0              	BANKSEL	_uni
                                           ;	.line	80; serial.c	if(uni == 0 && dez!=0 ){
001158   51f3     movf    0xf3, 0x0, 0x1   	MOVF	_uni, W, B
00115a   e107     bnz     0x00116a         	BNZ	_00173_DS_
00115c   0100     movlb   0x0              	BANKSEL	_dez
00115e   51f4     movf    0xf4, 0x0, 0x1   	MOVF	_dez, W, B
001160   e004     bz      0x00116a         	BZ	_00173_DS_
                                           ;	.line	81; serial.c	uni = serialRead(); 
001162   ecc0     call    0x004580, 0x0    	CALL	_serialRead
001164   f022
001166   0100     movlb   0x0              	BANKSEL	_uni
001168   6ff3     movwf   0xf3, 0x1        	MOVWF	_uni, B
                                           _00173_DS_:
00116a   0100     movlb   0x0              	BANKSEL	_uni
                                           ;	.line	84; serial.c	if(uni !=0)
00116c   51f3     movf    0xf3, 0x0, 0x1   	MOVF	_uni, W, B
00116e   b4d8     btfsc   0xd8, 0x2, 0x0   	BTFSC	STATUS, 2
001170   d1c6     bra     0x0014fe         	BRA	_00209_DS_
                                           ;	.line	86; serial.c	soma = (mi-48)*1000 + (cen-48)*100 + (dez-48)*10 + uni-48;
001172   c0f1     movff   0x0f1, 0x000     	MOVFF	_mi, r0x00
001174   f000
001176   6a01     clrf    0x01, 0x0        	CLRF	r0x01
001178   0ed0     movlw   0xd0             	MOVLW	0xd0
00117a   2600     addwf   0x00, 0x1, 0x0   	ADDWF	r0x00, F
00117c   a0d8     btfss   0xd8, 0x0, 0x0   	BTFSS	STATUS, 0
00117e   0601     decf    0x01, 0x1, 0x0   	DECF	r0x01, F
001180   5001     movf    0x01, 0x0, 0x0   	MOVF	r0x01, W
001182   6ee5     movwf   0xe5, 0x0        	MOVWF	POSTDEC1
001184   5000     movf    0x00, 0x0, 0x0   	MOVF	r0x00, W
001186   6ee5     movwf   0xe5, 0x0        	MOVWF	POSTDEC1
001188   0e03     movlw   0x03             	MOVLW	0x03
00118a   6ee5     movwf   0xe5, 0x0        	MOVWF	POSTDEC1
00118c   0ee8     movlw   0xe8             	MOVLW	0xe8
00118e   6ee5     movwf   0xe5, 0x0        	MOVWF	POSTDEC1
001190   eca8     call    0x003d50, 0x0    	CALL	__mulint
001192   f01e
001194   6e00     movwf   0x00, 0x0        	MOVWF	r0x00
001196   cff3     movff   0xff3, 0x001     	MOVFF	PRODL, r0x01
001198   f001
00119a   0e04     movlw   0x04             	MOVLW	0x04
00119c   26e1     addwf   0xe1, 0x1, 0x0   	ADDWF	FSR1L, F
00119e   c0f2     movff   0x0f2, 0x002     	MOVFF	_cen, r0x02
0011a0   f002
0011a2   6a03     clrf    0x03, 0x0        	CLRF	r0x03
0011a4   0ed0     movlw   0xd0             	MOVLW	0xd0
0011a6   2602     addwf   0x02, 0x1, 0x0   	ADDWF	r0x02, F
0011a8   a0d8     btfss   0xd8, 0x0, 0x0   	BTFSS	STATUS, 0
0011aa   0603     decf    0x03, 0x1, 0x0   	DECF	r0x03, F
0011ac   5003     movf    0x03, 0x0, 0x0   	MOVF	r0x03, W
0011ae   6ee5     movwf   0xe5, 0x0        	MOVWF	POSTDEC1
0011b0   5002     movf    0x02, 0x0, 0x0   	MOVF	r0x02, W
0011b2   6ee5     movwf   0xe5, 0x0        	MOVWF	POSTDEC1
0011b4   0e00     movlw   0x00             	MOVLW	0x00
0011b6   6ee5     movwf   0xe5, 0x0        	MOVWF	POSTDEC1
0011b8   0e64     movlw   0x64             	MOVLW	0x64
0011ba   6ee5     movwf   0xe5, 0x0        	MOVWF	POSTDEC1
0011bc   eca8     call    0x003d50, 0x0    	CALL	__mulint
0011be   f01e
0011c0   6e02     movwf   0x02, 0x0        	MOVWF	r0x02
0011c2   cff3     movff   0xff3, 0x003     	MOVFF	PRODL, r0x03
0011c4   f003
0011c6   0e04     movlw   0x04             	MOVLW	0x04
0011c8   26e1     addwf   0xe1, 0x1, 0x0   	ADDWF	FSR1L, F
0011ca   5002     movf    0x02, 0x0, 0x0   	MOVF	r0x02, W
0011cc   2600     addwf   0x00, 0x1, 0x0   	ADDWF	r0x00, F
0011ce   5003     movf    0x03, 0x0, 0x0   	MOVF	r0x03, W
0011d0   2201     addwfc  0x01, 0x1, 0x0   	ADDWFC	r0x01, F
0011d2   c0f4     movff   0x0f4, 0x002     	MOVFF	_dez, r0x02
0011d4   f002
0011d6   6a03     clrf    0x03, 0x0        	CLRF	r0x03
0011d8   0ed0     movlw   0xd0             	MOVLW	0xd0
0011da   2602     addwf   0x02, 0x1, 0x0   	ADDWF	r0x02, F
0011dc   a0d8     btfss   0xd8, 0x0, 0x0   	BTFSS	STATUS, 0
0011de   0603     decf    0x03, 0x1, 0x0   	DECF	r0x03, F
0011e0   5003     movf    0x03, 0x0, 0x0   	MOVF	r0x03, W
0011e2   6ee5     movwf   0xe5, 0x0        	MOVWF	POSTDEC1
0011e4   5002     movf    0x02, 0x0, 0x0   	MOVF	r0x02, W
0011e6   6ee5     movwf   0xe5, 0x0        	MOVWF	POSTDEC1
0011e8   0e00     movlw   0x00             	MOVLW	0x00
0011ea   6ee5     movwf   0xe5, 0x0        	MOVWF	POSTDEC1
0011ec   0e0a     movlw   0x0a             	MOVLW	0x0a
0011ee   6ee5     movwf   0xe5, 0x0        	MOVWF	POSTDEC1
0011f0   eca8     call    0x003d50, 0x0    	CALL	__mulint
0011f2   f01e
0011f4   6e02     movwf   0x02, 0x0        	MOVWF	r0x02
0011f6   cff3     movff   0xff3, 0x003     	MOVFF	PRODL, r0x03
0011f8   f003
0011fa   0e04     movlw   0x04             	MOVLW	0x04
0011fc   26e1     addwf   0xe1, 0x1, 0x0   	ADDWF	FSR1L, F
0011fe   5002     movf    0x02, 0x0, 0x0   	MOVF	r0x02, W
001200   2600     addwf   0x00, 0x1, 0x0   	ADDWF	r0x00, F
001202   5003     movf    0x03, 0x0, 0x0   	MOVF	r0x03, W
001204   2201     addwfc  0x01, 0x1, 0x0   	ADDWFC	r0x01, F
001206   c0f3     movff   0x0f3, 0x002     	MOVFF	_uni, r0x02
001208   f002
00120a   6a03     clrf    0x03, 0x0        	CLRF	r0x03
00120c   5002     movf    0x02, 0x0, 0x0   	MOVF	r0x02, W
00120e   2600     addwf   0x00, 0x1, 0x0   	ADDWF	r0x00, F
001210   5003     movf    0x03, 0x0, 0x0   	MOVF	r0x03, W
001212   2201     addwfc  0x01, 0x1, 0x0   	ADDWFC	r0x01, F
001214   0ed0     movlw   0xd0             	MOVLW	0xd0
001216   2600     addwf   0x00, 0x1, 0x0   	ADDWF	r0x00, F
001218   a0d8     btfss   0xd8, 0x0, 0x0   	BTFSS	STATUS, 0
00121a   0601     decf    0x01, 0x1, 0x0   	DECF	r0x01, F
                                           ;	.line	87; serial.c	setTime (soma);
00121c   5001     movf    0x01, 0x0, 0x0   	MOVF	r0x01, W
00121e   6ee5     movwf   0xe5, 0x0        	MOVWF	POSTDEC1
001220   5000     movf    0x00, 0x0, 0x0   	MOVF	r0x00, W
001222   6ee5     movwf   0xe5, 0x0        	MOVWF	POSTDEC1
001224   ec35     call    0x00486a, 0x0    	CALL	_setTime
001226   f024
001228   52e6     movf    0xe6, 0x1, 0x0   	MOVF	POSTINC1, F
00122a   52e6     movf    0xe6, 0x1, 0x0   	MOVF	POSTINC1, F
00122c   0100     movlb   0x0              	BANKSEL	_code
                                           ;	.line	88; serial.c	code = 0;
00122e   6bf5     clrf    0xf5, 0x1        	CLRF	_code, B
001230   0100     movlb   0x0              	BANKSEL	_uni
                                           ;	.line	89; serial.c	uni = 0;
001232   6bf3     clrf    0xf3, 0x1        	CLRF	_uni, B
001234   0100     movlb   0x0              	BANKSEL	_dez
                                           ;	.line	90; serial.c	dez = 0;
001236   6bf4     clrf    0xf4, 0x1        	CLRF	_dez, B
001238   0100     movlb   0x0              	BANKSEL	_mi
                                           ;	.line	91; serial.c	mi = 0;
00123a   6bf1     clrf    0xf1, 0x1        	CLRF	_mi, B
00123c   0100     movlb   0x0              	BANKSEL	_cen
                                           ;	.line	92; serial.c	cen = 0;
00123e   6bf2     clrf    0xf2, 0x1        	CLRF	_cen, B
                                           ;	.line	95; serial.c	break; 
001240   d15e     bra     0x0014fe         	BRA	_00209_DS_
                                           _00177_DS_:
001242   0100     movlb   0x0              	BANKSEL	_mi
                                           ;	.line	98; serial.c	if(mi == 0){
001244   51f1     movf    0xf1, 0x0, 0x1   	MOVF	_mi, W, B
001246   e104     bnz     0x001250         	BNZ	_00179_DS_
                                           ;	.line	99; serial.c	mi = serialRead();
001248   ecc0     call    0x004580, 0x0    	CALL	_serialRead
00124a   f022
00124c   0100     movlb   0x0              	BANKSEL	_mi
00124e   6ff1     movwf   0xf1, 0x1        	MOVWF	_mi, B
                                           _00179_DS_:
001250   0100     movlb   0x0              	BANKSEL	_cen
                                           ;	.line	101; serial.c	if(cen == 0 && mi!=0){
001252   51f2     movf    0xf2, 0x0, 0x1   	MOVF	_cen, W, B
001254   e107     bnz     0x001264         	BNZ	_00181_DS_
001256   0100     movlb   0x0              	BANKSEL	_mi
001258   51f1     movf    0xf1, 0x0, 0x1   	MOVF	_mi, W, B
00125a   e004     bz      0x001264         	BZ	_00181_DS_
                                           ;	.line	102; serial.c	cen = serialRead();
00125c   ecc0     call    0x004580, 0x0    	CALL	_serialRead
00125e   f022
001260   0100     movlb   0x0              	BANKSEL	_cen
001262   6ff2     movwf   0xf2, 0x1        	MOVWF	_cen, B
                                           _00181_DS_:
001264   0100     movlb   0x0              	BANKSEL	_dez
                                           ;	.line	104; serial.c	if(dez == 0 && cen!=0 ){
001266   51f4     movf    0xf4, 0x0, 0x1   	MOVF	_dez, W, B
001268   e107     bnz     0x001278         	BNZ	_00184_DS_
00126a   0100     movlb   0x0              	BANKSEL	_cen
00126c   51f2     movf    0xf2, 0x0, 0x1   	MOVF	_cen, W, B
00126e   e004     bz      0x001278         	BZ	_00184_DS_
                                           ;	.line	105; serial.c	dez = serialRead();
001270   ecc0     call    0x004580, 0x0    	CALL	_serialRead
001272   f022
001274   0100     movlb   0x0              	BANKSEL	_dez
001276   6ff4     movwf   0xf4, 0x1        	MOVWF	_dez, B
                                           _00184_DS_:
001278   0100     movlb   0x0              	BANKSEL	_uni
                                           ;	.line	107; serial.c	if(uni == 0 && dez!=0 ){
00127a   51f3     movf    0xf3, 0x0, 0x1   	MOVF	_uni, W, B
00127c   e107     bnz     0x00128c         	BNZ	_00187_DS_
00127e   0100     movlb   0x0              	BANKSEL	_dez
001280   51f4     movf    0xf4, 0x0, 0x1   	MOVF	_dez, W, B
001282   e004     bz      0x00128c         	BZ	_00187_DS_
                                           ;	.line	108; serial.c	uni = serialRead(); 
001284   ecc0     call    0x004580, 0x0    	CALL	_serialRead
001286   f022
001288   0100     movlb   0x0              	BANKSEL	_uni
00128a   6ff3     movwf   0xf3, 0x1        	MOVWF	_uni, B
                                           _00187_DS_:
00128c   0100     movlb   0x0              	BANKSEL	_uni
                                           ;	.line	111; serial.c	if(uni !=0)
00128e   51f3     movf    0xf3, 0x0, 0x1   	MOVF	_uni, W, B
001290   b4d8     btfsc   0xd8, 0x2, 0x0   	BTFSC	STATUS, 2
001292   d135     bra     0x0014fe         	BRA	_00209_DS_
                                           ;	.line	113; serial.c	soma = (mi-48)*1000 + (cen-48)*100 + (dez-48)*10 + uni-48;
001294   c0f1     movff   0x0f1, 0x002     	MOVFF	_mi, r0x02
001296   f002
001298   6a03     clrf    0x03, 0x0        	CLRF	r0x03
00129a   0ed0     movlw   0xd0             	MOVLW	0xd0
00129c   2602     addwf   0x02, 0x1, 0x0   	ADDWF	r0x02, F
00129e   a0d8     btfss   0xd8, 0x0, 0x0   	BTFSS	STATUS, 0
0012a0   0603     decf    0x03, 0x1, 0x0   	DECF	r0x03, F
0012a2   5003     movf    0x03, 0x0, 0x0   	MOVF	r0x03, W
0012a4   6ee5     movwf   0xe5, 0x0        	MOVWF	POSTDEC1
0012a6   5002     movf    0x02, 0x0, 0x0   	MOVF	r0x02, W
0012a8   6ee5     movwf   0xe5, 0x0        	MOVWF	POSTDEC1
0012aa   0e03     movlw   0x03             	MOVLW	0x03
0012ac   6ee5     movwf   0xe5, 0x0        	MOVWF	POSTDEC1
0012ae   0ee8     movlw   0xe8             	MOVLW	0xe8
0012b0   6ee5     movwf   0xe5, 0x0        	MOVWF	POSTDEC1
0012b2   eca8     call    0x003d50, 0x0    	CALL	__mulint
0012b4   f01e
0012b6   6e02     movwf   0x02, 0x0        	MOVWF	r0x02
0012b8   cff3     movff   0xff3, 0x003     	MOVFF	PRODL, r0x03
0012ba   f003
0012bc   0e04     movlw   0x04             	MOVLW	0x04
0012be   26e1     addwf   0xe1, 0x1, 0x0   	ADDWF	FSR1L, F
0012c0   c0f2     movff   0x0f2, 0x004     	MOVFF	_cen, r0x04
0012c2   f004
0012c4   6a05     clrf    0x05, 0x0        	CLRF	r0x05
0012c6   0ed0     movlw   0xd0             	MOVLW	0xd0
0012c8   2604     addwf   0x04, 0x1, 0x0   	ADDWF	r0x04, F
0012ca   a0d8     btfss   0xd8, 0x0, 0x0   	BTFSS	STATUS, 0
0012cc   0605     decf    0x05, 0x1, 0x0   	DECF	r0x05, F
0012ce   5005     movf    0x05, 0x0, 0x0   	MOVF	r0x05, W
0012d0   6ee5     movwf   0xe5, 0x0        	MOVWF	POSTDEC1
0012d2   5004     movf    0x04, 0x0, 0x0   	MOVF	r0x04, W
0012d4   6ee5     movwf   0xe5, 0x0        	MOVWF	POSTDEC1
0012d6   0e00     movlw   0x00             	MOVLW	0x00
0012d8   6ee5     movwf   0xe5, 0x0        	MOVWF	POSTDEC1
0012da   0e64     movlw   0x64             	MOVLW	0x64
0012dc   6ee5     movwf   0xe5, 0x0        	MOVWF	POSTDEC1
0012de   eca8     call    0x003d50, 0x0    	CALL	__mulint
0012e0   f01e
0012e2   6e04     movwf   0x04, 0x0        	MOVWF	r0x04
0012e4   cff3     movff   0xff3, 0x005     	MOVFF	PRODL, r0x05
0012e6   f005
0012e8   0e04     movlw   0x04             	MOVLW	0x04
0012ea   26e1     addwf   0xe1, 0x1, 0x0   	ADDWF	FSR1L, F
0012ec   5004     movf    0x04, 0x0, 0x0   	MOVF	r0x04, W
0012ee   2602     addwf   0x02, 0x1, 0x0   	ADDWF	r0x02, F
0012f0   5005     movf    0x05, 0x0, 0x0   	MOVF	r0x05, W
0012f2   2203     addwfc  0x03, 0x1, 0x0   	ADDWFC	r0x03, F
0012f4   c0f4     movff   0x0f4, 0x004     	MOVFF	_dez, r0x04
0012f6   f004
0012f8   6a05     clrf    0x05, 0x0        	CLRF	r0x05
0012fa   0ed0     movlw   0xd0             	MOVLW	0xd0
0012fc   2604     addwf   0x04, 0x1, 0x0   	ADDWF	r0x04, F
0012fe   a0d8     btfss   0xd8, 0x0, 0x0   	BTFSS	STATUS, 0
001300   0605     decf    0x05, 0x1, 0x0   	DECF	r0x05, F
001302   5005     movf    0x05, 0x0, 0x0   	MOVF	r0x05, W
001304   6ee5     movwf   0xe5, 0x0        	MOVWF	POSTDEC1
001306   5004     movf    0x04, 0x0, 0x0   	MOVF	r0x04, W
001308   6ee5     movwf   0xe5, 0x0        	MOVWF	POSTDEC1
00130a   0e00     movlw   0x00             	MOVLW	0x00
00130c   6ee5     movwf   0xe5, 0x0        	MOVWF	POSTDEC1
00130e   0e0a     movlw   0x0a             	MOVLW	0x0a
001310   6ee5     movwf   0xe5, 0x0        	MOVWF	POSTDEC1
001312   eca8     call    0x003d50, 0x0    	CALL	__mulint
001314   f01e
001316   6e04     movwf   0x04, 0x0        	MOVWF	r0x04
001318   cff3     movff   0xff3, 0x005     	MOVFF	PRODL, r0x05
00131a   f005
00131c   0e04     movlw   0x04             	MOVLW	0x04
00131e   26e1     addwf   0xe1, 0x1, 0x0   	ADDWF	FSR1L, F
001320   5004     movf    0x04, 0x0, 0x0   	MOVF	r0x04, W
001322   2602     addwf   0x02, 0x1, 0x0   	ADDWF	r0x02, F
001324   5005     movf    0x05, 0x0, 0x0   	MOVF	r0x05, W
001326   2203     addwfc  0x03, 0x1, 0x0   	ADDWFC	r0x03, F
001328   c0f3     movff   0x0f3, 0x004     	MOVFF	_uni, r0x04
00132a   f004
00132c   6a05     clrf    0x05, 0x0        	CLRF	r0x05
00132e   5004     movf    0x04, 0x0, 0x0   	MOVF	r0x04, W
001330   2602     addwf   0x02, 0x1, 0x0   	ADDWF	r0x02, F
001332   5005     movf    0x05, 0x0, 0x0   	MOVF	r0x05, W
001334   2203     addwfc  0x03, 0x1, 0x0   	ADDWFC	r0x03, F
001336   5002     movf    0x02, 0x0, 0x0   	MOVF	r0x02, W
001338   0fd0     addlw   0xd0             	ADDLW	0xd0
00133a   6e00     movwf   0x00, 0x0        	MOVWF	r0x00
00133c   0eff     movlw   0xff             	MOVLW	0xff
00133e   2003     addwfc  0x03, 0x0, 0x0   	ADDWFC	r0x03, W
001340   6e01     movwf   0x01, 0x0        	MOVWF	r0x01
                                           ;	.line	114; serial.c	setAlarmHigh (soma);
001342   5001     movf    0x01, 0x0, 0x0   	MOVF	r0x01, W
001344   6ee5     movwf   0xe5, 0x0        	MOVWF	POSTDEC1
001346   5000     movf    0x00, 0x0, 0x0   	MOVF	r0x00, W
001348   6ee5     movwf   0xe5, 0x0        	MOVWF	POSTDEC1
00134a   ecf3     call    0x0045e6, 0x0    	CALL	_setAlarmHigh
00134c   f022
00134e   52e6     movf    0xe6, 0x1, 0x0   	MOVF	POSTINC1, F
001350   52e6     movf    0xe6, 0x1, 0x0   	MOVF	POSTINC1, F
001352   0100     movlb   0x0              	BANKSEL	_code
                                           ;	.line	115; serial.c	code = 0;
001354   6bf5     clrf    0xf5, 0x1        	CLRF	_code, B
001356   0100     movlb   0x0              	BANKSEL	_uni
                                           ;	.line	116; serial.c	uni = 0;
001358   6bf3     clrf    0xf3, 0x1        	CLRF	_uni, B
00135a   0100     movlb   0x0              	BANKSEL	_dez
                                           ;	.line	117; serial.c	dez = 0;
00135c   6bf4     clrf    0xf4, 0x1        	CLRF	_dez, B
00135e   0100     movlb   0x0              	BANKSEL	_mi
                                           ;	.line	118; serial.c	mi = 0;
001360   6bf1     clrf    0xf1, 0x1        	CLRF	_mi, B
001362   0100     movlb   0x0              	BANKSEL	_cen
                                           ;	.line	119; serial.c	cen = 0;
001364   6bf2     clrf    0xf2, 0x1        	CLRF	_cen, B
                                           ;	.line	122; serial.c	break;
001366   d0cb     bra     0x0014fe         	BRA	_00209_DS_
                                           _00191_DS_:
001368   0100     movlb   0x0              	BANKSEL	_mi
                                           ;	.line	125; serial.c	if(mi == 0){
00136a   51f1     movf    0xf1, 0x0, 0x1   	MOVF	_mi, W, B
00136c   e104     bnz     0x001376         	BNZ	_00193_DS_
                                           ;	.line	126; serial.c	mi = serialRead();
00136e   ecc0     call    0x004580, 0x0    	CALL	_serialRead
001370   f022
001372   0100     movlb   0x0              	BANKSEL	_mi
001374   6ff1     movwf   0xf1, 0x1        	MOVWF	_mi, B
                                           _00193_DS_:
001376   0100     movlb   0x0              	BANKSEL	_cen
                                           ;	.line	128; serial.c	if(cen == 0 && mi!=0){
001378   51f2     movf    0xf2, 0x0, 0x1   	MOVF	_cen, W, B
00137a   e107     bnz     0x00138a         	BNZ	_00195_DS_
00137c   0100     movlb   0x0              	BANKSEL	_mi
00137e   51f1     movf    0xf1, 0x0, 0x1   	MOVF	_mi, W, B
001380   e004     bz      0x00138a         	BZ	_00195_DS_
                                           ;	.line	129; serial.c	cen = serialRead();
001382   ecc0     call    0x004580, 0x0    	CALL	_serialRead
001384   f022
001386   0100     movlb   0x0              	BANKSEL	_cen
001388   6ff2     movwf   0xf2, 0x1        	MOVWF	_cen, B
                                           _00195_DS_:
00138a   0100     movlb   0x0              	BANKSEL	_dez
                                           ;	.line	131; serial.c	if(dez == 0 && cen!=0 ){
00138c   51f4     movf    0xf4, 0x0, 0x1   	MOVF	_dez, W, B
00138e   e107     bnz     0x00139e         	BNZ	_00198_DS_
001390   0100     movlb   0x0              	BANKSEL	_cen
001392   51f2     movf    0xf2, 0x0, 0x1   	MOVF	_cen, W, B
001394   e004     bz      0x00139e         	BZ	_00198_DS_
                                           ;	.line	132; serial.c	dez = serialRead();
001396   ecc0     call    0x004580, 0x0    	CALL	_serialRead
001398   f022
00139a   0100     movlb   0x0              	BANKSEL	_dez
00139c   6ff4     movwf   0xf4, 0x1        	MOVWF	_dez, B
                                           _00198_DS_:
00139e   0100     movlb   0x0              	BANKSEL	_uni
                                           ;	.line	134; serial.c	if(uni == 0 && dez!=0 ){
0013a0   51f3     movf    0xf3, 0x0, 0x1   	MOVF	_uni, W, B
0013a2   e107     bnz     0x0013b2         	BNZ	_00201_DS_
0013a4   0100     movlb   0x0              	BANKSEL	_dez
0013a6   51f4     movf    0xf4, 0x0, 0x1   	MOVF	_dez, W, B
0013a8   e004     bz      0x0013b2         	BZ	_00201_DS_
                                           ;	.line	135; serial.c	uni = serialRead(); 
0013aa   ecc0     call    0x004580, 0x0    	CALL	_serialRead
0013ac   f022
0013ae   0100     movlb   0x0              	BANKSEL	_uni
0013b0   6ff3     movwf   0xf3, 0x1        	MOVWF	_uni, B
                                           _00201_DS_:
0013b2   0100     movlb   0x0              	BANKSEL	_uni
                                           ;	.line	138; serial.c	if(uni !=0)
0013b4   51f3     movf    0xf3, 0x0, 0x1   	MOVF	_uni, W, B
0013b6   b4d8     btfsc   0xd8, 0x2, 0x0   	BTFSC	STATUS, 2
0013b8   d0a2     bra     0x0014fe         	BRA	_00209_DS_
                                           ;	.line	140; serial.c	soma = (mi-48)*1000 + (cen-48)*100 + (dez-48)*10 + uni-48;
0013ba   c0f1     movff   0x0f1, 0x002     	MOVFF	_mi, r0x02
0013bc   f002
0013be   6a03     clrf    0x03, 0x0        	CLRF	r0x03
0013c0   0ed0     movlw   0xd0             	MOVLW	0xd0
0013c2   2602     addwf   0x02, 0x1, 0x0   	ADDWF	r0x02, F
0013c4   a0d8     btfss   0xd8, 0x0, 0x0   	BTFSS	STATUS, 0
0013c6   0603     decf    0x03, 0x1, 0x0   	DECF	r0x03, F
0013c8   5003     movf    0x03, 0x0, 0x0   	MOVF	r0x03, W
0013ca   6ee5     movwf   0xe5, 0x0        	MOVWF	POSTDEC1
0013cc   5002     movf    0x02, 0x0, 0x0   	MOVF	r0x02, W
0013ce   6ee5     movwf   0xe5, 0x0        	MOVWF	POSTDEC1
0013d0   0e03     movlw   0x03             	MOVLW	0x03
0013d2   6ee5     movwf   0xe5, 0x0        	MOVWF	POSTDEC1
0013d4   0ee8     movlw   0xe8             	MOVLW	0xe8
0013d6   6ee5     movwf   0xe5, 0x0        	MOVWF	POSTDEC1
0013d8   eca8     call    0x003d50, 0x0    	CALL	__mulint
0013da   f01e
0013dc   6e02     movwf   0x02, 0x0        	MOVWF	r0x02
0013de   cff3     movff   0xff3, 0x003     	MOVFF	PRODL, r0x03
0013e0   f003
0013e2   0e04     movlw   0x04             	MOVLW	0x04
0013e4   26e1     addwf   0xe1, 0x1, 0x0   	ADDWF	FSR1L, F
0013e6   c0f2     movff   0x0f2, 0x004     	MOVFF	_cen, r0x04
0013e8   f004
0013ea   6a05     clrf    0x05, 0x0        	CLRF	r0x05
0013ec   0ed0     movlw   0xd0             	MOVLW	0xd0
0013ee   2604     addwf   0x04, 0x1, 0x0   	ADDWF	r0x04, F
0013f0   a0d8     btfss   0xd8, 0x0, 0x0   	BTFSS	STATUS, 0
0013f2   0605     decf    0x05, 0x1, 0x0   	DECF	r0x05, F
0013f4   5005     movf    0x05, 0x0, 0x0   	MOVF	r0x05, W
0013f6   6ee5     movwf   0xe5, 0x0        	MOVWF	POSTDEC1
0013f8   5004     movf    0x04, 0x0, 0x0   	MOVF	r0x04, W
0013fa   6ee5     movwf   0xe5, 0x0        	MOVWF	POSTDEC1
0013fc   0e00     movlw   0x00             	MOVLW	0x00
0013fe   6ee5     movwf   0xe5, 0x0        	MOVWF	POSTDEC1
001400   0e64     movlw   0x64             	MOVLW	0x64
001402   6ee5     movwf   0xe5, 0x0        	MOVWF	POSTDEC1
001404   eca8     call    0x003d50, 0x0    	CALL	__mulint
001406   f01e
001408   6e04     movwf   0x04, 0x0        	MOVWF	r0x04
00140a   cff3     movff   0xff3, 0x005     	MOVFF	PRODL, r0x05
00140c   f005
00140e   0e04     movlw   0x04             	MOVLW	0x04
001410   26e1     addwf   0xe1, 0x1, 0x0   	ADDWF	FSR1L, F
001412   5004     movf    0x04, 0x0, 0x0   	MOVF	r0x04, W
001414   2602     addwf   0x02, 0x1, 0x0   	ADDWF	r0x02, F
001416   5005     movf    0x05, 0x0, 0x0   	MOVF	r0x05, W
001418   2203     addwfc  0x03, 0x1, 0x0   	ADDWFC	r0x03, F
00141a   c0f4     movff   0x0f4, 0x004     	MOVFF	_dez, r0x04
00141c   f004
00141e   6a05     clrf    0x05, 0x0        	CLRF	r0x05
001420   0ed0     movlw   0xd0             	MOVLW	0xd0
001422   2604     addwf   0x04, 0x1, 0x0   	ADDWF	r0x04, F
001424   a0d8     btfss   0xd8, 0x0, 0x0   	BTFSS	STATUS, 0
001426   0605     decf    0x05, 0x1, 0x0   	DECF	r0x05, F
001428   5005     movf    0x05, 0x0, 0x0   	MOVF	r0x05, W
00142a   6ee5     movwf   0xe5, 0x0        	MOVWF	POSTDEC1
00142c   5004     movf    0x04, 0x0, 0x0   	MOVF	r0x04, W
00142e   6ee5     movwf   0xe5, 0x0        	MOVWF	POSTDEC1
001430   0e00     movlw   0x00             	MOVLW	0x00
001432   6ee5     movwf   0xe5, 0x0        	MOVWF	POSTDEC1
001434   0e0a     movlw   0x0a             	MOVLW	0x0a
001436   6ee5     movwf   0xe5, 0x0        	MOVWF	POSTDEC1
001438   eca8     call    0x003d50, 0x0    	CALL	__mulint
00143a   f01e
00143c   6e04     movwf   0x04, 0x0        	MOVWF	r0x04
00143e   cff3     movff   0xff3, 0x005     	MOVFF	PRODL, r0x05
001440   f005
001442   0e04     movlw   0x04             	MOVLW	0x04
001444   26e1     addwf   0xe1, 0x1, 0x0   	ADDWF	FSR1L, F
001446   5004     movf    0x04, 0x0, 0x0   	MOVF	r0x04, W
001448   2602     addwf   0x02, 0x1, 0x0   	ADDWF	r0x02, F
00144a   5005     movf    0x05, 0x0, 0x0   	MOVF	r0x05, W
00144c   2203     addwfc  0x03, 0x1, 0x0   	ADDWFC	r0x03, F
00144e   c0f3     movff   0x0f3, 0x004     	MOVFF	_uni, r0x04
001450   f004
001452   6a05     clrf    0x05, 0x0        	CLRF	r0x05
001454   5004     movf    0x04, 0x0, 0x0   	MOVF	r0x04, W
001456   2602     addwf   0x02, 0x1, 0x0   	ADDWF	r0x02, F
001458   5005     movf    0x05, 0x0, 0x0   	MOVF	r0x05, W
00145a   2203     addwfc  0x03, 0x1, 0x0   	ADDWFC	r0x03, F
00145c   5002     movf    0x02, 0x0, 0x0   	MOVF	r0x02, W
00145e   0fd0     addlw   0xd0             	ADDLW	0xd0
001460   6e00     movwf   0x00, 0x0        	MOVWF	r0x00
001462   0eff     movlw   0xff             	MOVLW	0xff
001464   2003     addwfc  0x03, 0x0, 0x0   	ADDWFC	r0x03, W
001466   6e01     movwf   0x01, 0x0        	MOVWF	r0x01
                                           ;	.line	141; serial.c	if(soma>=1024){
001468   5001     movf    0x01, 0x0, 0x0   	MOVF	r0x01, W
00146a   0f80     addlw   0x80             	ADDLW	0x80
00146c   0f7c     addlw   0x7c             	ADDLW	0x7c
00146e   e102     bnz     0x001474         	BNZ	_00310_DS_
001470   0e00     movlw   0x00             	MOVLW	0x00
001472   5c00     subwf   0x00, 0x0, 0x0   	SUBWF	r0x00, W
                                           _00310_DS_:
001474   e31c     bnc     0x0014ae         	BNC	_00204_DS_
                                           ;	.line	142; serial.c	soma = 1023;
001476   0eff     movlw   0xff             	MOVLW	0xff
001478   6e00     movwf   0x00, 0x0        	MOVWF	r0x00
00147a   0e03     movlw   0x03             	MOVLW	0x03
00147c   6e01     movwf   0x01, 0x0        	MOVWF	r0x01
                                           ;	.line	143; serial.c	setAlarmLow (soma);
00147e   0e03     movlw   0x03             	MOVLW	0x03
001480   6ee5     movwf   0xe5, 0x0        	MOVWF	POSTDEC1
001482   0eff     movlw   0xff             	MOVLW	0xff
001484   6ee5     movwf   0xe5, 0x0        	MOVWF	POSTDEC1
001486   ec24     call    0x004648, 0x0    	CALL	_setAlarmLow
001488   f023
00148a   52e6     movf    0xe6, 0x1, 0x0   	MOVF	POSTINC1, F
00148c   52e6     movf    0xe6, 0x1, 0x0   	MOVF	POSTINC1, F
                                           ;	.line	144; serial.c	serialString("Representao Estourada");
00148e   0e00     movlw   0x00             	MOVLW	UPPER(___str_0)
001490   6e04     movwf   0x04, 0x0        	MOVWF	r0x04
001492   0e49     movlw   0x49             	MOVLW	HIGH(___str_0)
001494   6e03     movwf   0x03, 0x0        	MOVWF	r0x03
001496   0e44     movlw   0x44             	MOVLW	LOW(___str_0)
001498   6e02     movwf   0x02, 0x0        	MOVWF	r0x02
00149a   5004     movf    0x04, 0x0, 0x0   	MOVF	r0x04, W
00149c   6ee5     movwf   0xe5, 0x0        	MOVWF	POSTDEC1
00149e   5003     movf    0x03, 0x0, 0x0   	MOVF	r0x03, W
0014a0   6ee5     movwf   0xe5, 0x0        	MOVWF	POSTDEC1
0014a2   5002     movf    0x02, 0x0, 0x0   	MOVF	r0x02, W
0014a4   6ee5     movwf   0xe5, 0x0        	MOVWF	POSTDEC1
0014a6   eccf     call    0x003f9e, 0x0    	CALL	_serialString
0014a8   f01f
0014aa   0e03     movlw   0x03             	MOVLW	0x03
0014ac   26e1     addwf   0xe1, 0x1, 0x0   	ADDWF	FSR1L, F
                                           _00204_DS_:
                                           ;	.line	147; serial.c	setAlarmLow (soma);
0014ae   5001     movf    0x01, 0x0, 0x0   	MOVF	r0x01, W
0014b0   6ee5     movwf   0xe5, 0x0        	MOVWF	POSTDEC1
0014b2   5000     movf    0x00, 0x0, 0x0   	MOVF	r0x00, W
0014b4   6ee5     movwf   0xe5, 0x0        	MOVWF	POSTDEC1
0014b6   ec24     call    0x004648, 0x0    	CALL	_setAlarmLow
0014b8   f023
0014ba   52e6     movf    0xe6, 0x1, 0x0   	MOVF	POSTINC1, F
0014bc   52e6     movf    0xe6, 0x1, 0x0   	MOVF	POSTINC1, F
0014be   0100     movlb   0x0              	BANKSEL	_code
                                           ;	.line	148; serial.c	code = 0;
0014c0   6bf5     clrf    0xf5, 0x1        	CLRF	_code, B
0014c2   0100     movlb   0x0              	BANKSEL	_uni
                                           ;	.line	149; serial.c	uni = 0;
0014c4   6bf3     clrf    0xf3, 0x1        	CLRF	_uni, B
0014c6   0100     movlb   0x0              	BANKSEL	_dez
                                           ;	.line	150; serial.c	dez = 0;
0014c8   6bf4     clrf    0xf4, 0x1        	CLRF	_dez, B
0014ca   0100     movlb   0x0              	BANKSEL	_mi
                                           ;	.line	151; serial.c	mi = 0;
0014cc   6bf1     clrf    0xf1, 0x1        	CLRF	_mi, B
0014ce   0100     movlb   0x0              	BANKSEL	_cen
                                           ;	.line	152; serial.c	cen = 0;
0014d0   6bf2     clrf    0xf2, 0x1        	CLRF	_cen, B
                                           ;	.line	154; serial.c	break;
0014d2   d015     bra     0x0014fe         	BRA	_00209_DS_
                                           _00207_DS_:
0014d4   0100     movlb   0x0              	BANKSEL	_code
                                           ;	.line	156; serial.c	code = 0;
0014d6   6bf5     clrf    0xf5, 0x1        	CLRF	_code, B
0014d8   0100     movlb   0x0              	BANKSEL	_uni
                                           ;	.line	157; serial.c	uni = 0;
0014da   6bf3     clrf    0xf3, 0x1        	CLRF	_uni, B
0014dc   0100     movlb   0x0              	BANKSEL	_dez
                                           ;	.line	158; serial.c	dez = 0;
0014de   6bf4     clrf    0xf4, 0x1        	CLRF	_dez, B
0014e0   0100     movlb   0x0              	BANKSEL	_cen
                                           ;	.line	159; serial.c	cen = 0;
0014e2   6bf2     clrf    0xf2, 0x1        	CLRF	_cen, B
0014e4   0100     movlb   0x0              	BANKSEL	_mi
                                           ;	.line	160; serial.c	mi = 0;
0014e6   6bf1     clrf    0xf1, 0x1        	CLRF	_mi, B
                                           ;	.line	161; serial.c	break;
0014e8   d00a     bra     0x0014fe         	BRA	_00209_DS_
                                           _00208_DS_:
0014ea   0100     movlb   0x0              	BANKSEL	_code
                                           ;	.line	162; serial.c	default: code = 0; 
0014ec   6bf5     clrf    0xf5, 0x1        	CLRF	_code, B
0014ee   0100     movlb   0x0              	BANKSEL	_uni
                                           ;	.line	163; serial.c	uni = 0;
0014f0   6bf3     clrf    0xf3, 0x1        	CLRF	_uni, B
0014f2   0100     movlb   0x0              	BANKSEL	_dez
                                           ;	.line	164; serial.c	dez = 0;
0014f4   6bf4     clrf    0xf4, 0x1        	CLRF	_dez, B
0014f6   0100     movlb   0x0              	BANKSEL	_mi
                                           ;	.line	165; serial.c	mi = 0;
0014f8   6bf1     clrf    0xf1, 0x1        	CLRF	_mi, B
0014fa   0100     movlb   0x0              	BANKSEL	_cen
                                           ;	.line	166; serial.c	cen = 0;break;
0014fc   6bf2     clrf    0xf2, 0x1        	CLRF	_cen, B
                                           _00209_DS_:
0014fe   0100     movlb   0x0              	BANKSEL	_code
                                           ;	.line	168; serial.c	return code;
001500   51f5     movf    0xf5, 0x0, 0x1   	MOVF	_code, W, B
                                           _00210_DS_:
001502   cfe4     movff   0xfe4, 0x005     	MOVFF	PREINC1, r0x05
001504   f005
001506   cfe4     movff   0xfe4, 0x004     	MOVFF	PREINC1, r0x04
001508   f004
00150a   cfe4     movff   0xfe4, 0x003     	MOVFF	PREINC1, r0x03
00150c   f003
00150e   cfe4     movff   0xfe4, 0x002     	MOVFF	PREINC1, r0x02
001510   f002
001512   cfe4     movff   0xfe4, 0x001     	MOVFF	PREINC1, r0x01
001514   f001
001516   cfe4     movff   0xfe4, 0x000     	MOVFF	PREINC1, r0x00
001518   f000
00151a   cfe4     movff   0xfe4, 0xfd9     	MOVFF	PREINC1, FSR2L
00151c   ffd9
00151e   0012     return  0x0              	RETURN	

                                           ; ; Starting pCode block
                                           S_serial__serialInit	code
                                           _serialInit:
                                           ;	.line	50; serial.c	void serialInit(void) {
0043c0   cfd9     movff   0xfd9, 0xfe5     	MOVFF	FSR2L, POSTDEC1
0043c2   ffe5
0043c4   cfe1     movff   0xfe1, 0xfd9     	MOVFF	FSR1L, FSR2L
0043c6   ffd9
0043c8   c000     movff   0x000, 0xfe5     	MOVFF	r0x00, POSTDEC1
0043ca   ffe5
                                           ;	.line	51; serial.c	TXSTA = 0b00101100; //configura a transmisso de dados da serial
0043cc   ee0f     lfsr    0x0, 0xfac       	LFSR	0x00, 0xfac
0043ce   f0ac
0043d0   0e2c     movlw   0x2c             	MOVLW	0x2c
0043d2   6eef     movwf   0xef, 0x0        	MOVWF	INDF0
                                           ;	.line	52; serial.c	RCSTA = 0b10010000; //configura a recepo de dados da serial
0043d4   ee0f     lfsr    0x0, 0xfab       	LFSR	0x00, 0xfab
0043d6   f0ab
0043d8   0e90     movlw   0x90             	MOVLW	0x90
0043da   6eef     movwf   0xef, 0x0        	MOVWF	INDF0
                                           ;	.line	53; serial.c	BAUDCON = 0b00001000; //configura sistema de velocidade da serial
0043dc   ee0f     lfsr    0x0, 0xfb8       	LFSR	0x00, 0xfb8
0043de   f0b8
0043e0   0e08     movlw   0x08             	MOVLW	0x08
0043e2   6eef     movwf   0xef, 0x0        	MOVWF	INDF0
                                           ;	.line	54; serial.c	SPBRGH = 0b00000000; //configura para 56k
0043e4   ee0f     lfsr    0x0, 0xfb0       	LFSR	0x00, 0xfb0
0043e6   f0b0
0043e8   0e00     movlw   0x00             	MOVLW	0x00
0043ea   6eef     movwf   0xef, 0x0        	MOVWF	INDF0
                                           ;	.line	55; serial.c	SPBRG = 51; //configura para 56k
0043ec   ee0f     lfsr    0x0, 0xfaf       	LFSR	0x00, 0xfaf
0043ee   f0af
0043f0   0e33     movlw   0x33             	MOVLW	0x33
0043f2   6eef     movwf   0xef, 0x0        	MOVWF	INDF0
                                           ;	.line	56; serial.c	bitSet(TRISC, 6); //pino de recepo de dados
0043f4   ee0f     lfsr    0x0, 0xf94       	LFSR	0x00, 0xf94
0043f6   f094
0043f8   cfef     movff   0xfef, 0x000     	MOVFF	INDF0, r0x00
0043fa   f000
0043fc   8c00     bsf     0x00, 0x6, 0x0   	BSF	r0x00, 6
0043fe   ee0f     lfsr    0x0, 0xf94       	LFSR	0x00, 0xf94
004400   f094
004402   c000     movff   0x000, 0xfef     	MOVFF	r0x00, INDF0
004404   ffef
                                           ;	.line	57; serial.c	bitSet(TRISC, 7); //pino de envio de dados
004406   ee0f     lfsr    0x0, 0xf94       	LFSR	0x00, 0xf94
004408   f094
00440a   cfef     movff   0xfef, 0x000     	MOVFF	INDF0, r0x00
00440c   f000
00440e   8e00     bsf     0x00, 0x7, 0x0   	BSF	r0x00, 7
004410   ee0f     lfsr    0x0, 0xf94       	LFSR	0x00, 0xf94
004412   f094
004414   c000     movff   0x000, 0xfef     	MOVFF	r0x00, INDF0
004416   ffef
004418   0100     movlb   0x0              	BANKSEL	_mi
                                           ;	.line	58; serial.c	mi = 0, cen = 0, uni = 0, dez = 0, code = 0;
00441a   6bf1     clrf    0xf1, 0x1        	CLRF	_mi, B
00441c   0100     movlb   0x0              	BANKSEL	_cen
00441e   6bf2     clrf    0xf2, 0x1        	CLRF	_cen, B
004420   0100     movlb   0x0              	BANKSEL	_uni
004422   6bf3     clrf    0xf3, 0x1        	CLRF	_uni, B
004424   0100     movlb   0x0              	BANKSEL	_dez
004426   6bf4     clrf    0xf4, 0x1        	CLRF	_dez, B
004428   0100     movlb   0x0              	BANKSEL	_code
00442a   6bf5     clrf    0xf5, 0x1        	CLRF	_code, B
00442c   cfe4     movff   0xfe4, 0x000     	MOVFF	PREINC1, r0x00
00442e   f000
004430   cfe4     movff   0xfe4, 0xfd9     	MOVFF	PREINC1, FSR2L
004432   ffd9
004434   0012     return  0x0              	RETURN	

                                           ; ; Starting pCode block
                                           S_serial__serialRead	code
                                           _serialRead:
                                           ;	.line	34; serial.c	unsigned char serialRead(void) {
004580   cfd9     movff   0xfd9, 0xfe5     	MOVFF	FSR2L, POSTDEC1
004582   ffe5
004584   cfe1     movff   0xfe1, 0xfd9     	MOVFF	FSR1L, FSR2L
004586   ffd9
004588   c000     movff   0x000, 0xfe5     	MOVFF	r0x00, POSTDEC1
00458a   ffe5
00458c   c001     movff   0x001, 0xfe5     	MOVFF	r0x01, POSTDEC1
00458e   ffe5
                                           ;	.line	35; serial.c	char resp = 0;    
004590   6a00     clrf    0x00, 0x0        	CLRF	r0x00
                                           ;	.line	37; serial.c	if (bitTst(RCSTA, 1)) //Verifica se h erro de overrun e reseta a serial
004592   ee0f     lfsr    0x0, 0xfab       	LFSR	0x00, 0xfab
004594   f0ab
004596   cfef     movff   0xfef, 0x001     	MOVFF	INDF0, r0x01
004598   f001
00459a   a201     btfss   0x01, 0x1, 0x0   	BTFSS	r0x01, 1
00459c   d012     bra     0x0045c2         	BRA	_00137_DS_
                                           ;	.line	39; serial.c	bitClr(RCSTA, 4);
00459e   ee0f     lfsr    0x0, 0xfab       	LFSR	0x00, 0xfab
0045a0   f0ab
0045a2   cfef     movff   0xfef, 0x001     	MOVFF	INDF0, r0x01
0045a4   f001
0045a6   9801     bcf     0x01, 0x4, 0x0   	BCF	r0x01, 4
0045a8   ee0f     lfsr    0x0, 0xfab       	LFSR	0x00, 0xfab
0045aa   f0ab
0045ac   c001     movff   0x001, 0xfef     	MOVFF	r0x01, INDF0
0045ae   ffef
                                           ;	.line	40; serial.c	bitSet(RCSTA, 4);
0045b0   ee0f     lfsr    0x0, 0xfab       	LFSR	0x00, 0xfab
0045b2   f0ab
0045b4   cfef     movff   0xfef, 0x001     	MOVFF	INDF0, r0x01
0045b6   f001
0045b8   8801     bsf     0x01, 0x4, 0x0   	BSF	r0x01, 4
0045ba   ee0f     lfsr    0x0, 0xfab       	LFSR	0x00, 0xfab
0045bc   f0ab
0045be   c001     movff   0x001, 0xfef     	MOVFF	r0x01, INDF0
0045c0   ffef
                                           _00137_DS_:
                                           ;	.line	43; serial.c	if (bitTst(PIR1, 5)) //Verifica se existe algum valor disponivel
0045c2   ee0f     lfsr    0x0, 0xf9e       	LFSR	0x00, 0xf9e
0045c4   f09e
0045c6   cfef     movff   0xfef, 0x001     	MOVFF	INDF0, r0x01
0045c8   f001
0045ca   aa01     btfss   0x01, 0x5, 0x0   	BTFSS	r0x01, 5
0045cc   d004     bra     0x0045d6         	BRA	_00139_DS_
                                           ;	.line	45; serial.c	resp = RCREG; //retorna o valor
0045ce   ee0f     lfsr    0x0, 0xfae       	LFSR	0x00, 0xfae
0045d0   f0ae
0045d2   cfef     movff   0xfef, 0x000     	MOVFF	INDF0, r0x00
0045d4   f000
                                           _00139_DS_:
                                           ;	.line	47; serial.c	return resp; //retorna zero
0045d6   5000     movf    0x00, 0x0, 0x0   	MOVF	r0x00, W
0045d8   cfe4     movff   0xfe4, 0x001     	MOVFF	PREINC1, r0x01
0045da   f001
0045dc   cfe4     movff   0xfe4, 0x000     	MOVFF	PREINC1, r0x00
0045de   f000
0045e0   cfe4     movff   0xfe4, 0xfd9     	MOVFF	PREINC1, FSR2L
0045e2   ffd9
0045e4   0012     return  0x0              	RETURN	

                                           ; ; Starting pCode block
                                           S_serial__serialString	code
                                           _serialString:
                                           ;	.line	23; serial.c	void serialString(char vector[])
003f9e   cfd9     movff   0xfd9, 0xfe5     	MOVFF	FSR2L, POSTDEC1
003fa0   ffe5
003fa2   cfe1     movff   0xfe1, 0xfd9     	MOVFF	FSR1L, FSR2L
003fa4   ffd9
003fa6   c000     movff   0x000, 0xfe5     	MOVFF	r0x00, POSTDEC1
003fa8   ffe5
003faa   c001     movff   0x001, 0xfe5     	MOVFF	r0x01, POSTDEC1
003fac   ffe5
003fae   c002     movff   0x002, 0xfe5     	MOVFF	r0x02, POSTDEC1
003fb0   ffe5
003fb2   c003     movff   0x003, 0xfe5     	MOVFF	r0x03, POSTDEC1
003fb4   ffe5
003fb6   c004     movff   0x004, 0xfe5     	MOVFF	r0x04, POSTDEC1
003fb8   ffe5
003fba   c005     movff   0x005, 0xfe5     	MOVFF	r0x05, POSTDEC1
003fbc   ffe5
003fbe   c006     movff   0x006, 0xfe5     	MOVFF	r0x06, POSTDEC1
003fc0   ffe5
003fc2   0e02     movlw   0x02             	MOVLW	0x02
003fc4   cfdb     movff   0xfdb, 0x000     	MOVFF	PLUSW2, r0x00
003fc6   f000
003fc8   0e03     movlw   0x03             	MOVLW	0x03
003fca   cfdb     movff   0xfdb, 0x001     	MOVFF	PLUSW2, r0x01
003fcc   f001
003fce   0e04     movlw   0x04             	MOVLW	0x04
003fd0   cfdb     movff   0xfdb, 0x002     	MOVFF	PLUSW2, r0x02
003fd2   f002
                                           ;	.line	27; serial.c	while(vector[i])
003fd4   6a03     clrf    0x03, 0x0        	CLRF	r0x03
                                           _00128_DS_:
003fd6   5003     movf    0x03, 0x0, 0x0   	MOVF	r0x03, W
003fd8   2400     addwf   0x00, 0x0, 0x0   	ADDWF	r0x00, W
003fda   6e04     movwf   0x04, 0x0        	MOVWF	r0x04
003fdc   6ae8     clrf    0xe8, 0x0        	CLRF	WREG
003fde   2001     addwfc  0x01, 0x0, 0x0   	ADDWFC	r0x01, W
003fe0   6e05     movwf   0x05, 0x0        	MOVWF	r0x05
003fe2   6ae8     clrf    0xe8, 0x0        	CLRF	WREG
003fe4   2002     addwfc  0x02, 0x0, 0x0   	ADDWFC	r0x02, W
003fe6   6e06     movwf   0x06, 0x0        	MOVWF	r0x06
003fe8   c004     movff   0x004, 0xfe9     	MOVFF	r0x04, FSR0L
003fea   ffe9
003fec   c005     movff   0x005, 0xff3     	MOVFF	r0x05, PRODL
003fee   fff3
003ff0   5006     movf    0x06, 0x0, 0x0   	MOVF	r0x06, W
003ff2   ecd5     call    0x004faa, 0x0    	CALL	__gptrget1
003ff4   f027
003ff6   6e04     movwf   0x04, 0x0        	MOVWF	r0x04
003ff8   5004     movf    0x04, 0x0, 0x0   	MOVF	r0x04, W
003ffa   e007     bz      0x00400a         	BZ	_00131_DS_
                                           ;	.line	29; serial.c	serialSend(vector[i]);
003ffc   5004     movf    0x04, 0x0, 0x0   	MOVF	r0x04, W
003ffe   6ee5     movwf   0xe5, 0x0        	MOVWF	POSTDEC1
004000   ec86     call    0x00490c, 0x0    	CALL	_serialSend
004002   f024
004004   52e6     movf    0xe6, 0x1, 0x0   	MOVF	POSTINC1, F
                                           ;	.line	30; serial.c	i++;
004006   2a03     incf    0x03, 0x1, 0x0   	INCF	r0x03, F
004008   d7e6     bra     0x003fd6         	BRA	_00128_DS_
                                           _00131_DS_:
00400a   cfe4     movff   0xfe4, 0x006     	MOVFF	PREINC1, r0x06
00400c   f006
00400e   cfe4     movff   0xfe4, 0x005     	MOVFF	PREINC1, r0x05
004010   f005
004012   cfe4     movff   0xfe4, 0x004     	MOVFF	PREINC1, r0x04
004014   f004
004016   cfe4     movff   0xfe4, 0x003     	MOVFF	PREINC1, r0x03
004018   f003
00401a   cfe4     movff   0xfe4, 0x002     	MOVFF	PREINC1, r0x02
00401c   f002
00401e   cfe4     movff   0xfe4, 0x001     	MOVFF	PREINC1, r0x01
004020   f001
004022   cfe4     movff   0xfe4, 0x000     	MOVFF	PREINC1, r0x00
004024   f000
004026   cfe4     movff   0xfe4, 0xfd9     	MOVFF	PREINC1, FSR2L
004028   ffd9
00402a   0012     return  0x0              	RETURN	

                                           ; ; Starting pCode block
                                           S_serial__serialInt	code
                                           _serialInt:
                                           ;	.line	12; serial.c	void serialInt(int val) {
002e72   cfd9     movff   0xfd9, 0xfe5     	MOVFF	FSR2L, POSTDEC1
002e74   ffe5
002e76   cfe1     movff   0xfe1, 0xfd9     	MOVFF	FSR1L, FSR2L
002e78   ffd9
002e7a   c000     movff   0x000, 0xfe5     	MOVFF	r0x00, POSTDEC1
002e7c   ffe5
002e7e   c001     movff   0x001, 0xfe5     	MOVFF	r0x01, POSTDEC1
002e80   ffe5
002e82   c002     movff   0x002, 0xfe5     	MOVFF	r0x02, POSTDEC1
002e84   ffe5
002e86   c003     movff   0x003, 0xfe5     	MOVFF	r0x03, POSTDEC1
002e88   ffe5
002e8a   0e02     movlw   0x02             	MOVLW	0x02
002e8c   cfdb     movff   0xfdb, 0x000     	MOVFF	PLUSW2, r0x00
002e8e   f000
002e90   0e03     movlw   0x03             	MOVLW	0x03
002e92   cfdb     movff   0xfdb, 0x001     	MOVFF	PLUSW2, r0x01
002e94   f001
                                           ;	.line	13; serial.c	if (val < 0) {
002e96   80d8     bsf     0xd8, 0x0, 0x0   	BSF	STATUS, 0
002e98   ae01     btfss   0x01, 0x7, 0x0   	BTFSS	r0x01, 7
002e9a   90d8     bcf     0xd8, 0x0, 0x0   	BCF	STATUS, 0
002e9c   e309     bnc     0x002eb0         	BNC	_00122_DS_
                                           ;	.line	14; serial.c	val = val * (-1);
002e9e   1e01     comf    0x01, 0x1, 0x0   	COMF	r0x01, F
002ea0   6c00     negf    0x00, 0x0        	NEGF	r0x00
002ea2   b4d8     btfsc   0xd8, 0x2, 0x0   	BTFSC	STATUS, 2
002ea4   2a01     incf    0x01, 0x1, 0x0   	INCF	r0x01, F
                                           ;	.line	15; serial.c	serialSend('-');
002ea6   0e2d     movlw   0x2d             	MOVLW	0x2d
002ea8   6ee5     movwf   0xe5, 0x0        	MOVWF	POSTDEC1
002eaa   ec86     call    0x00490c, 0x0    	CALL	_serialSend
002eac   f024
002eae   52e6     movf    0xe6, 0x1, 0x0   	MOVF	POSTINC1, F
                                           _00122_DS_:
                                           ;	.line	17; serial.c	serialSend((val / 1000) % 10 + 48);
002eb0   0e03     movlw   0x03             	MOVLW	0x03
002eb2   6ee5     movwf   0xe5, 0x0        	MOVWF	POSTDEC1
002eb4   0ee8     movlw   0xe8             	MOVLW	0xe8
002eb6   6ee5     movwf   0xe5, 0x0        	MOVWF	POSTDEC1
002eb8   5001     movf    0x01, 0x0, 0x0   	MOVF	r0x01, W
002eba   6ee5     movwf   0xe5, 0x0        	MOVWF	POSTDEC1
002ebc   5000     movf    0x00, 0x0, 0x0   	MOVF	r0x00, W
002ebe   6ee5     movwf   0xe5, 0x0        	MOVWF	POSTDEC1
002ec0   ec31     call    0x003662, 0x0    	CALL	__divsint
002ec2   f01b
002ec4   6e02     movwf   0x02, 0x0        	MOVWF	r0x02
002ec6   cff3     movff   0xff3, 0x003     	MOVFF	PRODL, r0x03
002ec8   f003
002eca   0e04     movlw   0x04             	MOVLW	0x04
002ecc   26e1     addwf   0xe1, 0x1, 0x0   	ADDWF	FSR1L, F
002ece   0e00     movlw   0x00             	MOVLW	0x00
002ed0   6ee5     movwf   0xe5, 0x0        	MOVWF	POSTDEC1
002ed2   0e0a     movlw   0x0a             	MOVLW	0x0a
002ed4   6ee5     movwf   0xe5, 0x0        	MOVWF	POSTDEC1
002ed6   5003     movf    0x03, 0x0, 0x0   	MOVF	r0x03, W
002ed8   6ee5     movwf   0xe5, 0x0        	MOVWF	POSTDEC1
002eda   5002     movf    0x02, 0x0, 0x0   	MOVF	r0x02, W
002edc   6ee5     movwf   0xe5, 0x0        	MOVWF	POSTDEC1
002ede   eca8     call    0x003750, 0x0    	CALL	__modsint
002ee0   f01b
002ee2   6e02     movwf   0x02, 0x0        	MOVWF	r0x02
002ee4   cff3     movff   0xff3, 0x003     	MOVFF	PRODL, r0x03
002ee6   f003
002ee8   0e04     movlw   0x04             	MOVLW	0x04
002eea   26e1     addwf   0xe1, 0x1, 0x0   	ADDWF	FSR1L, F
002eec   0e30     movlw   0x30             	MOVLW	0x30
002eee   2602     addwf   0x02, 0x1, 0x0   	ADDWF	r0x02, F
002ef0   5002     movf    0x02, 0x0, 0x0   	MOVF	r0x02, W
002ef2   6ee5     movwf   0xe5, 0x0        	MOVWF	POSTDEC1
002ef4   ec86     call    0x00490c, 0x0    	CALL	_serialSend
002ef6   f024
002ef8   52e6     movf    0xe6, 0x1, 0x0   	MOVF	POSTINC1, F
                                           ;	.line	18; serial.c	serialSend((val / 100) % 10 + 48);
002efa   0e00     movlw   0x00             	MOVLW	0x00
002efc   6ee5     movwf   0xe5, 0x0        	MOVWF	POSTDEC1
002efe   0e64     movlw   0x64             	MOVLW	0x64
002f00   6ee5     movwf   0xe5, 0x0        	MOVWF	POSTDEC1
002f02   5001     movf    0x01, 0x0, 0x0   	MOVF	r0x01, W
002f04   6ee5     movwf   0xe5, 0x0        	MOVWF	POSTDEC1
002f06   5000     movf    0x00, 0x0, 0x0   	MOVF	r0x00, W
002f08   6ee5     movwf   0xe5, 0x0        	MOVWF	POSTDEC1
002f0a   ec31     call    0x003662, 0x0    	CALL	__divsint
002f0c   f01b
002f0e   6e02     movwf   0x02, 0x0        	MOVWF	r0x02
002f10   cff3     movff   0xff3, 0x003     	MOVFF	PRODL, r0x03
002f12   f003
002f14   0e04     movlw   0x04             	MOVLW	0x04
002f16   26e1     addwf   0xe1, 0x1, 0x0   	ADDWF	FSR1L, F
002f18   0e00     movlw   0x00             	MOVLW	0x00
002f1a   6ee5     movwf   0xe5, 0x0        	MOVWF	POSTDEC1
002f1c   0e0a     movlw   0x0a             	MOVLW	0x0a
002f1e   6ee5     movwf   0xe5, 0x0        	MOVWF	POSTDEC1
002f20   5003     movf    0x03, 0x0, 0x0   	MOVF	r0x03, W
002f22   6ee5     movwf   0xe5, 0x0        	MOVWF	POSTDEC1
002f24   5002     movf    0x02, 0x0, 0x0   	MOVF	r0x02, W
002f26   6ee5     movwf   0xe5, 0x0        	MOVWF	POSTDEC1
002f28   eca8     call    0x003750, 0x0    	CALL	__modsint
002f2a   f01b
002f2c   6e02     movwf   0x02, 0x0        	MOVWF	r0x02
002f2e   cff3     movff   0xff3, 0x003     	MOVFF	PRODL, r0x03
002f30   f003
002f32   0e04     movlw   0x04             	MOVLW	0x04
002f34   26e1     addwf   0xe1, 0x1, 0x0   	ADDWF	FSR1L, F
002f36   0e30     movlw   0x30             	MOVLW	0x30
002f38   2602     addwf   0x02, 0x1, 0x0   	ADDWF	r0x02, F
002f3a   5002     movf    0x02, 0x0, 0x0   	MOVF	r0x02, W
002f3c   6ee5     movwf   0xe5, 0x0        	MOVWF	POSTDEC1
002f3e   ec86     call    0x00490c, 0x0    	CALL	_serialSend
002f40   f024
002f42   52e6     movf    0xe6, 0x1, 0x0   	MOVF	POSTINC1, F
                                           ;	.line	19; serial.c	serialSend((val / 10) % 10 + 48);
002f44   0e00     movlw   0x00             	MOVLW	0x00
002f46   6ee5     movwf   0xe5, 0x0        	MOVWF	POSTDEC1
002f48   0e0a     movlw   0x0a             	MOVLW	0x0a
002f4a   6ee5     movwf   0xe5, 0x0        	MOVWF	POSTDEC1
002f4c   5001     movf    0x01, 0x0, 0x0   	MOVF	r0x01, W
002f4e   6ee5     movwf   0xe5, 0x0        	MOVWF	POSTDEC1
002f50   5000     movf    0x00, 0x0, 0x0   	MOVF	r0x00, W
002f52   6ee5     movwf   0xe5, 0x0        	MOVWF	POSTDEC1
002f54   ec31     call    0x003662, 0x0    	CALL	__divsint
002f56   f01b
002f58   6e02     movwf   0x02, 0x0        	MOVWF	r0x02
002f5a   cff3     movff   0xff3, 0x003     	MOVFF	PRODL, r0x03
002f5c   f003
002f5e   0e04     movlw   0x04             	MOVLW	0x04
002f60   26e1     addwf   0xe1, 0x1, 0x0   	ADDWF	FSR1L, F
002f62   0e00     movlw   0x00             	MOVLW	0x00
002f64   6ee5     movwf   0xe5, 0x0        	MOVWF	POSTDEC1
002f66   0e0a     movlw   0x0a             	MOVLW	0x0a
002f68   6ee5     movwf   0xe5, 0x0        	MOVWF	POSTDEC1
002f6a   5003     movf    0x03, 0x0, 0x0   	MOVF	r0x03, W
002f6c   6ee5     movwf   0xe5, 0x0        	MOVWF	POSTDEC1
002f6e   5002     movf    0x02, 0x0, 0x0   	MOVF	r0x02, W
002f70   6ee5     movwf   0xe5, 0x0        	MOVWF	POSTDEC1
002f72   eca8     call    0x003750, 0x0    	CALL	__modsint
002f74   f01b
002f76   6e02     movwf   0x02, 0x0        	MOVWF	r0x02
002f78   cff3     movff   0xff3, 0x003     	MOVFF	PRODL, r0x03
002f7a   f003
002f7c   0e04     movlw   0x04             	MOVLW	0x04
002f7e   26e1     addwf   0xe1, 0x1, 0x0   	ADDWF	FSR1L, F
002f80   0e30     movlw   0x30             	MOVLW	0x30
002f82   2602     addwf   0x02, 0x1, 0x0   	ADDWF	r0x02, F
002f84   5002     movf    0x02, 0x0, 0x0   	MOVF	r0x02, W
002f86   6ee5     movwf   0xe5, 0x0        	MOVWF	POSTDEC1
002f88   ec86     call    0x00490c, 0x0    	CALL	_serialSend
002f8a   f024
002f8c   52e6     movf    0xe6, 0x1, 0x0   	MOVF	POSTINC1, F
                                           ;	.line	20; serial.c	serialSend((val / 1) % 10 + 48);
002f8e   0e00     movlw   0x00             	MOVLW	0x00
002f90   6ee5     movwf   0xe5, 0x0        	MOVWF	POSTDEC1
002f92   0e0a     movlw   0x0a             	MOVLW	0x0a
002f94   6ee5     movwf   0xe5, 0x0        	MOVWF	POSTDEC1
002f96   5001     movf    0x01, 0x0, 0x0   	MOVF	r0x01, W
002f98   6ee5     movwf   0xe5, 0x0        	MOVWF	POSTDEC1
002f9a   5000     movf    0x00, 0x0, 0x0   	MOVF	r0x00, W
002f9c   6ee5     movwf   0xe5, 0x0        	MOVWF	POSTDEC1
002f9e   eca8     call    0x003750, 0x0    	CALL	__modsint
002fa0   f01b
002fa2   6e00     movwf   0x00, 0x0        	MOVWF	r0x00
002fa4   cff3     movff   0xff3, 0x001     	MOVFF	PRODL, r0x01
002fa6   f001
002fa8   0e04     movlw   0x04             	MOVLW	0x04
002faa   26e1     addwf   0xe1, 0x1, 0x0   	ADDWF	FSR1L, F
002fac   0e30     movlw   0x30             	MOVLW	0x30
002fae   2600     addwf   0x00, 0x1, 0x0   	ADDWF	r0x00, F
002fb0   5000     movf    0x00, 0x0, 0x0   	MOVF	r0x00, W
002fb2   6ee5     movwf   0xe5, 0x0        	MOVWF	POSTDEC1
002fb4   ec86     call    0x00490c, 0x0    	CALL	_serialSend
002fb6   f024
002fb8   52e6     movf    0xe6, 0x1, 0x0   	MOVF	POSTINC1, F
002fba   cfe4     movff   0xfe4, 0x003     	MOVFF	PREINC1, r0x03
002fbc   f003
002fbe   cfe4     movff   0xfe4, 0x002     	MOVFF	PREINC1, r0x02
002fc0   f002
002fc2   cfe4     movff   0xfe4, 0x001     	MOVFF	PREINC1, r0x01
002fc4   f001
002fc6   cfe4     movff   0xfe4, 0x000     	MOVFF	PREINC1, r0x00
002fc8   f000
002fca   cfe4     movff   0xfe4, 0xfd9     	MOVFF	PREINC1, FSR2L
002fcc   ffd9
002fce   0012     return  0x0              	RETURN	

                                           ; ; Starting pCode block
                                           S_serial__serialSend	code
                                           _serialSend:
                                           ;	.line	7; serial.c	void serialSend(unsigned char c) {
00490c   cfd9     movff   0xfd9, 0xfe5     	MOVFF	FSR2L, POSTDEC1
00490e   ffe5
004910   cfe1     movff   0xfe1, 0xfd9     	MOVFF	FSR1L, FSR2L
004912   ffd9
004914   c000     movff   0x000, 0xfe5     	MOVFF	r0x00, POSTDEC1
004916   ffe5
004918   c001     movff   0x001, 0xfe5     	MOVFF	r0x01, POSTDEC1
00491a   ffe5
00491c   0e02     movlw   0x02             	MOVLW	0x02
00491e   cfdb     movff   0xfdb, 0x000     	MOVFF	PLUSW2, r0x00
004920   f000
                                           _00105_DS_:
                                           ;	.line	8; serial.c	while (!bitTst(PIR1, 4)); //Wait register becomes available 
004922   ee0f     lfsr    0x0, 0xf9e       	LFSR	0x00, 0xf9e
004924   f09e
004926   cfef     movff   0xfef, 0x001     	MOVFF	INDF0, r0x01
004928   f001
00492a   a801     btfss   0x01, 0x4, 0x0   	BTFSS	r0x01, 4
00492c   d7fa     bra     0x004922         	BRA	_00105_DS_
                                           ;	.line	9; serial.c	TXREG = c; //Puts the value to be send 
00492e   ee0f     lfsr    0x0, 0xfad       	LFSR	0x00, 0xfad
004930   f0ad
004932   c000     movff   0x000, 0xfef     	MOVFF	r0x00, INDF0
004934   ffef
004936   cfe4     movff   0xfe4, 0x001     	MOVFF	PREINC1, r0x01
004938   f001
00493a   cfe4     movff   0xfe4, 0x000     	MOVFF	PREINC1, r0x00
00493c   f000
00493e   cfe4     movff   0xfe4, 0xfd9     	MOVFF	PREINC1, FSR2L
004940   ffd9
004942   0012     return  0x0              	RETURN	

                                           ; ; Starting pCode block
                                           ___str_0:
004944   6552     cpfsgt  0x52, 0x1        	DB	0x52, 0x65, 0x70, 0x72, 0x65, 0x73, 0x65, 0x6e, 0x74, 0x61, 0xe7, 0xe3
004946   7270     btg     0x70, 0x1, 0x0   
004948   7365     btg     0x65, 0x1, 0x1   
00494a   6e65     movwf   0x65, 0x0        
00494c   6174     cpfslt  0x74, 0x1        
00494e   e3e7     bnc     0x00491e         
004950   206f     addwfc  0x6f, 0x0, 0x0   	DB	0x6f, 0x20, 0x45, 0x73, 0x74, 0x6f, 0x75, 0x72, 0x61, 0x64, 0x61, 0x00
004952   7345     btg     0x45, 0x1, 0x1   
004954   6f74     movwf   0x74, 0x1        
004956   7275     btg     0x75, 0x1, 0x0   
004958   6461     cpfsgt  0x61, 0x0        
00495a   0061     dw      0x0061           


                                           ; Statistics:
                                           ; code size:	 1894 (0x0766) bytes ( 1.45%)
                                           ;           	  947 (0x03b3) words
                                           ; udata size:	    5 (0x0005) bytes ( 0.28%)
                                           ; access size:	    7 (0x0007) bytes


                                           	end
                                           ;--------------------------------------------------------
                                           ; File Created by SDCC : free open source ANSI-C Compiler
                                           ; Version 3.6.0 #9615 (MINGW64)
                                           ;--------------------------------------------------------
                                           ; PIC16 port for the Microchip 16-bit core micros
                                           ;--------------------------------------------------------
                                           	list	p=18f4550
                                           	radix	dec


                                           ;--------------------------------------------------------
                                           ; public variables in this module
                                           ;--------------------------------------------------------
                                           	global	_testAlarmHigh
                                           	global	_testAlarmLow
                                           	global	_controlAlarms

                                           ;--------------------------------------------------------
                                           ; extern variables in this module
                                           ;--------------------------------------------------------
                                           	extern	_ledON
                                           	extern	_ledOFF
                                           	extern	_getAlarmLow
                                           	extern	_getAlarmHigh
                                           	extern	_adcScale
                                           	extern	_BCD2UpperCh
                                           	extern	_BCD2LowerCh
                                           	extern	_rtcRead
                                           	extern	_serialSend
                                           	extern	_serialString

                                           ;--------------------------------------------------------
                                           ;	Equates to used internal registers
                                           ;--------------------------------------------------------
                                           STATUS	equ	0xfd8
                                           WREG	equ	0xfe8
                                           FSR1L	equ	0xfe1
                                           FSR2L	equ	0xfd9
                                           POSTINC1	equ	0xfe6
                                           POSTDEC1	equ	0xfe5
                                           PREINC1	equ	0xfe4
                                           PRODL	equ	0xff3


                                           	idata
                                           _alarmNew	db	0x00
                                           _alarmAnt	db	0x01
                                           _alarmNewL	db	0x00
                                           _alarmAntL	db	0x01


                                           ; Internal registers
                                           .registers	udata_ovr	0x0000
                                           r0x00	res	1
                                           r0x01	res	1
                                           r0x02	res	1
                                           r0x03	res	1
                                           r0x04	res	1
                                           r0x05	res	1
                                           r0x06	res	1
                                           r0x07	res	1
                                           r0x08	res	1
                                           r0x09	res	1
                                           r0x0a	res	1
                                           r0x0b	res	1
                                           r0x0c	res	1
                                           r0x0d	res	1
                                           r0x0e	res	1

                                           ;--------------------------------------------------------
                                           ; global & static initialisations
                                           ;--------------------------------------------------------
                                           ; I code from now on!
                                           ; ; Starting pCode block
                                           S_alarm__controlAlarms	code
                                           _controlAlarms:
                                           ;	.line	45; alarm.c	void controlAlarms(void){
000004   cfd9     movff   0xfd9, 0xfe5     	MOVFF	FSR2L, POSTDEC1
000006   ffe5
000008   cfe1     movff   0xfe1, 0xfd9     	MOVFF	FSR1L, FSR2L
00000a   ffd9
00000c   c000     movff   0x000, 0xfe5     	MOVFF	r0x00, POSTDEC1
00000e   ffe5
000010   c001     movff   0x001, 0xfe5     	MOVFF	r0x01, POSTDEC1
000012   ffe5
000014   c002     movff   0x002, 0xfe5     	MOVFF	r0x02, POSTDEC1
000016   ffe5
000018   c003     movff   0x003, 0xfe5     	MOVFF	r0x03, POSTDEC1
00001a   ffe5
00001c   c004     movff   0x004, 0xfe5     	MOVFF	r0x04, POSTDEC1
00001e   ffe5
000020   c005     movff   0x005, 0xfe5     	MOVFF	r0x05, POSTDEC1
000022   ffe5
000024   c006     movff   0x006, 0xfe5     	MOVFF	r0x06, POSTDEC1
000026   ffe5
000028   c007     movff   0x007, 0xfe5     	MOVFF	r0x07, POSTDEC1
00002a   ffe5
00002c   c008     movff   0x008, 0xfe5     	MOVFF	r0x08, POSTDEC1
00002e   ffe5
000030   c009     movff   0x009, 0xfe5     	MOVFF	r0x09, POSTDEC1
000032   ffe5
000034   c00a     movff   0x00a, 0xfe5     	MOVFF	r0x0a, POSTDEC1
000036   ffe5
000038   c00b     movff   0x00b, 0xfe5     	MOVFF	r0x0b, POSTDEC1
00003a   ffe5
00003c   c00c     movff   0x00c, 0xfe5     	MOVFF	r0x0c, POSTDEC1
00003e   ffe5
000040   c00d     movff   0x00d, 0xfe5     	MOVFF	r0x0d, POSTDEC1
000042   ffe5
000044   c00e     movff   0x00e, 0xfe5     	MOVFF	r0x0e, POSTDEC1
000046   ffe5
                                           ;	.line	47; alarm.c	alarmNew = testAlarmHigh(0);
000048   0e00     movlw   0x00             	MOVLW	0x00
00004a   6ee5     movwf   0xe5, 0x0        	MOVWF	POSTDEC1
00004c   ec16     call    0x00382c, 0x0    	CALL	_testAlarmHigh
00004e   f01c
000050   0100     movlb   0x0              	BANKSEL	_alarmNew
000052   6fae     movwf   0xae, 0x1        	MOVWF	_alarmNew, B
000054   52e6     movf    0xe6, 0x1, 0x0   	MOVF	POSTINC1, F
                                           ;	.line	48; alarm.c	alarmNewL = testAlarmLow(0);
000056   0e00     movlw   0x00             	MOVLW	0x00
000058   6ee5     movwf   0xe5, 0x0        	MOVWF	POSTDEC1
00005a   ec55     call    0x0044aa, 0x0    	CALL	_testAlarmLow
00005c   f022
00005e   0100     movlb   0x0              	BANKSEL	_alarmNewL
000060   6fb0     movwf   0xb0, 0x1        	MOVWF	_alarmNewL, B
000062   52e6     movf    0xe6, 0x1, 0x0   	MOVF	POSTINC1, F
                                           ;	.line	49; alarm.c	if(alarmNew != alarmAnt & alarmNew == 1)
000064   6a00     clrf    0x00, 0x0        	CLRF	r0x00
000066   0100     movlb   0x0              	BANKSEL	_alarmNew
000068   51ae     movf    0xae, 0x0, 0x1   	MOVF	_alarmNew, W, B
00006a   0100     movlb   0x0              	BANKSEL	_alarmAnt
00006c   19af     xorwf   0xaf, 0x0, 0x1   	XORWF	_alarmAnt, W, B
00006e   e101     bnz     0x000072         	BNZ	_00164_DS_
000070   2a00     incf    0x00, 0x1, 0x0   	INCF	r0x00, F
                                           _00164_DS_:
000072   5000     movf    0x00, 0x0, 0x0   	MOVF	r0x00, W
000074   80d8     bsf     0xd8, 0x0, 0x0   	BSF	STATUS, 0
000076   66e8     tstfsz  0xe8, 0x0        	TSTFSZ	WREG
000078   90d8     bcf     0xd8, 0x0, 0x0   	BCF	STATUS, 0
00007a   6a00     clrf    0x00, 0x0        	CLRF	r0x00
00007c   3600     rlcf    0x00, 0x1, 0x0   	RLCF	r0x00, F
00007e   6a01     clrf    0x01, 0x0        	CLRF	r0x01
000080   0100     movlb   0x0              	BANKSEL	_alarmNew
000082   51ae     movf    0xae, 0x0, 0x1   	MOVF	_alarmNew, W, B
000084   0a01     xorlw   0x01             	XORLW	0x01
000086   e101     bnz     0x00008a         	BNZ	_00166_DS_
000088   2a01     incf    0x01, 0x1, 0x0   	INCF	r0x01, F
                                           _00166_DS_:
00008a   5000     movf    0x00, 0x0, 0x0   	MOVF	r0x00, W
00008c   1601     andwf   0x01, 0x1, 0x0   	ANDWF	r0x01, F
00008e   5001     movf    0x01, 0x0, 0x0   	MOVF	r0x01, W
000090   b4d8     btfsc   0xd8, 0x2, 0x0   	BTFSC	STATUS, 2
000092   d115     bra     0x0002be         	BRA	_00132_DS_
                                           ;	.line	51; alarm.c	ledON(1);
000094   0e00     movlw   0x00             	MOVLW	0x00
000096   6ee5     movwf   0xe5, 0x0        	MOVWF	POSTDEC1
000098   0e01     movlw   0x01             	MOVLW	0x01
00009a   6ee5     movwf   0xe5, 0x0        	MOVWF	POSTDEC1
00009c   ec5b     call    0x0040b6, 0x0    	CALL	_ledON
00009e   f020
0000a0   52e6     movf    0xe6, 0x1, 0x0   	MOVF	POSTINC1, F
0000a2   52e6     movf    0xe6, 0x1, 0x0   	MOVF	POSTINC1, F
                                           ;	.line	52; alarm.c	min = rtcRead(0x01);
0000a4   0e01     movlw   0x01             	MOVLW	0x01
0000a6   6ee5     movwf   0xe5, 0x0        	MOVWF	POSTDEC1
0000a8   ecae     call    0x00495c, 0x0    	CALL	_rtcRead
0000aa   f024
0000ac   6e00     movwf   0x00, 0x0        	MOVWF	r0x00
0000ae   52e6     movf    0xe6, 0x1, 0x0   	MOVF	POSTINC1, F
0000b0   6a01     clrf    0x01, 0x0        	CLRF	r0x01
                                           ;	.line	53; alarm.c	hour = rtcRead(0x02);
0000b2   0e02     movlw   0x02             	MOVLW	0x02
0000b4   6ee5     movwf   0xe5, 0x0        	MOVWF	POSTDEC1
0000b6   ecae     call    0x00495c, 0x0    	CALL	_rtcRead
0000b8   f024
0000ba   6e02     movwf   0x02, 0x0        	MOVWF	r0x02
0000bc   52e6     movf    0xe6, 0x1, 0x0   	MOVF	POSTINC1, F
0000be   6a03     clrf    0x03, 0x0        	CLRF	r0x03
                                           ;	.line	54; alarm.c	sec = rtcRead(0x00);
0000c0   0e00     movlw   0x00             	MOVLW	0x00
0000c2   6ee5     movwf   0xe5, 0x0        	MOVWF	POSTDEC1
0000c4   ecae     call    0x00495c, 0x0    	CALL	_rtcRead
0000c6   f024
0000c8   6e04     movwf   0x04, 0x0        	MOVWF	r0x04
0000ca   52e6     movf    0xe6, 0x1, 0x0   	MOVF	POSTINC1, F
0000cc   6a05     clrf    0x05, 0x0        	CLRF	r0x05
                                           ;	.line	55; alarm.c	date = rtcRead(0x04);
0000ce   0e04     movlw   0x04             	MOVLW	0x04
0000d0   6ee5     movwf   0xe5, 0x0        	MOVWF	POSTDEC1
0000d2   ecae     call    0x00495c, 0x0    	CALL	_rtcRead
0000d4   f024
0000d6   6e06     movwf   0x06, 0x0        	MOVWF	r0x06
0000d8   52e6     movf    0xe6, 0x1, 0x0   	MOVF	POSTINC1, F
0000da   6a07     clrf    0x07, 0x0        	CLRF	r0x07
                                           ;	.line	56; alarm.c	month = rtcRead(0x05);
0000dc   0e05     movlw   0x05             	MOVLW	0x05
0000de   6ee5     movwf   0xe5, 0x0        	MOVWF	POSTDEC1
0000e0   ecae     call    0x00495c, 0x0    	CALL	_rtcRead
0000e2   f024
0000e4   6e08     movwf   0x08, 0x0        	MOVWF	r0x08
0000e6   52e6     movf    0xe6, 0x1, 0x0   	MOVF	POSTINC1, F
0000e8   6a09     clrf    0x09, 0x0        	CLRF	r0x09
                                           ;	.line	57; alarm.c	year = rtcRead(0x06);
0000ea   0e06     movlw   0x06             	MOVLW	0x06
0000ec   6ee5     movwf   0xe5, 0x0        	MOVWF	POSTDEC1
0000ee   ecae     call    0x00495c, 0x0    	CALL	_rtcRead
0000f0   f024
0000f2   6e0a     movwf   0x0a, 0x0        	MOVWF	r0x0a
0000f4   52e6     movf    0xe6, 0x1, 0x0   	MOVF	POSTINC1, F
0000f6   6a0b     clrf    0x0b, 0x0        	CLRF	r0x0b
                                           ;	.line	60; alarm.c	serialString("Alarm High 0 Acionado");
0000f8   0e00     movlw   0x00             	MOVLW	UPPER(___str_0)
0000fa   6e0e     movwf   0x0e, 0x0        	MOVWF	r0x0e
0000fc   0e38     movlw   0x38             	MOVLW	HIGH(___str_0)
0000fe   6e0d     movwf   0x0d, 0x0        	MOVWF	r0x0d
000100   0e98     movlw   0x98             	MOVLW	LOW(___str_0)
000102   6e0c     movwf   0x0c, 0x0        	MOVWF	r0x0c
000104   500e     movf    0x0e, 0x0, 0x0   	MOVF	r0x0e, W
000106   6ee5     movwf   0xe5, 0x0        	MOVWF	POSTDEC1
000108   500d     movf    0x0d, 0x0, 0x0   	MOVF	r0x0d, W
00010a   6ee5     movwf   0xe5, 0x0        	MOVWF	POSTDEC1
00010c   500c     movf    0x0c, 0x0, 0x0   	MOVF	r0x0c, W
00010e   6ee5     movwf   0xe5, 0x0        	MOVWF	POSTDEC1
000110   eccf     call    0x003f9e, 0x0    	CALL	_serialString
000112   f01f
000114   0e03     movlw   0x03             	MOVLW	0x03
000116   26e1     addwf   0xe1, 0x1, 0x0   	ADDWF	FSR1L, F
                                           ;	.line	61; alarm.c	serialSend(13);
000118   0e0d     movlw   0x0d             	MOVLW	0x0d
00011a   6ee5     movwf   0xe5, 0x0        	MOVWF	POSTDEC1
00011c   ec86     call    0x00490c, 0x0    	CALL	_serialSend
00011e   f024
000120   52e6     movf    0xe6, 0x1, 0x0   	MOVF	POSTINC1, F
                                           ;	.line	62; alarm.c	serialString("Time: ");
000122   0e00     movlw   0x00             	MOVLW	UPPER(___str_1)
000124   6e0e     movwf   0x0e, 0x0        	MOVWF	r0x0e
000126   0e38     movlw   0x38             	MOVLW	HIGH(___str_1)
000128   6e0d     movwf   0x0d, 0x0        	MOVWF	r0x0d
00012a   0eae     movlw   0xae             	MOVLW	LOW(___str_1)
00012c   6e0c     movwf   0x0c, 0x0        	MOVWF	r0x0c
00012e   500e     movf    0x0e, 0x0, 0x0   	MOVF	r0x0e, W
000130   6ee5     movwf   0xe5, 0x0        	MOVWF	POSTDEC1
000132   500d     movf    0x0d, 0x0, 0x0   	MOVF	r0x0d, W
000134   6ee5     movwf   0xe5, 0x0        	MOVWF	POSTDEC1
000136   500c     movf    0x0c, 0x0, 0x0   	MOVF	r0x0c, W
000138   6ee5     movwf   0xe5, 0x0        	MOVWF	POSTDEC1
00013a   eccf     call    0x003f9e, 0x0    	CALL	_serialString
00013c   f01f
00013e   0e03     movlw   0x03             	MOVLW	0x03
000140   26e1     addwf   0xe1, 0x1, 0x0   	ADDWF	FSR1L, F
                                           ;	.line	63; alarm.c	serialSend(BCD2UpperCh(hour));
000142   5002     movf    0x02, 0x0, 0x0   	MOVF	r0x02, W
000144   6e0c     movwf   0x0c, 0x0        	MOVWF	r0x0c
000146   500c     movf    0x0c, 0x0, 0x0   	MOVF	r0x0c, W
000148   6ee5     movwf   0xe5, 0x0        	MOVWF	POSTDEC1
00014a   ec06     call    0x004e0c, 0x0    	CALL	_BCD2UpperCh
00014c   f027
00014e   6e0d     movwf   0x0d, 0x0        	MOVWF	r0x0d
000150   52e6     movf    0xe6, 0x1, 0x0   	MOVF	POSTINC1, F
000152   500d     movf    0x0d, 0x0, 0x0   	MOVF	r0x0d, W
000154   6ee5     movwf   0xe5, 0x0        	MOVWF	POSTDEC1
000156   ec86     call    0x00490c, 0x0    	CALL	_serialSend
000158   f024
00015a   52e6     movf    0xe6, 0x1, 0x0   	MOVF	POSTINC1, F
                                           ;	.line	64; alarm.c	serialSend(BCD2LowerCh(hour));
00015c   500c     movf    0x0c, 0x0, 0x0   	MOVF	r0x0c, W
00015e   6ee5     movwf   0xe5, 0x0        	MOVWF	POSTDEC1
000160   ec56     call    0x004eac, 0x0    	CALL	_BCD2LowerCh
000162   f027
000164   6e0c     movwf   0x0c, 0x0        	MOVWF	r0x0c
000166   52e6     movf    0xe6, 0x1, 0x0   	MOVF	POSTINC1, F
000168   500c     movf    0x0c, 0x0, 0x0   	MOVF	r0x0c, W
00016a   6ee5     movwf   0xe5, 0x0        	MOVWF	POSTDEC1
00016c   ec86     call    0x00490c, 0x0    	CALL	_serialSend
00016e   f024
000170   52e6     movf    0xe6, 0x1, 0x0   	MOVF	POSTINC1, F
                                           ;	.line	65; alarm.c	serialSend(':');
000172   0e3a     movlw   0x3a             	MOVLW	0x3a
000174   6ee5     movwf   0xe5, 0x0        	MOVWF	POSTDEC1
000176   ec86     call    0x00490c, 0x0    	CALL	_serialSend
000178   f024
00017a   52e6     movf    0xe6, 0x1, 0x0   	MOVF	POSTINC1, F
                                           ;	.line	66; alarm.c	serialSend(BCD2UpperCh(min));
00017c   5000     movf    0x00, 0x0, 0x0   	MOVF	r0x00, W
00017e   6e0c     movwf   0x0c, 0x0        	MOVWF	r0x0c
000180   500c     movf    0x0c, 0x0, 0x0   	MOVF	r0x0c, W
000182   6ee5     movwf   0xe5, 0x0        	MOVWF	POSTDEC1
000184   ec06     call    0x004e0c, 0x0    	CALL	_BCD2UpperCh
000186   f027
000188   6e0d     movwf   0x0d, 0x0        	MOVWF	r0x0d
00018a   52e6     movf    0xe6, 0x1, 0x0   	MOVF	POSTINC1, F
00018c   500d     movf    0x0d, 0x0, 0x0   	MOVF	r0x0d, W
00018e   6ee5     movwf   0xe5, 0x0        	MOVWF	POSTDEC1
000190   ec86     call    0x00490c, 0x0    	CALL	_serialSend
000192   f024
000194   52e6     movf    0xe6, 0x1, 0x0   	MOVF	POSTINC1, F
                                           ;	.line	67; alarm.c	serialSend(BCD2LowerCh(min));
000196   500c     movf    0x0c, 0x0, 0x0   	MOVF	r0x0c, W
000198   6ee5     movwf   0xe5, 0x0        	MOVWF	POSTDEC1
00019a   ec56     call    0x004eac, 0x0    	CALL	_BCD2LowerCh
00019c   f027
00019e   6e0c     movwf   0x0c, 0x0        	MOVWF	r0x0c
0001a0   52e6     movf    0xe6, 0x1, 0x0   	MOVF	POSTINC1, F
0001a2   500c     movf    0x0c, 0x0, 0x0   	MOVF	r0x0c, W
0001a4   6ee5     movwf   0xe5, 0x0        	MOVWF	POSTDEC1
0001a6   ec86     call    0x00490c, 0x0    	CALL	_serialSend
0001a8   f024
0001aa   52e6     movf    0xe6, 0x1, 0x0   	MOVF	POSTINC1, F
                                           ;	.line	68; alarm.c	serialSend(':');
0001ac   0e3a     movlw   0x3a             	MOVLW	0x3a
0001ae   6ee5     movwf   0xe5, 0x0        	MOVWF	POSTDEC1
0001b0   ec86     call    0x00490c, 0x0    	CALL	_serialSend
0001b2   f024
0001b4   52e6     movf    0xe6, 0x1, 0x0   	MOVF	POSTINC1, F
                                           ;	.line	69; alarm.c	serialSend(BCD2UpperCh(sec));
0001b6   5004     movf    0x04, 0x0, 0x0   	MOVF	r0x04, W
0001b8   6e0c     movwf   0x0c, 0x0        	MOVWF	r0x0c
0001ba   500c     movf    0x0c, 0x0, 0x0   	MOVF	r0x0c, W
0001bc   6ee5     movwf   0xe5, 0x0        	MOVWF	POSTDEC1
0001be   ec06     call    0x004e0c, 0x0    	CALL	_BCD2UpperCh
0001c0   f027
0001c2   6e0d     movwf   0x0d, 0x0        	MOVWF	r0x0d
0001c4   52e6     movf    0xe6, 0x1, 0x0   	MOVF	POSTINC1, F
0001c6   500d     movf    0x0d, 0x0, 0x0   	MOVF	r0x0d, W
0001c8   6ee5     movwf   0xe5, 0x0        	MOVWF	POSTDEC1
0001ca   ec86     call    0x00490c, 0x0    	CALL	_serialSend
0001cc   f024
0001ce   52e6     movf    0xe6, 0x1, 0x0   	MOVF	POSTINC1, F
                                           ;	.line	70; alarm.c	serialSend(BCD2LowerCh(sec));
0001d0   500c     movf    0x0c, 0x0, 0x0   	MOVF	r0x0c, W
0001d2   6ee5     movwf   0xe5, 0x0        	MOVWF	POSTDEC1
0001d4   ec56     call    0x004eac, 0x0    	CALL	_BCD2LowerCh
0001d6   f027
0001d8   6e0c     movwf   0x0c, 0x0        	MOVWF	r0x0c
0001da   52e6     movf    0xe6, 0x1, 0x0   	MOVF	POSTINC1, F
0001dc   500c     movf    0x0c, 0x0, 0x0   	MOVF	r0x0c, W
0001de   6ee5     movwf   0xe5, 0x0        	MOVWF	POSTDEC1
0001e0   ec86     call    0x00490c, 0x0    	CALL	_serialSend
0001e2   f024
0001e4   52e6     movf    0xe6, 0x1, 0x0   	MOVF	POSTINC1, F
                                           ;	.line	71; alarm.c	serialSend(13);
0001e6   0e0d     movlw   0x0d             	MOVLW	0x0d
0001e8   6ee5     movwf   0xe5, 0x0        	MOVWF	POSTDEC1
0001ea   ec86     call    0x00490c, 0x0    	CALL	_serialSend
0001ec   f024
0001ee   52e6     movf    0xe6, 0x1, 0x0   	MOVF	POSTINC1, F
                                           ;	.line	72; alarm.c	serialString("Date: ");
0001f0   0e00     movlw   0x00             	MOVLW	UPPER(___str_2)
0001f2   6e0e     movwf   0x0e, 0x0        	MOVWF	r0x0e
0001f4   0e38     movlw   0x38             	MOVLW	HIGH(___str_2)
0001f6   6e0d     movwf   0x0d, 0x0        	MOVWF	r0x0d
0001f8   0eb6     movlw   0xb6             	MOVLW	LOW(___str_2)
0001fa   6e0c     movwf   0x0c, 0x0        	MOVWF	r0x0c
0001fc   500e     movf    0x0e, 0x0, 0x0   	MOVF	r0x0e, W
0001fe   6ee5     movwf   0xe5, 0x0        	MOVWF	POSTDEC1
000200   500d     movf    0x0d, 0x0, 0x0   	MOVF	r0x0d, W
000202   6ee5     movwf   0xe5, 0x0        	MOVWF	POSTDEC1
000204   500c     movf    0x0c, 0x0, 0x0   	MOVF	r0x0c, W
000206   6ee5     movwf   0xe5, 0x0        	MOVWF	POSTDEC1
000208   eccf     call    0x003f9e, 0x0    	CALL	_serialString
00020a   f01f
00020c   0e03     movlw   0x03             	MOVLW	0x03
00020e   26e1     addwf   0xe1, 0x1, 0x0   	ADDWF	FSR1L, F
                                           ;	.line	73; alarm.c	serialSend(BCD2UpperCh(date));
000210   5006     movf    0x06, 0x0, 0x0   	MOVF	r0x06, W
000212   6e0c     movwf   0x0c, 0x0        	MOVWF	r0x0c
000214   500c     movf    0x0c, 0x0, 0x0   	MOVF	r0x0c, W
000216   6ee5     movwf   0xe5, 0x0        	MOVWF	POSTDEC1
000218   ec06     call    0x004e0c, 0x0    	CALL	_BCD2UpperCh
00021a   f027
00021c   6e0d     movwf   0x0d, 0x0        	MOVWF	r0x0d
00021e   52e6     movf    0xe6, 0x1, 0x0   	MOVF	POSTINC1, F
000220   500d     movf    0x0d, 0x0, 0x0   	MOVF	r0x0d, W
000222   6ee5     movwf   0xe5, 0x0        	MOVWF	POSTDEC1
000224   ec86     call    0x00490c, 0x0    	CALL	_serialSend
000226   f024
000228   52e6     movf    0xe6, 0x1, 0x0   	MOVF	POSTINC1, F
                                           ;	.line	74; alarm.c	serialSend(BCD2LowerCh(date));
00022a   500c     movf    0x0c, 0x0, 0x0   	MOVF	r0x0c, W
00022c   6ee5     movwf   0xe5, 0x0        	MOVWF	POSTDEC1
00022e   ec56     call    0x004eac, 0x0    	CALL	_BCD2LowerCh
000230   f027
000232   6e0c     movwf   0x0c, 0x0        	MOVWF	r0x0c
000234   52e6     movf    0xe6, 0x1, 0x0   	MOVF	POSTINC1, F
000236   500c     movf    0x0c, 0x0, 0x0   	MOVF	r0x0c, W
000238   6ee5     movwf   0xe5, 0x0        	MOVWF	POSTDEC1
00023a   ec86     call    0x00490c, 0x0    	CALL	_serialSend
00023c   f024
00023e   52e6     movf    0xe6, 0x1, 0x0   	MOVF	POSTINC1, F
                                           ;	.line	75; alarm.c	serialSend('/');
000240   0e2f     movlw   0x2f             	MOVLW	0x2f
000242   6ee5     movwf   0xe5, 0x0        	MOVWF	POSTDEC1
000244   ec86     call    0x00490c, 0x0    	CALL	_serialSend
000246   f024
000248   52e6     movf    0xe6, 0x1, 0x0   	MOVF	POSTINC1, F
                                           ;	.line	76; alarm.c	serialSend(BCD2UpperCh(month));
00024a   5008     movf    0x08, 0x0, 0x0   	MOVF	r0x08, W
00024c   6e0c     movwf   0x0c, 0x0        	MOVWF	r0x0c
00024e   500c     movf    0x0c, 0x0, 0x0   	MOVF	r0x0c, W
000250   6ee5     movwf   0xe5, 0x0        	MOVWF	POSTDEC1
000252   ec06     call    0x004e0c, 0x0    	CALL	_BCD2UpperCh
000254   f027
000256   6e0d     movwf   0x0d, 0x0        	MOVWF	r0x0d
000258   52e6     movf    0xe6, 0x1, 0x0   	MOVF	POSTINC1, F
00025a   500d     movf    0x0d, 0x0, 0x0   	MOVF	r0x0d, W
00025c   6ee5     movwf   0xe5, 0x0        	MOVWF	POSTDEC1
00025e   ec86     call    0x00490c, 0x0    	CALL	_serialSend
000260   f024
000262   52e6     movf    0xe6, 0x1, 0x0   	MOVF	POSTINC1, F
                                           ;	.line	77; alarm.c	serialSend(BCD2LowerCh(month));
000264   500c     movf    0x0c, 0x0, 0x0   	MOVF	r0x0c, W
000266   6ee5     movwf   0xe5, 0x0        	MOVWF	POSTDEC1
000268   ec56     call    0x004eac, 0x0    	CALL	_BCD2LowerCh
00026a   f027
00026c   6e0c     movwf   0x0c, 0x0        	MOVWF	r0x0c
00026e   52e6     movf    0xe6, 0x1, 0x0   	MOVF	POSTINC1, F
000270   500c     movf    0x0c, 0x0, 0x0   	MOVF	r0x0c, W
000272   6ee5     movwf   0xe5, 0x0        	MOVWF	POSTDEC1
000274   ec86     call    0x00490c, 0x0    	CALL	_serialSend
000276   f024
000278   52e6     movf    0xe6, 0x1, 0x0   	MOVF	POSTINC1, F
                                           ;	.line	78; alarm.c	serialSend('/');
00027a   0e2f     movlw   0x2f             	MOVLW	0x2f
00027c   6ee5     movwf   0xe5, 0x0        	MOVWF	POSTDEC1
00027e   ec86     call    0x00490c, 0x0    	CALL	_serialSend
000280   f024
000282   52e6     movf    0xe6, 0x1, 0x0   	MOVF	POSTINC1, F
                                           ;	.line	79; alarm.c	serialSend(BCD2UpperCh(year));
000284   500a     movf    0x0a, 0x0, 0x0   	MOVF	r0x0a, W
000286   6e0c     movwf   0x0c, 0x0        	MOVWF	r0x0c
000288   500c     movf    0x0c, 0x0, 0x0   	MOVF	r0x0c, W
00028a   6ee5     movwf   0xe5, 0x0        	MOVWF	POSTDEC1
00028c   ec06     call    0x004e0c, 0x0    	CALL	_BCD2UpperCh
00028e   f027
000290   6e0d     movwf   0x0d, 0x0        	MOVWF	r0x0d
000292   52e6     movf    0xe6, 0x1, 0x0   	MOVF	POSTINC1, F
000294   500d     movf    0x0d, 0x0, 0x0   	MOVF	r0x0d, W
000296   6ee5     movwf   0xe5, 0x0        	MOVWF	POSTDEC1
000298   ec86     call    0x00490c, 0x0    	CALL	_serialSend
00029a   f024
00029c   52e6     movf    0xe6, 0x1, 0x0   	MOVF	POSTINC1, F
                                           ;	.line	80; alarm.c	serialSend(BCD2LowerCh(year));
00029e   500c     movf    0x0c, 0x0, 0x0   	MOVF	r0x0c, W
0002a0   6ee5     movwf   0xe5, 0x0        	MOVWF	POSTDEC1
0002a2   ec56     call    0x004eac, 0x0    	CALL	_BCD2LowerCh
0002a4   f027
0002a6   6e0c     movwf   0x0c, 0x0        	MOVWF	r0x0c
0002a8   52e6     movf    0xe6, 0x1, 0x0   	MOVF	POSTINC1, F
0002aa   500c     movf    0x0c, 0x0, 0x0   	MOVF	r0x0c, W
0002ac   6ee5     movwf   0xe5, 0x0        	MOVWF	POSTDEC1
0002ae   ec86     call    0x00490c, 0x0    	CALL	_serialSend
0002b0   f024
0002b2   52e6     movf    0xe6, 0x1, 0x0   	MOVF	POSTINC1, F
                                           ;	.line	81; alarm.c	serialSend(13);
0002b4   0e0d     movlw   0x0d             	MOVLW	0x0d
0002b6   6ee5     movwf   0xe5, 0x0        	MOVWF	POSTDEC1
0002b8   ec86     call    0x00490c, 0x0    	CALL	_serialSend
0002ba   f024
0002bc   52e6     movf    0xe6, 0x1, 0x0   	MOVF	POSTINC1, F
                                           _00132_DS_:
                                           ;	.line	83; alarm.c	if(alarmNew != alarmAnt & alarmNew == 0)
0002be   6a0c     clrf    0x0c, 0x0        	CLRF	r0x0c
0002c0   0100     movlb   0x0              	BANKSEL	_alarmNew
0002c2   51ae     movf    0xae, 0x0, 0x1   	MOVF	_alarmNew, W, B
0002c4   0100     movlb   0x0              	BANKSEL	_alarmAnt
0002c6   19af     xorwf   0xaf, 0x0, 0x1   	XORWF	_alarmAnt, W, B
0002c8   e101     bnz     0x0002cc         	BNZ	_00168_DS_
0002ca   2a0c     incf    0x0c, 0x1, 0x0   	INCF	r0x0c, F
                                           _00168_DS_:
0002cc   500c     movf    0x0c, 0x0, 0x0   	MOVF	r0x0c, W
0002ce   80d8     bsf     0xd8, 0x0, 0x0   	BSF	STATUS, 0
0002d0   66e8     tstfsz  0xe8, 0x0        	TSTFSZ	WREG
0002d2   90d8     bcf     0xd8, 0x0, 0x0   	BCF	STATUS, 0
0002d4   6a0c     clrf    0x0c, 0x0        	CLRF	r0x0c
0002d6   360c     rlcf    0x0c, 0x1, 0x0   	RLCF	r0x0c, F
0002d8   0100     movlb   0x0              	BANKSEL	_alarmNew
0002da   51ae     movf    0xae, 0x0, 0x1   	MOVF	_alarmNew, W, B
0002dc   80d8     bsf     0xd8, 0x0, 0x0   	BSF	STATUS, 0
0002de   66e8     tstfsz  0xe8, 0x0        	TSTFSZ	WREG
0002e0   90d8     bcf     0xd8, 0x0, 0x0   	BCF	STATUS, 0
0002e2   6a0d     clrf    0x0d, 0x0        	CLRF	r0x0d
0002e4   360d     rlcf    0x0d, 0x1, 0x0   	RLCF	r0x0d, F
0002e6   500d     movf    0x0d, 0x0, 0x0   	MOVF	r0x0d, W
0002e8   160c     andwf   0x0c, 0x1, 0x0   	ANDWF	r0x0c, F
0002ea   500c     movf    0x0c, 0x0, 0x0   	MOVF	r0x0c, W
0002ec   b4d8     btfsc   0xd8, 0x2, 0x0   	BTFSC	STATUS, 2
0002ee   d121     bra     0x000532         	BRA	_00134_DS_
                                           ;	.line	86; alarm.c	min = rtcRead(0x01);
0002f0   0e01     movlw   0x01             	MOVLW	0x01
0002f2   6ee5     movwf   0xe5, 0x0        	MOVWF	POSTDEC1
0002f4   ecae     call    0x00495c, 0x0    	CALL	_rtcRead
0002f6   f024
0002f8   6e0c     movwf   0x0c, 0x0        	MOVWF	r0x0c
0002fa   52e6     movf    0xe6, 0x1, 0x0   	MOVF	POSTINC1, F
0002fc   c00c     movff   0x00c, 0x000     	MOVFF	r0x0c, r0x00
0002fe   f000
000300   6a01     clrf    0x01, 0x0        	CLRF	r0x01
                                           ;	.line	87; alarm.c	hour = rtcRead(0x02);
000302   0e02     movlw   0x02             	MOVLW	0x02
000304   6ee5     movwf   0xe5, 0x0        	MOVWF	POSTDEC1
000306   ecae     call    0x00495c, 0x0    	CALL	_rtcRead
000308   f024
00030a   6e0c     movwf   0x0c, 0x0        	MOVWF	r0x0c
00030c   52e6     movf    0xe6, 0x1, 0x0   	MOVF	POSTINC1, F
00030e   c00c     movff   0x00c, 0x002     	MOVFF	r0x0c, r0x02
000310   f002
000312   6a03     clrf    0x03, 0x0        	CLRF	r0x03
                                           ;	.line	88; alarm.c	sec = rtcRead(0x00);
000314   0e00     movlw   0x00             	MOVLW	0x00
000316   6ee5     movwf   0xe5, 0x0        	MOVWF	POSTDEC1
000318   ecae     call    0x00495c, 0x0    	CALL	_rtcRead
00031a   f024
00031c   6e0c     movwf   0x0c, 0x0        	MOVWF	r0x0c
00031e   52e6     movf    0xe6, 0x1, 0x0   	MOVF	POSTINC1, F
000320   c00c     movff   0x00c, 0x004     	MOVFF	r0x0c, r0x04
000322   f004
000324   6a05     clrf    0x05, 0x0        	CLRF	r0x05
                                           ;	.line	89; alarm.c	date = rtcRead(0x04);
000326   0e04     movlw   0x04             	MOVLW	0x04
000328   6ee5     movwf   0xe5, 0x0        	MOVWF	POSTDEC1
00032a   ecae     call    0x00495c, 0x0    	CALL	_rtcRead
00032c   f024
00032e   6e0c     movwf   0x0c, 0x0        	MOVWF	r0x0c
000330   52e6     movf    0xe6, 0x1, 0x0   	MOVF	POSTINC1, F
000332   c00c     movff   0x00c, 0x006     	MOVFF	r0x0c, r0x06
000334   f006
000336   6a07     clrf    0x07, 0x0        	CLRF	r0x07
                                           ;	.line	90; alarm.c	month = rtcRead(0x05);
000338   0e05     movlw   0x05             	MOVLW	0x05
00033a   6ee5     movwf   0xe5, 0x0        	MOVWF	POSTDEC1
00033c   ecae     call    0x00495c, 0x0    	CALL	_rtcRead
00033e   f024
000340   6e0c     movwf   0x0c, 0x0        	MOVWF	r0x0c
000342   52e6     movf    0xe6, 0x1, 0x0   	MOVF	POSTINC1, F
000344   c00c     movff   0x00c, 0x008     	MOVFF	r0x0c, r0x08
000346   f008
000348   6a09     clrf    0x09, 0x0        	CLRF	r0x09
                                           ;	.line	91; alarm.c	year = rtcRead(0x06);
00034a   0e06     movlw   0x06             	MOVLW	0x06
00034c   6ee5     movwf   0xe5, 0x0        	MOVWF	POSTDEC1
00034e   ecae     call    0x00495c, 0x0    	CALL	_rtcRead
000350   f024
000352   6e0c     movwf   0x0c, 0x0        	MOVWF	r0x0c
000354   52e6     movf    0xe6, 0x1, 0x0   	MOVF	POSTINC1, F
000356   c00c     movff   0x00c, 0x00a     	MOVFF	r0x0c, r0x0a
000358   f00a
00035a   6a0b     clrf    0x0b, 0x0        	CLRF	r0x0b
                                           ;	.line	93; alarm.c	ledON(1);
00035c   0e00     movlw   0x00             	MOVLW	0x00
00035e   6ee5     movwf   0xe5, 0x0        	MOVWF	POSTDEC1
000360   0e01     movlw   0x01             	MOVLW	0x01
000362   6ee5     movwf   0xe5, 0x0        	MOVWF	POSTDEC1
000364   ec5b     call    0x0040b6, 0x0    	CALL	_ledON
000366   f020
000368   52e6     movf    0xe6, 0x1, 0x0   	MOVF	POSTINC1, F
00036a   52e6     movf    0xe6, 0x1, 0x0   	MOVF	POSTINC1, F
                                           ;	.line	94; alarm.c	serialString("Alarm High 0 Desligado");
00036c   0e00     movlw   0x00             	MOVLW	UPPER(___str_3)
00036e   6e0e     movwf   0x0e, 0x0        	MOVWF	r0x0e
000370   0e38     movlw   0x38             	MOVLW	HIGH(___str_3)
000372   6e0d     movwf   0x0d, 0x0        	MOVWF	r0x0d
000374   0ebe     movlw   0xbe             	MOVLW	LOW(___str_3)
000376   6e0c     movwf   0x0c, 0x0        	MOVWF	r0x0c
000378   500e     movf    0x0e, 0x0, 0x0   	MOVF	r0x0e, W
00037a   6ee5     movwf   0xe5, 0x0        	MOVWF	POSTDEC1
00037c   500d     movf    0x0d, 0x0, 0x0   	MOVF	r0x0d, W
00037e   6ee5     movwf   0xe5, 0x0        	MOVWF	POSTDEC1
000380   500c     movf    0x0c, 0x0, 0x0   	MOVF	r0x0c, W
000382   6ee5     movwf   0xe5, 0x0        	MOVWF	POSTDEC1
000384   eccf     call    0x003f9e, 0x0    	CALL	_serialString
000386   f01f
000388   0e03     movlw   0x03             	MOVLW	0x03
00038a   26e1     addwf   0xe1, 0x1, 0x0   	ADDWF	FSR1L, F
                                           ;	.line	95; alarm.c	serialSend(13);
00038c   0e0d     movlw   0x0d             	MOVLW	0x0d
00038e   6ee5     movwf   0xe5, 0x0        	MOVWF	POSTDEC1
000390   ec86     call    0x00490c, 0x0    	CALL	_serialSend
000392   f024
000394   52e6     movf    0xe6, 0x1, 0x0   	MOVF	POSTINC1, F
                                           ;	.line	96; alarm.c	serialString("Time: ");
000396   0e00     movlw   0x00             	MOVLW	UPPER(___str_1)
000398   6e0e     movwf   0x0e, 0x0        	MOVWF	r0x0e
00039a   0e38     movlw   0x38             	MOVLW	HIGH(___str_1)
00039c   6e0d     movwf   0x0d, 0x0        	MOVWF	r0x0d
00039e   0eae     movlw   0xae             	MOVLW	LOW(___str_1)
0003a0   6e0c     movwf   0x0c, 0x0        	MOVWF	r0x0c
0003a2   500e     movf    0x0e, 0x0, 0x0   	MOVF	r0x0e, W
0003a4   6ee5     movwf   0xe5, 0x0        	MOVWF	POSTDEC1
0003a6   500d     movf    0x0d, 0x0, 0x0   	MOVF	r0x0d, W
0003a8   6ee5     movwf   0xe5, 0x0        	MOVWF	POSTDEC1
0003aa   500c     movf    0x0c, 0x0, 0x0   	MOVF	r0x0c, W
0003ac   6ee5     movwf   0xe5, 0x0        	MOVWF	POSTDEC1
0003ae   eccf     call    0x003f9e, 0x0    	CALL	_serialString
0003b0   f01f
0003b2   0e03     movlw   0x03             	MOVLW	0x03
0003b4   26e1     addwf   0xe1, 0x1, 0x0   	ADDWF	FSR1L, F
                                           ;	.line	97; alarm.c	serialSend(BCD2UpperCh(hour));
0003b6   5002     movf    0x02, 0x0, 0x0   	MOVF	r0x02, W
0003b8   6e0c     movwf   0x0c, 0x0        	MOVWF	r0x0c
0003ba   500c     movf    0x0c, 0x0, 0x0   	MOVF	r0x0c, W
0003bc   6ee5     movwf   0xe5, 0x0        	MOVWF	POSTDEC1
0003be   ec06     call    0x004e0c, 0x0    	CALL	_BCD2UpperCh
0003c0   f027
0003c2   6e0d     movwf   0x0d, 0x0        	MOVWF	r0x0d
0003c4   52e6     movf    0xe6, 0x1, 0x0   	MOVF	POSTINC1, F
0003c6   500d     movf    0x0d, 0x0, 0x0   	MOVF	r0x0d, W
0003c8   6ee5     movwf   0xe5, 0x0        	MOVWF	POSTDEC1
0003ca   ec86     call    0x00490c, 0x0    	CALL	_serialSend
0003cc   f024
0003ce   52e6     movf    0xe6, 0x1, 0x0   	MOVF	POSTINC1, F
                                           ;	.line	98; alarm.c	serialSend(BCD2LowerCh(hour));
0003d0   500c     movf    0x0c, 0x0, 0x0   	MOVF	r0x0c, W
0003d2   6ee5     movwf   0xe5, 0x0        	MOVWF	POSTDEC1
0003d4   ec56     call    0x004eac, 0x0    	CALL	_BCD2LowerCh
0003d6   f027
0003d8   6e0c     movwf   0x0c, 0x0        	MOVWF	r0x0c
0003da   52e6     movf    0xe6, 0x1, 0x0   	MOVF	POSTINC1, F
0003dc   500c     movf    0x0c, 0x0, 0x0   	MOVF	r0x0c, W
0003de   6ee5     movwf   0xe5, 0x0        	MOVWF	POSTDEC1
0003e0   ec86     call    0x00490c, 0x0    	CALL	_serialSend
0003e2   f024
0003e4   52e6     movf    0xe6, 0x1, 0x0   	MOVF	POSTINC1, F
                                           ;	.line	99; alarm.c	serialSend(':');
0003e6   0e3a     movlw   0x3a             	MOVLW	0x3a
0003e8   6ee5     movwf   0xe5, 0x0        	MOVWF	POSTDEC1
0003ea   ec86     call    0x00490c, 0x0    	CALL	_serialSend
0003ec   f024
0003ee   52e6     movf    0xe6, 0x1, 0x0   	MOVF	POSTINC1, F
                                           ;	.line	100; alarm.c	serialSend(BCD2UpperCh(min));
0003f0   5000     movf    0x00, 0x0, 0x0   	MOVF	r0x00, W
0003f2   6e0c     movwf   0x0c, 0x0        	MOVWF	r0x0c
0003f4   500c     movf    0x0c, 0x0, 0x0   	MOVF	r0x0c, W
0003f6   6ee5     movwf   0xe5, 0x0        	MOVWF	POSTDEC1
0003f8   ec06     call    0x004e0c, 0x0    	CALL	_BCD2UpperCh
0003fa   f027
0003fc   6e0d     movwf   0x0d, 0x0        	MOVWF	r0x0d
0003fe   52e6     movf    0xe6, 0x1, 0x0   	MOVF	POSTINC1, F
000400   500d     movf    0x0d, 0x0, 0x0   	MOVF	r0x0d, W
000402   6ee5     movwf   0xe5, 0x0        	MOVWF	POSTDEC1
000404   ec86     call    0x00490c, 0x0    	CALL	_serialSend
000406   f024
000408   52e6     movf    0xe6, 0x1, 0x0   	MOVF	POSTINC1, F
                                           ;	.line	101; alarm.c	serialSend(BCD2LowerCh(min));
00040a   500c     movf    0x0c, 0x0, 0x0   	MOVF	r0x0c, W
00040c   6ee5     movwf   0xe5, 0x0        	MOVWF	POSTDEC1
00040e   ec56     call    0x004eac, 0x0    	CALL	_BCD2LowerCh
000410   f027
000412   6e0c     movwf   0x0c, 0x0        	MOVWF	r0x0c
000414   52e6     movf    0xe6, 0x1, 0x0   	MOVF	POSTINC1, F
000416   500c     movf    0x0c, 0x0, 0x0   	MOVF	r0x0c, W
000418   6ee5     movwf   0xe5, 0x0        	MOVWF	POSTDEC1
00041a   ec86     call    0x00490c, 0x0    	CALL	_serialSend
00041c   f024
00041e   52e6     movf    0xe6, 0x1, 0x0   	MOVF	POSTINC1, F
                                           ;	.line	102; alarm.c	serialSend(':');
000420   0e3a     movlw   0x3a             	MOVLW	0x3a
000422   6ee5     movwf   0xe5, 0x0        	MOVWF	POSTDEC1
000424   ec86     call    0x00490c, 0x0    	CALL	_serialSend
000426   f024
000428   52e6     movf    0xe6, 0x1, 0x0   	MOVF	POSTINC1, F
                                           ;	.line	103; alarm.c	serialSend(BCD2UpperCh(sec));
00042a   5004     movf    0x04, 0x0, 0x0   	MOVF	r0x04, W
00042c   6e0c     movwf   0x0c, 0x0        	MOVWF	r0x0c
00042e   500c     movf    0x0c, 0x0, 0x0   	MOVF	r0x0c, W
000430   6ee5     movwf   0xe5, 0x0        	MOVWF	POSTDEC1
000432   ec06     call    0x004e0c, 0x0    	CALL	_BCD2UpperCh
000434   f027
000436   6e0d     movwf   0x0d, 0x0        	MOVWF	r0x0d
000438   52e6     movf    0xe6, 0x1, 0x0   	MOVF	POSTINC1, F
00043a   500d     movf    0x0d, 0x0, 0x0   	MOVF	r0x0d, W
00043c   6ee5     movwf   0xe5, 0x0        	MOVWF	POSTDEC1
00043e   ec86     call    0x00490c, 0x0    	CALL	_serialSend
000440   f024
000442   52e6     movf    0xe6, 0x1, 0x0   	MOVF	POSTINC1, F
                                           ;	.line	104; alarm.c	serialSend(BCD2LowerCh(sec));
000444   500c     movf    0x0c, 0x0, 0x0   	MOVF	r0x0c, W
000446   6ee5     movwf   0xe5, 0x0        	MOVWF	POSTDEC1
000448   ec56     call    0x004eac, 0x0    	CALL	_BCD2LowerCh
00044a   f027
00044c   6e0c     movwf   0x0c, 0x0        	MOVWF	r0x0c
00044e   52e6     movf    0xe6, 0x1, 0x0   	MOVF	POSTINC1, F
000450   500c     movf    0x0c, 0x0, 0x0   	MOVF	r0x0c, W
000452   6ee5     movwf   0xe5, 0x0        	MOVWF	POSTDEC1
000454   ec86     call    0x00490c, 0x0    	CALL	_serialSend
000456   f024
000458   52e6     movf    0xe6, 0x1, 0x0   	MOVF	POSTINC1, F
                                           ;	.line	105; alarm.c	serialSend(13);
00045a   0e0d     movlw   0x0d             	MOVLW	0x0d
00045c   6ee5     movwf   0xe5, 0x0        	MOVWF	POSTDEC1
00045e   ec86     call    0x00490c, 0x0    	CALL	_serialSend
000460   f024
000462   52e6     movf    0xe6, 0x1, 0x0   	MOVF	POSTINC1, F
                                           ;	.line	106; alarm.c	serialString("Date: ");
000464   0e00     movlw   0x00             	MOVLW	UPPER(___str_2)
000466   6e0e     movwf   0x0e, 0x0        	MOVWF	r0x0e
000468   0e38     movlw   0x38             	MOVLW	HIGH(___str_2)
00046a   6e0d     movwf   0x0d, 0x0        	MOVWF	r0x0d
00046c   0eb6     movlw   0xb6             	MOVLW	LOW(___str_2)
00046e   6e0c     movwf   0x0c, 0x0        	MOVWF	r0x0c
000470   500e     movf    0x0e, 0x0, 0x0   	MOVF	r0x0e, W
000472   6ee5     movwf   0xe5, 0x0        	MOVWF	POSTDEC1
000474   500d     movf    0x0d, 0x0, 0x0   	MOVF	r0x0d, W
000476   6ee5     movwf   0xe5, 0x0        	MOVWF	POSTDEC1
000478   500c     movf    0x0c, 0x0, 0x0   	MOVF	r0x0c, W
00047a   6ee5     movwf   0xe5, 0x0        	MOVWF	POSTDEC1
00047c   eccf     call    0x003f9e, 0x0    	CALL	_serialString
00047e   f01f
000480   0e03     movlw   0x03             	MOVLW	0x03
000482   26e1     addwf   0xe1, 0x1, 0x0   	ADDWF	FSR1L, F
                                           ;	.line	107; alarm.c	serialSend(BCD2UpperCh(date));
000484   5006     movf    0x06, 0x0, 0x0   	MOVF	r0x06, W
000486   6e0c     movwf   0x0c, 0x0        	MOVWF	r0x0c
000488   500c     movf    0x0c, 0x0, 0x0   	MOVF	r0x0c, W
00048a   6ee5     movwf   0xe5, 0x0        	MOVWF	POSTDEC1
00048c   ec06     call    0x004e0c, 0x0    	CALL	_BCD2UpperCh
00048e   f027
000490   6e0d     movwf   0x0d, 0x0        	MOVWF	r0x0d
000492   52e6     movf    0xe6, 0x1, 0x0   	MOVF	POSTINC1, F
000494   500d     movf    0x0d, 0x0, 0x0   	MOVF	r0x0d, W
000496   6ee5     movwf   0xe5, 0x0        	MOVWF	POSTDEC1
000498   ec86     call    0x00490c, 0x0    	CALL	_serialSend
00049a   f024
00049c   52e6     movf    0xe6, 0x1, 0x0   	MOVF	POSTINC1, F
                                           ;	.line	108; alarm.c	serialSend(BCD2LowerCh(date));
00049e   500c     movf    0x0c, 0x0, 0x0   	MOVF	r0x0c, W
0004a0   6ee5     movwf   0xe5, 0x0        	MOVWF	POSTDEC1
0004a2   ec56     call    0x004eac, 0x0    	CALL	_BCD2LowerCh
0004a4   f027
0004a6   6e0c     movwf   0x0c, 0x0        	MOVWF	r0x0c
0004a8   52e6     movf    0xe6, 0x1, 0x0   	MOVF	POSTINC1, F
0004aa   500c     movf    0x0c, 0x0, 0x0   	MOVF	r0x0c, W
0004ac   6ee5     movwf   0xe5, 0x0        	MOVWF	POSTDEC1
0004ae   ec86     call    0x00490c, 0x0    	CALL	_serialSend
0004b0   f024
0004b2   52e6     movf    0xe6, 0x1, 0x0   	MOVF	POSTINC1, F
                                           ;	.line	109; alarm.c	serialSend('/');
0004b4   0e2f     movlw   0x2f             	MOVLW	0x2f
0004b6   6ee5     movwf   0xe5, 0x0        	MOVWF	POSTDEC1
0004b8   ec86     call    0x00490c, 0x0    	CALL	_serialSend
0004ba   f024
0004bc   52e6     movf    0xe6, 0x1, 0x0   	MOVF	POSTINC1, F
                                           ;	.line	110; alarm.c	serialSend(BCD2UpperCh(month));
0004be   5008     movf    0x08, 0x0, 0x0   	MOVF	r0x08, W
0004c0   6e0c     movwf   0x0c, 0x0        	MOVWF	r0x0c
0004c2   500c     movf    0x0c, 0x0, 0x0   	MOVF	r0x0c, W
0004c4   6ee5     movwf   0xe5, 0x0        	MOVWF	POSTDEC1
0004c6   ec06     call    0x004e0c, 0x0    	CALL	_BCD2UpperCh
0004c8   f027
0004ca   6e0d     movwf   0x0d, 0x0        	MOVWF	r0x0d
0004cc   52e6     movf    0xe6, 0x1, 0x0   	MOVF	POSTINC1, F
0004ce   500d     movf    0x0d, 0x0, 0x0   	MOVF	r0x0d, W
0004d0   6ee5     movwf   0xe5, 0x0        	MOVWF	POSTDEC1
0004d2   ec86     call    0x00490c, 0x0    	CALL	_serialSend
0004d4   f024
0004d6   52e6     movf    0xe6, 0x1, 0x0   	MOVF	POSTINC1, F
                                           ;	.line	111; alarm.c	serialSend(BCD2LowerCh(month));
0004d8   500c     movf    0x0c, 0x0, 0x0   	MOVF	r0x0c, W
0004da   6ee5     movwf   0xe5, 0x0        	MOVWF	POSTDEC1
0004dc   ec56     call    0x004eac, 0x0    	CALL	_BCD2LowerCh
0004de   f027
0004e0   6e0c     movwf   0x0c, 0x0        	MOVWF	r0x0c
0004e2   52e6     movf    0xe6, 0x1, 0x0   	MOVF	POSTINC1, F
0004e4   500c     movf    0x0c, 0x0, 0x0   	MOVF	r0x0c, W
0004e6   6ee5     movwf   0xe5, 0x0        	MOVWF	POSTDEC1
0004e8   ec86     call    0x00490c, 0x0    	CALL	_serialSend
0004ea   f024
0004ec   52e6     movf    0xe6, 0x1, 0x0   	MOVF	POSTINC1, F
                                           ;	.line	112; alarm.c	serialSend('/');
0004ee   0e2f     movlw   0x2f             	MOVLW	0x2f
0004f0   6ee5     movwf   0xe5, 0x0        	MOVWF	POSTDEC1
0004f2   ec86     call    0x00490c, 0x0    	CALL	_serialSend
0004f4   f024
0004f6   52e6     movf    0xe6, 0x1, 0x0   	MOVF	POSTINC1, F
                                           ;	.line	113; alarm.c	serialSend(BCD2UpperCh(year));
0004f8   500a     movf    0x0a, 0x0, 0x0   	MOVF	r0x0a, W
0004fa   6e0c     movwf   0x0c, 0x0        	MOVWF	r0x0c
0004fc   500c     movf    0x0c, 0x0, 0x0   	MOVF	r0x0c, W
0004fe   6ee5     movwf   0xe5, 0x0        	MOVWF	POSTDEC1
000500   ec06     call    0x004e0c, 0x0    	CALL	_BCD2UpperCh
000502   f027
000504   6e0d     movwf   0x0d, 0x0        	MOVWF	r0x0d
000506   52e6     movf    0xe6, 0x1, 0x0   	MOVF	POSTINC1, F
000508   500d     movf    0x0d, 0x0, 0x0   	MOVF	r0x0d, W
00050a   6ee5     movwf   0xe5, 0x0        	MOVWF	POSTDEC1
00050c   ec86     call    0x00490c, 0x0    	CALL	_serialSend
00050e   f024
000510   52e6     movf    0xe6, 0x1, 0x0   	MOVF	POSTINC1, F
                                           ;	.line	114; alarm.c	serialSend(BCD2LowerCh(year));
000512   500c     movf    0x0c, 0x0, 0x0   	MOVF	r0x0c, W
000514   6ee5     movwf   0xe5, 0x0        	MOVWF	POSTDEC1
000516   ec56     call    0x004eac, 0x0    	CALL	_BCD2LowerCh
000518   f027
00051a   6e0c     movwf   0x0c, 0x0        	MOVWF	r0x0c
00051c   52e6     movf    0xe6, 0x1, 0x0   	MOVF	POSTINC1, F
00051e   500c     movf    0x0c, 0x0, 0x0   	MOVF	r0x0c, W
000520   6ee5     movwf   0xe5, 0x0        	MOVWF	POSTDEC1
000522   ec86     call    0x00490c, 0x0    	CALL	_serialSend
000524   f024
000526   52e6     movf    0xe6, 0x1, 0x0   	MOVF	POSTINC1, F
                                           ;	.line	115; alarm.c	serialSend(13);
000528   0e0d     movlw   0x0d             	MOVLW	0x0d
00052a   6ee5     movwf   0xe5, 0x0        	MOVWF	POSTDEC1
00052c   ec86     call    0x00490c, 0x0    	CALL	_serialSend
00052e   f024
000530   52e6     movf    0xe6, 0x1, 0x0   	MOVF	POSTINC1, F
                                           _00134_DS_:
000532   0100     movlb   0x0              	BANKSEL	_alarmNew
                                           ;	.line	117; alarm.c	if(alarmNew == 0)
000534   51ae     movf    0xae, 0x0, 0x1   	MOVF	_alarmNew, W, B
000536   e108     bnz     0x000548         	BNZ	_00136_DS_
                                           ;	.line	118; alarm.c	ledOFF(1);
000538   0e00     movlw   0x00             	MOVLW	0x00
00053a   6ee5     movwf   0xe5, 0x0        	MOVWF	POSTDEC1
00053c   0e01     movlw   0x01             	MOVLW	0x01
00053e   6ee5     movwf   0xe5, 0x0        	MOVWF	POSTDEC1
000540   ec16     call    0x00402c, 0x0    	CALL	_ledOFF
000542   f020
000544   52e6     movf    0xe6, 0x1, 0x0   	MOVF	POSTINC1, F
000546   52e6     movf    0xe6, 0x1, 0x0   	MOVF	POSTINC1, F
                                           _00136_DS_:
                                           ;	.line	120; alarm.c	if(alarmNewL != alarmAntL & alarmNewL == 1)
000548   6a0c     clrf    0x0c, 0x0        	CLRF	r0x0c
00054a   0100     movlb   0x0              	BANKSEL	_alarmNewL
00054c   51b0     movf    0xb0, 0x0, 0x1   	MOVF	_alarmNewL, W, B
00054e   0100     movlb   0x0              	BANKSEL	_alarmAntL
000550   19b1     xorwf   0xb1, 0x0, 0x1   	XORWF	_alarmAntL, W, B
000552   e101     bnz     0x000556         	BNZ	_00170_DS_
000554   2a0c     incf    0x0c, 0x1, 0x0   	INCF	r0x0c, F
                                           _00170_DS_:
000556   500c     movf    0x0c, 0x0, 0x0   	MOVF	r0x0c, W
000558   80d8     bsf     0xd8, 0x0, 0x0   	BSF	STATUS, 0
00055a   66e8     tstfsz  0xe8, 0x0        	TSTFSZ	WREG
00055c   90d8     bcf     0xd8, 0x0, 0x0   	BCF	STATUS, 0
00055e   6a0c     clrf    0x0c, 0x0        	CLRF	r0x0c
000560   360c     rlcf    0x0c, 0x1, 0x0   	RLCF	r0x0c, F
000562   6a0d     clrf    0x0d, 0x0        	CLRF	r0x0d
000564   0100     movlb   0x0              	BANKSEL	_alarmNewL
000566   51b0     movf    0xb0, 0x0, 0x1   	MOVF	_alarmNewL, W, B
000568   0a01     xorlw   0x01             	XORLW	0x01
00056a   e101     bnz     0x00056e         	BNZ	_00172_DS_
00056c   2a0d     incf    0x0d, 0x1, 0x0   	INCF	r0x0d, F
                                           _00172_DS_:
00056e   500c     movf    0x0c, 0x0, 0x0   	MOVF	r0x0c, W
000570   160d     andwf   0x0d, 0x1, 0x0   	ANDWF	r0x0d, F
000572   500d     movf    0x0d, 0x0, 0x0   	MOVF	r0x0d, W
000574   b4d8     btfsc   0xd8, 0x2, 0x0   	BTFSC	STATUS, 2
000576   d121     bra     0x0007ba         	BRA	_00138_DS_
                                           ;	.line	122; alarm.c	ledON(0);
000578   0e00     movlw   0x00             	MOVLW	0x00
00057a   6ee5     movwf   0xe5, 0x0        	MOVWF	POSTDEC1
00057c   0e00     movlw   0x00             	MOVLW	0x00
00057e   6ee5     movwf   0xe5, 0x0        	MOVWF	POSTDEC1
000580   ec5b     call    0x0040b6, 0x0    	CALL	_ledON
000582   f020
000584   52e6     movf    0xe6, 0x1, 0x0   	MOVF	POSTINC1, F
000586   52e6     movf    0xe6, 0x1, 0x0   	MOVF	POSTINC1, F
                                           ;	.line	123; alarm.c	min = rtcRead(0x01);
000588   0e01     movlw   0x01             	MOVLW	0x01
00058a   6ee5     movwf   0xe5, 0x0        	MOVWF	POSTDEC1
00058c   ecae     call    0x00495c, 0x0    	CALL	_rtcRead
00058e   f024
000590   6e0c     movwf   0x0c, 0x0        	MOVWF	r0x0c
000592   52e6     movf    0xe6, 0x1, 0x0   	MOVF	POSTINC1, F
000594   c00c     movff   0x00c, 0x000     	MOVFF	r0x0c, r0x00
000596   f000
000598   6a01     clrf    0x01, 0x0        	CLRF	r0x01
                                           ;	.line	124; alarm.c	hour = rtcRead(0x02);
00059a   0e02     movlw   0x02             	MOVLW	0x02
00059c   6ee5     movwf   0xe5, 0x0        	MOVWF	POSTDEC1
00059e   ecae     call    0x00495c, 0x0    	CALL	_rtcRead
0005a0   f024
0005a2   6e0c     movwf   0x0c, 0x0        	MOVWF	r0x0c
0005a4   52e6     movf    0xe6, 0x1, 0x0   	MOVF	POSTINC1, F
0005a6   c00c     movff   0x00c, 0x002     	MOVFF	r0x0c, r0x02
0005a8   f002
0005aa   6a03     clrf    0x03, 0x0        	CLRF	r0x03
                                           ;	.line	125; alarm.c	sec = rtcRead(0x00);
0005ac   0e00     movlw   0x00             	MOVLW	0x00
0005ae   6ee5     movwf   0xe5, 0x0        	MOVWF	POSTDEC1
0005b0   ecae     call    0x00495c, 0x0    	CALL	_rtcRead
0005b2   f024
0005b4   6e0c     movwf   0x0c, 0x0        	MOVWF	r0x0c
0005b6   52e6     movf    0xe6, 0x1, 0x0   	MOVF	POSTINC1, F
0005b8   c00c     movff   0x00c, 0x004     	MOVFF	r0x0c, r0x04
0005ba   f004
0005bc   6a05     clrf    0x05, 0x0        	CLRF	r0x05
                                           ;	.line	126; alarm.c	date = rtcRead(0x04);
0005be   0e04     movlw   0x04             	MOVLW	0x04
0005c0   6ee5     movwf   0xe5, 0x0        	MOVWF	POSTDEC1
0005c2   ecae     call    0x00495c, 0x0    	CALL	_rtcRead
0005c4   f024
0005c6   6e0c     movwf   0x0c, 0x0        	MOVWF	r0x0c
0005c8   52e6     movf    0xe6, 0x1, 0x0   	MOVF	POSTINC1, F
0005ca   c00c     movff   0x00c, 0x006     	MOVFF	r0x0c, r0x06
0005cc   f006
0005ce   6a07     clrf    0x07, 0x0        	CLRF	r0x07
                                           ;	.line	127; alarm.c	month = rtcRead(0x05);
0005d0   0e05     movlw   0x05             	MOVLW	0x05
0005d2   6ee5     movwf   0xe5, 0x0        	MOVWF	POSTDEC1
0005d4   ecae     call    0x00495c, 0x0    	CALL	_rtcRead
0005d6   f024
0005d8   6e0c     movwf   0x0c, 0x0        	MOVWF	r0x0c
0005da   52e6     movf    0xe6, 0x1, 0x0   	MOVF	POSTINC1, F
0005dc   c00c     movff   0x00c, 0x008     	MOVFF	r0x0c, r0x08
0005de   f008
0005e0   6a09     clrf    0x09, 0x0        	CLRF	r0x09
                                           ;	.line	128; alarm.c	year = rtcRead(0x06);
0005e2   0e06     movlw   0x06             	MOVLW	0x06
0005e4   6ee5     movwf   0xe5, 0x0        	MOVWF	POSTDEC1
0005e6   ecae     call    0x00495c, 0x0    	CALL	_rtcRead
0005e8   f024
0005ea   6e0c     movwf   0x0c, 0x0        	MOVWF	r0x0c
0005ec   52e6     movf    0xe6, 0x1, 0x0   	MOVF	POSTINC1, F
0005ee   c00c     movff   0x00c, 0x00a     	MOVFF	r0x0c, r0x0a
0005f0   f00a
0005f2   6a0b     clrf    0x0b, 0x0        	CLRF	r0x0b
                                           ;	.line	131; alarm.c	serialString("Alarm Low 0 Acionado");
0005f4   0e00     movlw   0x00             	MOVLW	UPPER(___str_4)
0005f6   6e0e     movwf   0x0e, 0x0        	MOVWF	r0x0e
0005f8   0e38     movlw   0x38             	MOVLW	HIGH(___str_4)
0005fa   6e0d     movwf   0x0d, 0x0        	MOVWF	r0x0d
0005fc   0ed6     movlw   0xd6             	MOVLW	LOW(___str_4)
0005fe   6e0c     movwf   0x0c, 0x0        	MOVWF	r0x0c
000600   500e     movf    0x0e, 0x0, 0x0   	MOVF	r0x0e, W
000602   6ee5     movwf   0xe5, 0x0        	MOVWF	POSTDEC1
000604   500d     movf    0x0d, 0x0, 0x0   	MOVF	r0x0d, W
000606   6ee5     movwf   0xe5, 0x0        	MOVWF	POSTDEC1
000608   500c     movf    0x0c, 0x0, 0x0   	MOVF	r0x0c, W
00060a   6ee5     movwf   0xe5, 0x0        	MOVWF	POSTDEC1
00060c   eccf     call    0x003f9e, 0x0    	CALL	_serialString
00060e   f01f
000610   0e03     movlw   0x03             	MOVLW	0x03
000612   26e1     addwf   0xe1, 0x1, 0x0   	ADDWF	FSR1L, F
                                           ;	.line	132; alarm.c	serialSend(13);
000614   0e0d     movlw   0x0d             	MOVLW	0x0d
000616   6ee5     movwf   0xe5, 0x0        	MOVWF	POSTDEC1
000618   ec86     call    0x00490c, 0x0    	CALL	_serialSend
00061a   f024
00061c   52e6     movf    0xe6, 0x1, 0x0   	MOVF	POSTINC1, F
                                           ;	.line	133; alarm.c	serialString("Time: ");
00061e   0e00     movlw   0x00             	MOVLW	UPPER(___str_1)
000620   6e0e     movwf   0x0e, 0x0        	MOVWF	r0x0e
000622   0e38     movlw   0x38             	MOVLW	HIGH(___str_1)
000624   6e0d     movwf   0x0d, 0x0        	MOVWF	r0x0d
000626   0eae     movlw   0xae             	MOVLW	LOW(___str_1)
000628   6e0c     movwf   0x0c, 0x0        	MOVWF	r0x0c
00062a   500e     movf    0x0e, 0x0, 0x0   	MOVF	r0x0e, W
00062c   6ee5     movwf   0xe5, 0x0        	MOVWF	POSTDEC1
00062e   500d     movf    0x0d, 0x0, 0x0   	MOVF	r0x0d, W
000630   6ee5     movwf   0xe5, 0x0        	MOVWF	POSTDEC1
000632   500c     movf    0x0c, 0x0, 0x0   	MOVF	r0x0c, W
000634   6ee5     movwf   0xe5, 0x0        	MOVWF	POSTDEC1
000636   eccf     call    0x003f9e, 0x0    	CALL	_serialString
000638   f01f
00063a   0e03     movlw   0x03             	MOVLW	0x03
00063c   26e1     addwf   0xe1, 0x1, 0x0   	ADDWF	FSR1L, F
                                           ;	.line	134; alarm.c	serialSend(BCD2UpperCh(hour));
00063e   5002     movf    0x02, 0x0, 0x0   	MOVF	r0x02, W
000640   6e0c     movwf   0x0c, 0x0        	MOVWF	r0x0c
000642   500c     movf    0x0c, 0x0, 0x0   	MOVF	r0x0c, W
000644   6ee5     movwf   0xe5, 0x0        	MOVWF	POSTDEC1
000646   ec06     call    0x004e0c, 0x0    	CALL	_BCD2UpperCh
000648   f027
00064a   6e0d     movwf   0x0d, 0x0        	MOVWF	r0x0d
00064c   52e6     movf    0xe6, 0x1, 0x0   	MOVF	POSTINC1, F
00064e   500d     movf    0x0d, 0x0, 0x0   	MOVF	r0x0d, W
000650   6ee5     movwf   0xe5, 0x0        	MOVWF	POSTDEC1
000652   ec86     call    0x00490c, 0x0    	CALL	_serialSend
000654   f024
000656   52e6     movf    0xe6, 0x1, 0x0   	MOVF	POSTINC1, F
                                           ;	.line	135; alarm.c	serialSend(BCD2LowerCh(hour));
000658   500c     movf    0x0c, 0x0, 0x0   	MOVF	r0x0c, W
00065a   6ee5     movwf   0xe5, 0x0        	MOVWF	POSTDEC1
00065c   ec56     call    0x004eac, 0x0    	CALL	_BCD2LowerCh
00065e   f027
000660   6e0c     movwf   0x0c, 0x0        	MOVWF	r0x0c
000662   52e6     movf    0xe6, 0x1, 0x0   	MOVF	POSTINC1, F
000664   500c     movf    0x0c, 0x0, 0x0   	MOVF	r0x0c, W
000666   6ee5     movwf   0xe5, 0x0        	MOVWF	POSTDEC1
000668   ec86     call    0x00490c, 0x0    	CALL	_serialSend
00066a   f024
00066c   52e6     movf    0xe6, 0x1, 0x0   	MOVF	POSTINC1, F
                                           ;	.line	136; alarm.c	serialSend(':');
00066e   0e3a     movlw   0x3a             	MOVLW	0x3a
000670   6ee5     movwf   0xe5, 0x0        	MOVWF	POSTDEC1
000672   ec86     call    0x00490c, 0x0    	CALL	_serialSend
000674   f024
000676   52e6     movf    0xe6, 0x1, 0x0   	MOVF	POSTINC1, F
                                           ;	.line	137; alarm.c	serialSend(BCD2UpperCh(min));
000678   5000     movf    0x00, 0x0, 0x0   	MOVF	r0x00, W
00067a   6e0c     movwf   0x0c, 0x0        	MOVWF	r0x0c
00067c   500c     movf    0x0c, 0x0, 0x0   	MOVF	r0x0c, W
00067e   6ee5     movwf   0xe5, 0x0        	MOVWF	POSTDEC1
000680   ec06     call    0x004e0c, 0x0    	CALL	_BCD2UpperCh
000682   f027
000684   6e0d     movwf   0x0d, 0x0        	MOVWF	r0x0d
000686   52e6     movf    0xe6, 0x1, 0x0   	MOVF	POSTINC1, F
000688   500d     movf    0x0d, 0x0, 0x0   	MOVF	r0x0d, W
00068a   6ee5     movwf   0xe5, 0x0        	MOVWF	POSTDEC1
00068c   ec86     call    0x00490c, 0x0    	CALL	_serialSend
00068e   f024
000690   52e6     movf    0xe6, 0x1, 0x0   	MOVF	POSTINC1, F
                                           ;	.line	138; alarm.c	serialSend(BCD2LowerCh(min));
000692   500c     movf    0x0c, 0x0, 0x0   	MOVF	r0x0c, W
000694   6ee5     movwf   0xe5, 0x0        	MOVWF	POSTDEC1
000696   ec56     call    0x004eac, 0x0    	CALL	_BCD2LowerCh
000698   f027
00069a   6e0c     movwf   0x0c, 0x0        	MOVWF	r0x0c
00069c   52e6     movf    0xe6, 0x1, 0x0   	MOVF	POSTINC1, F
00069e   500c     movf    0x0c, 0x0, 0x0   	MOVF	r0x0c, W
0006a0   6ee5     movwf   0xe5, 0x0        	MOVWF	POSTDEC1
0006a2   ec86     call    0x00490c, 0x0    	CALL	_serialSend
0006a4   f024
0006a6   52e6     movf    0xe6, 0x1, 0x0   	MOVF	POSTINC1, F
                                           ;	.line	139; alarm.c	serialSend(':');
0006a8   0e3a     movlw   0x3a             	MOVLW	0x3a
0006aa   6ee5     movwf   0xe5, 0x0        	MOVWF	POSTDEC1
0006ac   ec86     call    0x00490c, 0x0    	CALL	_serialSend
0006ae   f024
0006b0   52e6     movf    0xe6, 0x1, 0x0   	MOVF	POSTINC1, F
                                           ;	.line	140; alarm.c	serialSend(BCD2UpperCh(sec));
0006b2   5004     movf    0x04, 0x0, 0x0   	MOVF	r0x04, W
0006b4   6e0c     movwf   0x0c, 0x0        	MOVWF	r0x0c
0006b6   500c     movf    0x0c, 0x0, 0x0   	MOVF	r0x0c, W
0006b8   6ee5     movwf   0xe5, 0x0        	MOVWF	POSTDEC1
0006ba   ec06     call    0x004e0c, 0x0    	CALL	_BCD2UpperCh
0006bc   f027
0006be   6e0d     movwf   0x0d, 0x0        	MOVWF	r0x0d
0006c0   52e6     movf    0xe6, 0x1, 0x0   	MOVF	POSTINC1, F
0006c2   500d     movf    0x0d, 0x0, 0x0   	MOVF	r0x0d, W
0006c4   6ee5     movwf   0xe5, 0x0        	MOVWF	POSTDEC1
0006c6   ec86     call    0x00490c, 0x0    	CALL	_serialSend
0006c8   f024
0006ca   52e6     movf    0xe6, 0x1, 0x0   	MOVF	POSTINC1, F
                                           ;	.line	141; alarm.c	serialSend(BCD2LowerCh(sec));
0006cc   500c     movf    0x0c, 0x0, 0x0   	MOVF	r0x0c, W
0006ce   6ee5     movwf   0xe5, 0x0        	MOVWF	POSTDEC1
0006d0   ec56     call    0x004eac, 0x0    	CALL	_BCD2LowerCh
0006d2   f027
0006d4   6e0c     movwf   0x0c, 0x0        	MOVWF	r0x0c
0006d6   52e6     movf    0xe6, 0x1, 0x0   	MOVF	POSTINC1, F
0006d8   500c     movf    0x0c, 0x0, 0x0   	MOVF	r0x0c, W
0006da   6ee5     movwf   0xe5, 0x0        	MOVWF	POSTDEC1
0006dc   ec86     call    0x00490c, 0x0    	CALL	_serialSend
0006de   f024
0006e0   52e6     movf    0xe6, 0x1, 0x0   	MOVF	POSTINC1, F
                                           ;	.line	142; alarm.c	serialSend(13);
0006e2   0e0d     movlw   0x0d             	MOVLW	0x0d
0006e4   6ee5     movwf   0xe5, 0x0        	MOVWF	POSTDEC1
0006e6   ec86     call    0x00490c, 0x0    	CALL	_serialSend
0006e8   f024
0006ea   52e6     movf    0xe6, 0x1, 0x0   	MOVF	POSTINC1, F
                                           ;	.line	143; alarm.c	serialString("Date: ");
0006ec   0e00     movlw   0x00             	MOVLW	UPPER(___str_2)
0006ee   6e0e     movwf   0x0e, 0x0        	MOVWF	r0x0e
0006f0   0e38     movlw   0x38             	MOVLW	HIGH(___str_2)
0006f2   6e0d     movwf   0x0d, 0x0        	MOVWF	r0x0d
0006f4   0eb6     movlw   0xb6             	MOVLW	LOW(___str_2)
0006f6   6e0c     movwf   0x0c, 0x0        	MOVWF	r0x0c
0006f8   500e     movf    0x0e, 0x0, 0x0   	MOVF	r0x0e, W
0006fa   6ee5     movwf   0xe5, 0x0        	MOVWF	POSTDEC1
0006fc   500d     movf    0x0d, 0x0, 0x0   	MOVF	r0x0d, W
0006fe   6ee5     movwf   0xe5, 0x0        	MOVWF	POSTDEC1
000700   500c     movf    0x0c, 0x0, 0x0   	MOVF	r0x0c, W
000702   6ee5     movwf   0xe5, 0x0        	MOVWF	POSTDEC1
000704   eccf     call    0x003f9e, 0x0    	CALL	_serialString
000706   f01f
000708   0e03     movlw   0x03             	MOVLW	0x03
00070a   26e1     addwf   0xe1, 0x1, 0x0   	ADDWF	FSR1L, F
                                           ;	.line	144; alarm.c	serialSend(BCD2UpperCh(date));
00070c   5006     movf    0x06, 0x0, 0x0   	MOVF	r0x06, W
00070e   6e0c     movwf   0x0c, 0x0        	MOVWF	r0x0c
000710   500c     movf    0x0c, 0x0, 0x0   	MOVF	r0x0c, W
000712   6ee5     movwf   0xe5, 0x0        	MOVWF	POSTDEC1
000714   ec06     call    0x004e0c, 0x0    	CALL	_BCD2UpperCh
000716   f027
000718   6e0d     movwf   0x0d, 0x0        	MOVWF	r0x0d
00071a   52e6     movf    0xe6, 0x1, 0x0   	MOVF	POSTINC1, F
00071c   500d     movf    0x0d, 0x0, 0x0   	MOVF	r0x0d, W
00071e   6ee5     movwf   0xe5, 0x0        	MOVWF	POSTDEC1
000720   ec86     call    0x00490c, 0x0    	CALL	_serialSend
000722   f024
000724   52e6     movf    0xe6, 0x1, 0x0   	MOVF	POSTINC1, F
                                           ;	.line	145; alarm.c	serialSend(BCD2LowerCh(date));
000726   500c     movf    0x0c, 0x0, 0x0   	MOVF	r0x0c, W
000728   6ee5     movwf   0xe5, 0x0        	MOVWF	POSTDEC1
00072a   ec56     call    0x004eac, 0x0    	CALL	_BCD2LowerCh
00072c   f027
00072e   6e0c     movwf   0x0c, 0x0        	MOVWF	r0x0c
000730   52e6     movf    0xe6, 0x1, 0x0   	MOVF	POSTINC1, F
000732   500c     movf    0x0c, 0x0, 0x0   	MOVF	r0x0c, W
000734   6ee5     movwf   0xe5, 0x0        	MOVWF	POSTDEC1
000736   ec86     call    0x00490c, 0x0    	CALL	_serialSend
000738   f024
00073a   52e6     movf    0xe6, 0x1, 0x0   	MOVF	POSTINC1, F
                                           ;	.line	146; alarm.c	serialSend('/');
00073c   0e2f     movlw   0x2f             	MOVLW	0x2f
00073e   6ee5     movwf   0xe5, 0x0        	MOVWF	POSTDEC1
000740   ec86     call    0x00490c, 0x0    	CALL	_serialSend
000742   f024
000744   52e6     movf    0xe6, 0x1, 0x0   	MOVF	POSTINC1, F
                                           ;	.line	147; alarm.c	serialSend(BCD2UpperCh(month));
000746   5008     movf    0x08, 0x0, 0x0   	MOVF	r0x08, W
000748   6e0c     movwf   0x0c, 0x0        	MOVWF	r0x0c
00074a   500c     movf    0x0c, 0x0, 0x0   	MOVF	r0x0c, W
00074c   6ee5     movwf   0xe5, 0x0        	MOVWF	POSTDEC1
00074e   ec06     call    0x004e0c, 0x0    	CALL	_BCD2UpperCh
000750   f027
000752   6e0d     movwf   0x0d, 0x0        	MOVWF	r0x0d
000754   52e6     movf    0xe6, 0x1, 0x0   	MOVF	POSTINC1, F
000756   500d     movf    0x0d, 0x0, 0x0   	MOVF	r0x0d, W
000758   6ee5     movwf   0xe5, 0x0        	MOVWF	POSTDEC1
00075a   ec86     call    0x00490c, 0x0    	CALL	_serialSend
00075c   f024
00075e   52e6     movf    0xe6, 0x1, 0x0   	MOVF	POSTINC1, F
                                           ;	.line	148; alarm.c	serialSend(BCD2LowerCh(month));
000760   500c     movf    0x0c, 0x0, 0x0   	MOVF	r0x0c, W
000762   6ee5     movwf   0xe5, 0x0        	MOVWF	POSTDEC1
000764   ec56     call    0x004eac, 0x0    	CALL	_BCD2LowerCh
000766   f027
000768   6e0c     movwf   0x0c, 0x0        	MOVWF	r0x0c
00076a   52e6     movf    0xe6, 0x1, 0x0   	MOVF	POSTINC1, F
00076c   500c     movf    0x0c, 0x0, 0x0   	MOVF	r0x0c, W
00076e   6ee5     movwf   0xe5, 0x0        	MOVWF	POSTDEC1
000770   ec86     call    0x00490c, 0x0    	CALL	_serialSend
000772   f024
000774   52e6     movf    0xe6, 0x1, 0x0   	MOVF	POSTINC1, F
                                           ;	.line	149; alarm.c	serialSend('/');
000776   0e2f     movlw   0x2f             	MOVLW	0x2f
000778   6ee5     movwf   0xe5, 0x0        	MOVWF	POSTDEC1
00077a   ec86     call    0x00490c, 0x0    	CALL	_serialSend
00077c   f024
00077e   52e6     movf    0xe6, 0x1, 0x0   	MOVF	POSTINC1, F
                                           ;	.line	150; alarm.c	serialSend(BCD2UpperCh(year));
000780   500a     movf    0x0a, 0x0, 0x0   	MOVF	r0x0a, W
000782   6e0c     movwf   0x0c, 0x0        	MOVWF	r0x0c
000784   500c     movf    0x0c, 0x0, 0x0   	MOVF	r0x0c, W
000786   6ee5     movwf   0xe5, 0x0        	MOVWF	POSTDEC1
000788   ec06     call    0x004e0c, 0x0    	CALL	_BCD2UpperCh
00078a   f027
00078c   6e0d     movwf   0x0d, 0x0        	MOVWF	r0x0d
00078e   52e6     movf    0xe6, 0x1, 0x0   	MOVF	POSTINC1, F
000790   500d     movf    0x0d, 0x0, 0x0   	MOVF	r0x0d, W
000792   6ee5     movwf   0xe5, 0x0        	MOVWF	POSTDEC1
000794   ec86     call    0x00490c, 0x0    	CALL	_serialSend
000796   f024
000798   52e6     movf    0xe6, 0x1, 0x0   	MOVF	POSTINC1, F
                                           ;	.line	151; alarm.c	serialSend(BCD2LowerCh(year));
00079a   500c     movf    0x0c, 0x0, 0x0   	MOVF	r0x0c, W
00079c   6ee5     movwf   0xe5, 0x0        	MOVWF	POSTDEC1
00079e   ec56     call    0x004eac, 0x0    	CALL	_BCD2LowerCh
0007a0   f027
0007a2   6e0c     movwf   0x0c, 0x0        	MOVWF	r0x0c
0007a4   52e6     movf    0xe6, 0x1, 0x0   	MOVF	POSTINC1, F
0007a6   500c     movf    0x0c, 0x0, 0x0   	MOVF	r0x0c, W
0007a8   6ee5     movwf   0xe5, 0x0        	MOVWF	POSTDEC1
0007aa   ec86     call    0x00490c, 0x0    	CALL	_serialSend
0007ac   f024
0007ae   52e6     movf    0xe6, 0x1, 0x0   	MOVF	POSTINC1, F
                                           ;	.line	152; alarm.c	serialSend(13);
0007b0   0e0d     movlw   0x0d             	MOVLW	0x0d
0007b2   6ee5     movwf   0xe5, 0x0        	MOVWF	POSTDEC1
0007b4   ec86     call    0x00490c, 0x0    	CALL	_serialSend
0007b6   f024
0007b8   52e6     movf    0xe6, 0x1, 0x0   	MOVF	POSTINC1, F
                                           _00138_DS_:
                                           ;	.line	154; alarm.c	if(alarmNewL != alarmAntL & alarmNewL == 0)
0007ba   6a0c     clrf    0x0c, 0x0        	CLRF	r0x0c
0007bc   0100     movlb   0x0              	BANKSEL	_alarmNewL
0007be   51b0     movf    0xb0, 0x0, 0x1   	MOVF	_alarmNewL, W, B
0007c0   0100     movlb   0x0              	BANKSEL	_alarmAntL
0007c2   19b1     xorwf   0xb1, 0x0, 0x1   	XORWF	_alarmAntL, W, B
0007c4   e101     bnz     0x0007c8         	BNZ	_00174_DS_
0007c6   2a0c     incf    0x0c, 0x1, 0x0   	INCF	r0x0c, F
                                           _00174_DS_:
0007c8   500c     movf    0x0c, 0x0, 0x0   	MOVF	r0x0c, W
0007ca   80d8     bsf     0xd8, 0x0, 0x0   	BSF	STATUS, 0
0007cc   66e8     tstfsz  0xe8, 0x0        	TSTFSZ	WREG
0007ce   90d8     bcf     0xd8, 0x0, 0x0   	BCF	STATUS, 0
0007d0   6a0c     clrf    0x0c, 0x0        	CLRF	r0x0c
0007d2   360c     rlcf    0x0c, 0x1, 0x0   	RLCF	r0x0c, F
0007d4   0100     movlb   0x0              	BANKSEL	_alarmNewL
0007d6   51b0     movf    0xb0, 0x0, 0x1   	MOVF	_alarmNewL, W, B
0007d8   80d8     bsf     0xd8, 0x0, 0x0   	BSF	STATUS, 0
0007da   66e8     tstfsz  0xe8, 0x0        	TSTFSZ	WREG
0007dc   90d8     bcf     0xd8, 0x0, 0x0   	BCF	STATUS, 0
0007de   6a0d     clrf    0x0d, 0x0        	CLRF	r0x0d
0007e0   360d     rlcf    0x0d, 0x1, 0x0   	RLCF	r0x0d, F
0007e2   500d     movf    0x0d, 0x0, 0x0   	MOVF	r0x0d, W
0007e4   160c     andwf   0x0c, 0x1, 0x0   	ANDWF	r0x0c, F
0007e6   500c     movf    0x0c, 0x0, 0x0   	MOVF	r0x0c, W
0007e8   b4d8     btfsc   0xd8, 0x2, 0x0   	BTFSC	STATUS, 2
0007ea   d115     bra     0x000a16         	BRA	_00140_DS_
                                           ;	.line	157; alarm.c	min = rtcRead(0x01);
0007ec   0e01     movlw   0x01             	MOVLW	0x01
0007ee   6ee5     movwf   0xe5, 0x0        	MOVWF	POSTDEC1
0007f0   ecae     call    0x00495c, 0x0    	CALL	_rtcRead
0007f2   f024
0007f4   6e0c     movwf   0x0c, 0x0        	MOVWF	r0x0c
0007f6   52e6     movf    0xe6, 0x1, 0x0   	MOVF	POSTINC1, F
0007f8   c00c     movff   0x00c, 0x000     	MOVFF	r0x0c, r0x00
0007fa   f000
0007fc   6a01     clrf    0x01, 0x0        	CLRF	r0x01
                                           ;	.line	158; alarm.c	hour = rtcRead(0x02);
0007fe   0e02     movlw   0x02             	MOVLW	0x02
000800   6ee5     movwf   0xe5, 0x0        	MOVWF	POSTDEC1
000802   ecae     call    0x00495c, 0x0    	CALL	_rtcRead
000804   f024
000806   6e0c     movwf   0x0c, 0x0        	MOVWF	r0x0c
000808   52e6     movf    0xe6, 0x1, 0x0   	MOVF	POSTINC1, F
00080a   c00c     movff   0x00c, 0x002     	MOVFF	r0x0c, r0x02
00080c   f002
00080e   6a03     clrf    0x03, 0x0        	CLRF	r0x03
                                           ;	.line	159; alarm.c	sec = rtcRead(0x00);
000810   0e00     movlw   0x00             	MOVLW	0x00
000812   6ee5     movwf   0xe5, 0x0        	MOVWF	POSTDEC1
000814   ecae     call    0x00495c, 0x0    	CALL	_rtcRead
000816   f024
000818   6e0c     movwf   0x0c, 0x0        	MOVWF	r0x0c
00081a   52e6     movf    0xe6, 0x1, 0x0   	MOVF	POSTINC1, F
00081c   c00c     movff   0x00c, 0x004     	MOVFF	r0x0c, r0x04
00081e   f004
000820   6a05     clrf    0x05, 0x0        	CLRF	r0x05
                                           ;	.line	160; alarm.c	date = rtcRead(0x04);
000822   0e04     movlw   0x04             	MOVLW	0x04
000824   6ee5     movwf   0xe5, 0x0        	MOVWF	POSTDEC1
000826   ecae     call    0x00495c, 0x0    	CALL	_rtcRead
000828   f024
00082a   6e0c     movwf   0x0c, 0x0        	MOVWF	r0x0c
00082c   52e6     movf    0xe6, 0x1, 0x0   	MOVF	POSTINC1, F
00082e   c00c     movff   0x00c, 0x006     	MOVFF	r0x0c, r0x06
000830   f006
000832   6a07     clrf    0x07, 0x0        	CLRF	r0x07
                                           ;	.line	161; alarm.c	month = rtcRead(0x05);
000834   0e05     movlw   0x05             	MOVLW	0x05
000836   6ee5     movwf   0xe5, 0x0        	MOVWF	POSTDEC1
000838   ecae     call    0x00495c, 0x0    	CALL	_rtcRead
00083a   f024
00083c   6e0c     movwf   0x0c, 0x0        	MOVWF	r0x0c
00083e   52e6     movf    0xe6, 0x1, 0x0   	MOVF	POSTINC1, F
000840   c00c     movff   0x00c, 0x008     	MOVFF	r0x0c, r0x08
000842   f008
000844   6a09     clrf    0x09, 0x0        	CLRF	r0x09
                                           ;	.line	162; alarm.c	year = rtcRead(0x06);
000846   0e06     movlw   0x06             	MOVLW	0x06
000848   6ee5     movwf   0xe5, 0x0        	MOVWF	POSTDEC1
00084a   ecae     call    0x00495c, 0x0    	CALL	_rtcRead
00084c   f024
00084e   6e0c     movwf   0x0c, 0x0        	MOVWF	r0x0c
000850   52e6     movf    0xe6, 0x1, 0x0   	MOVF	POSTINC1, F
000852   c00c     movff   0x00c, 0x00a     	MOVFF	r0x0c, r0x0a
000854   f00a
000856   6a0b     clrf    0x0b, 0x0        	CLRF	r0x0b
                                           ;	.line	164; alarm.c	ledON(0);
000858   0e00     movlw   0x00             	MOVLW	0x00
00085a   6ee5     movwf   0xe5, 0x0        	MOVWF	POSTDEC1
00085c   0e00     movlw   0x00             	MOVLW	0x00
00085e   6ee5     movwf   0xe5, 0x0        	MOVWF	POSTDEC1
000860   ec5b     call    0x0040b6, 0x0    	CALL	_ledON
000862   f020
000864   52e6     movf    0xe6, 0x1, 0x0   	MOVF	POSTINC1, F
000866   52e6     movf    0xe6, 0x1, 0x0   	MOVF	POSTINC1, F
                                           ;	.line	165; alarm.c	serialString("Alarm Low 0 Desligado");
000868   0e00     movlw   0x00             	MOVLW	UPPER(___str_5)
00086a   6e0e     movwf   0x0e, 0x0        	MOVWF	r0x0e
00086c   0e38     movlw   0x38             	MOVLW	HIGH(___str_5)
00086e   6e0d     movwf   0x0d, 0x0        	MOVWF	r0x0d
000870   0eec     movlw   0xec             	MOVLW	LOW(___str_5)
000872   6e0c     movwf   0x0c, 0x0        	MOVWF	r0x0c
000874   500e     movf    0x0e, 0x0, 0x0   	MOVF	r0x0e, W
000876   6ee5     movwf   0xe5, 0x0        	MOVWF	POSTDEC1
000878   500d     movf    0x0d, 0x0, 0x0   	MOVF	r0x0d, W
00087a   6ee5     movwf   0xe5, 0x0        	MOVWF	POSTDEC1
00087c   500c     movf    0x0c, 0x0, 0x0   	MOVF	r0x0c, W
00087e   6ee5     movwf   0xe5, 0x0        	MOVWF	POSTDEC1
000880   eccf     call    0x003f9e, 0x0    	CALL	_serialString
000882   f01f
000884   0e03     movlw   0x03             	MOVLW	0x03
000886   26e1     addwf   0xe1, 0x1, 0x0   	ADDWF	FSR1L, F
                                           ;	.line	166; alarm.c	serialSend(13);
000888   0e0d     movlw   0x0d             	MOVLW	0x0d
00088a   6ee5     movwf   0xe5, 0x0        	MOVWF	POSTDEC1
00088c   ec86     call    0x00490c, 0x0    	CALL	_serialSend
00088e   f024
000890   52e6     movf    0xe6, 0x1, 0x0   	MOVF	POSTINC1, F
                                           ;	.line	167; alarm.c	serialString("Time: ");
000892   0e00     movlw   0x00             	MOVLW	UPPER(___str_1)
000894   6e0e     movwf   0x0e, 0x0        	MOVWF	r0x0e
000896   0e38     movlw   0x38             	MOVLW	HIGH(___str_1)
000898   6e0d     movwf   0x0d, 0x0        	MOVWF	r0x0d
00089a   0eae     movlw   0xae             	MOVLW	LOW(___str_1)
00089c   6e0c     movwf   0x0c, 0x0        	MOVWF	r0x0c
00089e   500e     movf    0x0e, 0x0, 0x0   	MOVF	r0x0e, W
0008a0   6ee5     movwf   0xe5, 0x0        	MOVWF	POSTDEC1
0008a2   500d     movf    0x0d, 0x0, 0x0   	MOVF	r0x0d, W
0008a4   6ee5     movwf   0xe5, 0x0        	MOVWF	POSTDEC1
0008a6   500c     movf    0x0c, 0x0, 0x0   	MOVF	r0x0c, W
0008a8   6ee5     movwf   0xe5, 0x0        	MOVWF	POSTDEC1
0008aa   eccf     call    0x003f9e, 0x0    	CALL	_serialString
0008ac   f01f
0008ae   0e03     movlw   0x03             	MOVLW	0x03
0008b0   26e1     addwf   0xe1, 0x1, 0x0   	ADDWF	FSR1L, F
                                           ;	.line	168; alarm.c	serialSend(BCD2UpperCh(hour));
0008b2   5002     movf    0x02, 0x0, 0x0   	MOVF	r0x02, W
0008b4   6ee5     movwf   0xe5, 0x0        	MOVWF	POSTDEC1
0008b6   ec06     call    0x004e0c, 0x0    	CALL	_BCD2UpperCh
0008b8   f027
0008ba   6e03     movwf   0x03, 0x0        	MOVWF	r0x03
0008bc   52e6     movf    0xe6, 0x1, 0x0   	MOVF	POSTINC1, F
0008be   5003     movf    0x03, 0x0, 0x0   	MOVF	r0x03, W
0008c0   6ee5     movwf   0xe5, 0x0        	MOVWF	POSTDEC1
0008c2   ec86     call    0x00490c, 0x0    	CALL	_serialSend
0008c4   f024
0008c6   52e6     movf    0xe6, 0x1, 0x0   	MOVF	POSTINC1, F
                                           ;	.line	169; alarm.c	serialSend(BCD2LowerCh(hour));
0008c8   5002     movf    0x02, 0x0, 0x0   	MOVF	r0x02, W
0008ca   6ee5     movwf   0xe5, 0x0        	MOVWF	POSTDEC1
0008cc   ec56     call    0x004eac, 0x0    	CALL	_BCD2LowerCh
0008ce   f027
0008d0   6e02     movwf   0x02, 0x0        	MOVWF	r0x02
0008d2   52e6     movf    0xe6, 0x1, 0x0   	MOVF	POSTINC1, F
0008d4   5002     movf    0x02, 0x0, 0x0   	MOVF	r0x02, W
0008d6   6ee5     movwf   0xe5, 0x0        	MOVWF	POSTDEC1
0008d8   ec86     call    0x00490c, 0x0    	CALL	_serialSend
0008da   f024
0008dc   52e6     movf    0xe6, 0x1, 0x0   	MOVF	POSTINC1, F
                                           ;	.line	170; alarm.c	serialSend(':');
0008de   0e3a     movlw   0x3a             	MOVLW	0x3a
0008e0   6ee5     movwf   0xe5, 0x0        	MOVWF	POSTDEC1
0008e2   ec86     call    0x00490c, 0x0    	CALL	_serialSend
0008e4   f024
0008e6   52e6     movf    0xe6, 0x1, 0x0   	MOVF	POSTINC1, F
                                           ;	.line	171; alarm.c	serialSend(BCD2UpperCh(min));
0008e8   5000     movf    0x00, 0x0, 0x0   	MOVF	r0x00, W
0008ea   6ee5     movwf   0xe5, 0x0        	MOVWF	POSTDEC1
0008ec   ec06     call    0x004e0c, 0x0    	CALL	_BCD2UpperCh
0008ee   f027
0008f0   6e01     movwf   0x01, 0x0        	MOVWF	r0x01
0008f2   52e6     movf    0xe6, 0x1, 0x0   	MOVF	POSTINC1, F
0008f4   5001     movf    0x01, 0x0, 0x0   	MOVF	r0x01, W
0008f6   6ee5     movwf   0xe5, 0x0        	MOVWF	POSTDEC1
0008f8   ec86     call    0x00490c, 0x0    	CALL	_serialSend
0008fa   f024
0008fc   52e6     movf    0xe6, 0x1, 0x0   	MOVF	POSTINC1, F
                                           ;	.line	172; alarm.c	serialSend(BCD2LowerCh(min));
0008fe   5000     movf    0x00, 0x0, 0x0   	MOVF	r0x00, W
000900   6ee5     movwf   0xe5, 0x0        	MOVWF	POSTDEC1
000902   ec56     call    0x004eac, 0x0    	CALL	_BCD2LowerCh
000904   f027
000906   6e00     movwf   0x00, 0x0        	MOVWF	r0x00
000908   52e6     movf    0xe6, 0x1, 0x0   	MOVF	POSTINC1, F
00090a   5000     movf    0x00, 0x0, 0x0   	MOVF	r0x00, W
00090c   6ee5     movwf   0xe5, 0x0        	MOVWF	POSTDEC1
00090e   ec86     call    0x00490c, 0x0    	CALL	_serialSend
000910   f024
000912   52e6     movf    0xe6, 0x1, 0x0   	MOVF	POSTINC1, F
                                           ;	.line	173; alarm.c	serialSend(':');
000914   0e3a     movlw   0x3a             	MOVLW	0x3a
000916   6ee5     movwf   0xe5, 0x0        	MOVWF	POSTDEC1
000918   ec86     call    0x00490c, 0x0    	CALL	_serialSend
00091a   f024
00091c   52e6     movf    0xe6, 0x1, 0x0   	MOVF	POSTINC1, F
                                           ;	.line	174; alarm.c	serialSend(BCD2UpperCh(sec));
00091e   5004     movf    0x04, 0x0, 0x0   	MOVF	r0x04, W
000920   6ee5     movwf   0xe5, 0x0        	MOVWF	POSTDEC1
000922   ec06     call    0x004e0c, 0x0    	CALL	_BCD2UpperCh
000924   f027
000926   6e00     movwf   0x00, 0x0        	MOVWF	r0x00
000928   52e6     movf    0xe6, 0x1, 0x0   	MOVF	POSTINC1, F
00092a   5000     movf    0x00, 0x0, 0x0   	MOVF	r0x00, W
00092c   6ee5     movwf   0xe5, 0x0        	MOVWF	POSTDEC1
00092e   ec86     call    0x00490c, 0x0    	CALL	_serialSend
000930   f024
000932   52e6     movf    0xe6, 0x1, 0x0   	MOVF	POSTINC1, F
                                           ;	.line	175; alarm.c	serialSend(BCD2LowerCh(sec));
000934   5004     movf    0x04, 0x0, 0x0   	MOVF	r0x04, W
000936   6ee5     movwf   0xe5, 0x0        	MOVWF	POSTDEC1
000938   ec56     call    0x004eac, 0x0    	CALL	_BCD2LowerCh
00093a   f027
00093c   6e00     movwf   0x00, 0x0        	MOVWF	r0x00
00093e   52e6     movf    0xe6, 0x1, 0x0   	MOVF	POSTINC1, F
000940   5000     movf    0x00, 0x0, 0x0   	MOVF	r0x00, W
000942   6ee5     movwf   0xe5, 0x0        	MOVWF	POSTDEC1
000944   ec86     call    0x00490c, 0x0    	CALL	_serialSend
000946   f024
000948   52e6     movf    0xe6, 0x1, 0x0   	MOVF	POSTINC1, F
                                           ;	.line	176; alarm.c	serialSend(13);
00094a   0e0d     movlw   0x0d             	MOVLW	0x0d
00094c   6ee5     movwf   0xe5, 0x0        	MOVWF	POSTDEC1
00094e   ec86     call    0x00490c, 0x0    	CALL	_serialSend
000950   f024
000952   52e6     movf    0xe6, 0x1, 0x0   	MOVF	POSTINC1, F
                                           ;	.line	177; alarm.c	serialString("Date: ");
000954   0e00     movlw   0x00             	MOVLW	UPPER(___str_2)
000956   6e02     movwf   0x02, 0x0        	MOVWF	r0x02
000958   0e38     movlw   0x38             	MOVLW	HIGH(___str_2)
00095a   6e01     movwf   0x01, 0x0        	MOVWF	r0x01
00095c   0eb6     movlw   0xb6             	MOVLW	LOW(___str_2)
00095e   6e00     movwf   0x00, 0x0        	MOVWF	r0x00
000960   5002     movf    0x02, 0x0, 0x0   	MOVF	r0x02, W
000962   6ee5     movwf   0xe5, 0x0        	MOVWF	POSTDEC1
000964   5001     movf    0x01, 0x0, 0x0   	MOVF	r0x01, W
000966   6ee5     movwf   0xe5, 0x0        	MOVWF	POSTDEC1
000968   5000     movf    0x00, 0x0, 0x0   	MOVF	r0x00, W
00096a   6ee5     movwf   0xe5, 0x0        	MOVWF	POSTDEC1
00096c   eccf     call    0x003f9e, 0x0    	CALL	_serialString
00096e   f01f
000970   0e03     movlw   0x03             	MOVLW	0x03
000972   26e1     addwf   0xe1, 0x1, 0x0   	ADDWF	FSR1L, F
                                           ;	.line	178; alarm.c	serialSend(BCD2UpperCh(date));
000974   5006     movf    0x06, 0x0, 0x0   	MOVF	r0x06, W
000976   6ee5     movwf   0xe5, 0x0        	MOVWF	POSTDEC1
000978   ec06     call    0x004e0c, 0x0    	CALL	_BCD2UpperCh
00097a   f027
00097c   6e00     movwf   0x00, 0x0        	MOVWF	r0x00
00097e   52e6     movf    0xe6, 0x1, 0x0   	MOVF	POSTINC1, F
000980   5000     movf    0x00, 0x0, 0x0   	MOVF	r0x00, W
000982   6ee5     movwf   0xe5, 0x0        	MOVWF	POSTDEC1
000984   ec86     call    0x00490c, 0x0    	CALL	_serialSend
000986   f024
000988   52e6     movf    0xe6, 0x1, 0x0   	MOVF	POSTINC1, F
                                           ;	.line	179; alarm.c	serialSend(BCD2LowerCh(date));
00098a   5006     movf    0x06, 0x0, 0x0   	MOVF	r0x06, W
00098c   6ee5     movwf   0xe5, 0x0        	MOVWF	POSTDEC1
00098e   ec56     call    0x004eac, 0x0    	CALL	_BCD2LowerCh
000990   f027
000992   6e00     movwf   0x00, 0x0        	MOVWF	r0x00
000994   52e6     movf    0xe6, 0x1, 0x0   	MOVF	POSTINC1, F
000996   5000     movf    0x00, 0x0, 0x0   	MOVF	r0x00, W
000998   6ee5     movwf   0xe5, 0x0        	MOVWF	POSTDEC1
00099a   ec86     call    0x00490c, 0x0    	CALL	_serialSend
00099c   f024
00099e   52e6     movf    0xe6, 0x1, 0x0   	MOVF	POSTINC1, F
                                           ;	.line	180; alarm.c	serialSend('/');
0009a0   0e2f     movlw   0x2f             	MOVLW	0x2f
0009a2   6ee5     movwf   0xe5, 0x0        	MOVWF	POSTDEC1
0009a4   ec86     call    0x00490c, 0x0    	CALL	_serialSend
0009a6   f024
0009a8   52e6     movf    0xe6, 0x1, 0x0   	MOVF	POSTINC1, F
                                           ;	.line	181; alarm.c	serialSend(BCD2UpperCh(month));
0009aa   5008     movf    0x08, 0x0, 0x0   	MOVF	r0x08, W
0009ac   6ee5     movwf   0xe5, 0x0        	MOVWF	POSTDEC1
0009ae   ec06     call    0x004e0c, 0x0    	CALL	_BCD2UpperCh
0009b0   f027
0009b2   6e00     movwf   0x00, 0x0        	MOVWF	r0x00
0009b4   52e6     movf    0xe6, 0x1, 0x0   	MOVF	POSTINC1, F
0009b6   5000     movf    0x00, 0x0, 0x0   	MOVF	r0x00, W
0009b8   6ee5     movwf   0xe5, 0x0        	MOVWF	POSTDEC1
0009ba   ec86     call    0x00490c, 0x0    	CALL	_serialSend
0009bc   f024
0009be   52e6     movf    0xe6, 0x1, 0x0   	MOVF	POSTINC1, F
                                           ;	.line	182; alarm.c	serialSend(BCD2LowerCh(month));
0009c0   5008     movf    0x08, 0x0, 0x0   	MOVF	r0x08, W
0009c2   6ee5     movwf   0xe5, 0x0        	MOVWF	POSTDEC1
0009c4   ec56     call    0x004eac, 0x0    	CALL	_BCD2LowerCh
0009c6   f027
0009c8   6e00     movwf   0x00, 0x0        	MOVWF	r0x00
0009ca   52e6     movf    0xe6, 0x1, 0x0   	MOVF	POSTINC1, F
0009cc   5000     movf    0x00, 0x0, 0x0   	MOVF	r0x00, W
0009ce   6ee5     movwf   0xe5, 0x0        	MOVWF	POSTDEC1
0009d0   ec86     call    0x00490c, 0x0    	CALL	_serialSend
0009d2   f024
0009d4   52e6     movf    0xe6, 0x1, 0x0   	MOVF	POSTINC1, F
                                           ;	.line	183; alarm.c	serialSend('/');
0009d6   0e2f     movlw   0x2f             	MOVLW	0x2f
0009d8   6ee5     movwf   0xe5, 0x0        	MOVWF	POSTDEC1
0009da   ec86     call    0x00490c, 0x0    	CALL	_serialSend
0009dc   f024
0009de   52e6     movf    0xe6, 0x1, 0x0   	MOVF	POSTINC1, F
                                           ;	.line	184; alarm.c	serialSend(BCD2UpperCh(year));
0009e0   500a     movf    0x0a, 0x0, 0x0   	MOVF	r0x0a, W
0009e2   6ee5     movwf   0xe5, 0x0        	MOVWF	POSTDEC1
0009e4   ec06     call    0x004e0c, 0x0    	CALL	_BCD2UpperCh
0009e6   f027
0009e8   6e00     movwf   0x00, 0x0        	MOVWF	r0x00
0009ea   52e6     movf    0xe6, 0x1, 0x0   	MOVF	POSTINC1, F
0009ec   5000     movf    0x00, 0x0, 0x0   	MOVF	r0x00, W
0009ee   6ee5     movwf   0xe5, 0x0        	MOVWF	POSTDEC1
0009f0   ec86     call    0x00490c, 0x0    	CALL	_serialSend
0009f2   f024
0009f4   52e6     movf    0xe6, 0x1, 0x0   	MOVF	POSTINC1, F
                                           ;	.line	185; alarm.c	serialSend(BCD2LowerCh(year));
0009f6   500a     movf    0x0a, 0x0, 0x0   	MOVF	r0x0a, W
0009f8   6ee5     movwf   0xe5, 0x0        	MOVWF	POSTDEC1
0009fa   ec56     call    0x004eac, 0x0    	CALL	_BCD2LowerCh
0009fc   f027
0009fe   6e00     movwf   0x00, 0x0        	MOVWF	r0x00
000a00   52e6     movf    0xe6, 0x1, 0x0   	MOVF	POSTINC1, F
000a02   5000     movf    0x00, 0x0, 0x0   	MOVF	r0x00, W
000a04   6ee5     movwf   0xe5, 0x0        	MOVWF	POSTDEC1
000a06   ec86     call    0x00490c, 0x0    	CALL	_serialSend
000a08   f024
000a0a   52e6     movf    0xe6, 0x1, 0x0   	MOVF	POSTINC1, F
                                           ;	.line	186; alarm.c	serialSend(13);
000a0c   0e0d     movlw   0x0d             	MOVLW	0x0d
000a0e   6ee5     movwf   0xe5, 0x0        	MOVWF	POSTDEC1
000a10   ec86     call    0x00490c, 0x0    	CALL	_serialSend
000a12   f024
000a14   52e6     movf    0xe6, 0x1, 0x0   	MOVF	POSTINC1, F
                                           _00140_DS_:
000a16   0100     movlb   0x0              	BANKSEL	_alarmNewL
                                           ;	.line	188; alarm.c	if(alarmNewL == 0)
000a18   51b0     movf    0xb0, 0x0, 0x1   	MOVF	_alarmNewL, W, B
000a1a   e108     bnz     0x000a2c         	BNZ	_00142_DS_
                                           ;	.line	189; alarm.c	ledOFF(0);
000a1c   0e00     movlw   0x00             	MOVLW	0x00
000a1e   6ee5     movwf   0xe5, 0x0        	MOVWF	POSTDEC1
000a20   0e00     movlw   0x00             	MOVLW	0x00
000a22   6ee5     movwf   0xe5, 0x0        	MOVWF	POSTDEC1
000a24   ec16     call    0x00402c, 0x0    	CALL	_ledOFF
000a26   f020
000a28   52e6     movf    0xe6, 0x1, 0x0   	MOVF	POSTINC1, F
000a2a   52e6     movf    0xe6, 0x1, 0x0   	MOVF	POSTINC1, F
                                           _00142_DS_:
                                           ;	.line	191; alarm.c	alarmAnt = alarmNew;
000a2c   c0ae     movff   0x0ae, 0x0af     	MOVFF	_alarmNew, _alarmAnt
000a2e   f0af
                                           ;	.line	192; alarm.c	alarmAntL = alarmNewL;
000a30   c0b0     movff   0x0b0, 0x0b1     	MOVFF	_alarmNewL, _alarmAntL
000a32   f0b1
000a34   cfe4     movff   0xfe4, 0x00e     	MOVFF	PREINC1, r0x0e
000a36   f00e
000a38   cfe4     movff   0xfe4, 0x00d     	MOVFF	PREINC1, r0x0d
000a3a   f00d
000a3c   cfe4     movff   0xfe4, 0x00c     	MOVFF	PREINC1, r0x0c
000a3e   f00c
000a40   cfe4     movff   0xfe4, 0x00b     	MOVFF	PREINC1, r0x0b
000a42   f00b
000a44   cfe4     movff   0xfe4, 0x00a     	MOVFF	PREINC1, r0x0a
000a46   f00a
000a48   cfe4     movff   0xfe4, 0x009     	MOVFF	PREINC1, r0x09
000a4a   f009
000a4c   cfe4     movff   0xfe4, 0x008     	MOVFF	PREINC1, r0x08
000a4e   f008
000a50   cfe4     movff   0xfe4, 0x007     	MOVFF	PREINC1, r0x07
000a52   f007
000a54   cfe4     movff   0xfe4, 0x006     	MOVFF	PREINC1, r0x06
000a56   f006
000a58   cfe4     movff   0xfe4, 0x005     	MOVFF	PREINC1, r0x05
000a5a   f005
000a5c   cfe4     movff   0xfe4, 0x004     	MOVFF	PREINC1, r0x04
000a5e   f004
000a60   cfe4     movff   0xfe4, 0x003     	MOVFF	PREINC1, r0x03
000a62   f003
000a64   cfe4     movff   0xfe4, 0x002     	MOVFF	PREINC1, r0x02
000a66   f002
000a68   cfe4     movff   0xfe4, 0x001     	MOVFF	PREINC1, r0x01
000a6a   f001
000a6c   cfe4     movff   0xfe4, 0x000     	MOVFF	PREINC1, r0x00
000a6e   f000
000a70   cfe4     movff   0xfe4, 0xfd9     	MOVFF	PREINC1, FSR2L
000a72   ffd9
000a74   0012     return  0x0              	RETURN	

                                           ; ; Starting pCode block
                                           S_alarm__testAlarmLow	code
                                           _testAlarmLow:
                                           ;	.line	33; alarm.c	char testAlarmLow(char alarm){    
0044aa   cfd9     movff   0xfd9, 0xfe5     	MOVFF	FSR2L, POSTDEC1
0044ac   ffe5
0044ae   cfe1     movff   0xfe1, 0xfd9     	MOVFF	FSR1L, FSR2L
0044b0   ffd9
0044b2   c000     movff   0x000, 0xfe5     	MOVFF	r0x00, POSTDEC1
0044b4   ffe5
0044b6   c001     movff   0x001, 0xfe5     	MOVFF	r0x01, POSTDEC1
0044b8   ffe5
0044ba   c002     movff   0x002, 0xfe5     	MOVFF	r0x02, POSTDEC1
0044bc   ffe5
0044be   c003     movff   0x003, 0xfe5     	MOVFF	r0x03, POSTDEC1
0044c0   ffe5
                                           ;	.line	34; alarm.c	if(adcScale(POT, 1023) < getAlarmLow()){
0044c2   0e03     movlw   0x03             	MOVLW	0x03
0044c4   6ee5     movwf   0xe5, 0x0        	MOVWF	POSTDEC1
0044c6   0eff     movlw   0xff             	MOVLW	0xff
0044c8   6ee5     movwf   0xe5, 0x0        	MOVWF	POSTDEC1
0044ca   0e02     movlw   0x02             	MOVLW	0x02
0044cc   6ee5     movwf   0xe5, 0x0        	MOVWF	POSTDEC1
0044ce   ec91     call    0x003122, 0x0    	CALL	_adcScale
0044d0   f018
0044d2   6e00     movwf   0x00, 0x0        	MOVWF	r0x00
0044d4   cff3     movff   0xff3, 0x001     	MOVFF	PRODL, r0x01
0044d6   f001
0044d8   0e03     movlw   0x03             	MOVLW	0x03
0044da   26e1     addwf   0xe1, 0x1, 0x0   	ADDWF	FSR1L, F
0044dc   ec2e     call    0x004e5c, 0x0    	CALL	_getAlarmLow
0044de   f027
0044e0   6e02     movwf   0x02, 0x0        	MOVWF	r0x02
0044e2   cff3     movff   0xff3, 0x003     	MOVFF	PRODL, r0x03
0044e4   f003
0044e6   5001     movf    0x01, 0x0, 0x0   	MOVF	r0x01, W
0044e8   0f80     addlw   0x80             	ADDLW	0x80
0044ea   6ef3     movwf   0xf3, 0x0        	MOVWF	PRODL
0044ec   5003     movf    0x03, 0x0, 0x0   	MOVF	r0x03, W
0044ee   0f80     addlw   0x80             	ADDLW	0x80
0044f0   5cf3     subwf   0xf3, 0x0, 0x0   	SUBWF	PRODL, W
0044f2   e102     bnz     0x0044f8         	BNZ	_00126_DS_
0044f4   5002     movf    0x02, 0x0, 0x0   	MOVF	r0x02, W
0044f6   5c00     subwf   0x00, 0x0, 0x0   	SUBWF	r0x00, W
                                           _00126_DS_:
0044f8   e202     bc      0x0044fe         	BC	_00119_DS_
                                           ;	.line	35; alarm.c	return 1;
0044fa   0e01     movlw   0x01             	MOVLW	0x01
0044fc   d001     bra     0x004500         	BRA	_00121_DS_
                                           _00119_DS_:
                                           ;	.line	39; alarm.c	return 0;       
0044fe   6ae8     clrf    0xe8, 0x0        	CLRF	WREG
                                           _00121_DS_:
004500   cfe4     movff   0xfe4, 0x003     	MOVFF	PREINC1, r0x03
004502   f003
004504   cfe4     movff   0xfe4, 0x002     	MOVFF	PREINC1, r0x02
004506   f002
004508   cfe4     movff   0xfe4, 0x001     	MOVFF	PREINC1, r0x01
00450a   f001
00450c   cfe4     movff   0xfe4, 0x000     	MOVFF	PREINC1, r0x00
00450e   f000
004510   cfe4     movff   0xfe4, 0xfd9     	MOVFF	PREINC1, FSR2L
004512   ffd9
004514   0012     return  0x0              	RETURN	

                                           ; ; Starting pCode block
                                           S_alarm__testAlarmHigh	code
                                           _testAlarmHigh:
                                           ;	.line	14; alarm.c	char testAlarmHigh(char alarm){    
00382c   cfd9     movff   0xfd9, 0xfe5     	MOVFF	FSR2L, POSTDEC1
00382e   ffe5
003830   cfe1     movff   0xfe1, 0xfd9     	MOVFF	FSR1L, FSR2L
003832   ffd9
003834   c000     movff   0x000, 0xfe5     	MOVFF	r0x00, POSTDEC1
003836   ffe5
003838   c001     movff   0x001, 0xfe5     	MOVFF	r0x01, POSTDEC1
00383a   ffe5
00383c   c002     movff   0x002, 0xfe5     	MOVFF	r0x02, POSTDEC1
00383e   ffe5
003840   c003     movff   0x003, 0xfe5     	MOVFF	r0x03, POSTDEC1
003842   ffe5
                                           ;	.line	15; alarm.c	if(adcScale(POT, 1023) > getAlarmHigh())
003844   0e03     movlw   0x03             	MOVLW	0x03
003846   6ee5     movwf   0xe5, 0x0        	MOVWF	POSTDEC1
003848   0eff     movlw   0xff             	MOVLW	0xff
00384a   6ee5     movwf   0xe5, 0x0        	MOVWF	POSTDEC1
00384c   0e02     movlw   0x02             	MOVLW	0x02
00384e   6ee5     movwf   0xe5, 0x0        	MOVWF	POSTDEC1
003850   ec91     call    0x003122, 0x0    	CALL	_adcScale
003852   f018
003854   6e00     movwf   0x00, 0x0        	MOVWF	r0x00
003856   cff3     movff   0xff3, 0x001     	MOVFF	PRODL, r0x01
003858   f001
00385a   0e03     movlw   0x03             	MOVLW	0x03
00385c   26e1     addwf   0xe1, 0x1, 0x0   	ADDWF	FSR1L, F
00385e   ec1a     call    0x004e34, 0x0    	CALL	_getAlarmHigh
003860   f027
003862   6e02     movwf   0x02, 0x0        	MOVWF	r0x02
003864   cff3     movff   0xff3, 0x003     	MOVFF	PRODL, r0x03
003866   f003
003868   5003     movf    0x03, 0x0, 0x0   	MOVF	r0x03, W
00386a   0f80     addlw   0x80             	ADDLW	0x80
00386c   6ef3     movwf   0xf3, 0x0        	MOVWF	PRODL
00386e   5001     movf    0x01, 0x0, 0x0   	MOVF	r0x01, W
003870   0f80     addlw   0x80             	ADDLW	0x80
003872   5cf3     subwf   0xf3, 0x0, 0x0   	SUBWF	PRODL, W
003874   e102     bnz     0x00387a         	BNZ	_00113_DS_
003876   5000     movf    0x00, 0x0, 0x0   	MOVF	r0x00, W
003878   5c02     subwf   0x02, 0x0, 0x0   	SUBWF	r0x02, W
                                           _00113_DS_:
00387a   e202     bc      0x003880         	BC	_00106_DS_
                                           ;	.line	17; alarm.c	return 1;                     
00387c   0e01     movlw   0x01             	MOVLW	0x01
00387e   d001     bra     0x003882         	BRA	_00108_DS_
                                           _00106_DS_:
                                           ;	.line	22; alarm.c	return 0;
003880   6ae8     clrf    0xe8, 0x0        	CLRF	WREG
                                           _00108_DS_:
003882   cfe4     movff   0xfe4, 0x003     	MOVFF	PREINC1, r0x03
003884   f003
003886   cfe4     movff   0xfe4, 0x002     	MOVFF	PREINC1, r0x02
003888   f002
00388a   cfe4     movff   0xfe4, 0x001     	MOVFF	PREINC1, r0x01
00388c   f001
00388e   cfe4     movff   0xfe4, 0x000     	MOVFF	PREINC1, r0x00
003890   f000
003892   cfe4     movff   0xfe4, 0xfd9     	MOVFF	PREINC1, FSR2L
003894   ffd9
003896   0012     return  0x0              	RETURN	

                                           ; ; Starting pCode block
                                           ___str_0:
003898   6c41     negf    0x41, 0x0        	DB	0x41, 0x6c, 0x61, 0x72, 0x6d, 0x20, 0x48, 0x69, 0x67, 0x68, 0x20, 0x30
00389a   7261     btg     0x61, 0x1, 0x0   
00389c   206d     addwfc  0x6d, 0x0, 0x0   
00389e   6948     setf    0x48, 0x1        
0038a0   6867     setf    0x67, 0x0        
0038a2   3020     rrcf    0x20, 0x0, 0x0   
0038a4   4120     rrncf   0x20, 0x0, 0x1   	DB	0x20, 0x41, 0x63, 0x69, 0x6f, 0x6e, 0x61, 0x64, 0x6f, 0x00
0038a6   6963     setf    0x63, 0x1        
0038a8   6e6f     movwf   0x6f, 0x0        
0038aa   6461     cpfsgt  0x61, 0x0        
0038ac   006f     dw      0x006f           
                                           ; ; Starting pCode block
                                           ___str_1:
0038ae   6954     setf    0x54, 0x1        	DB	0x54, 0x69, 0x6d, 0x65, 0x3a, 0x20, 0x00
0038b0   656d     cpfsgt  0x6d, 0x1        
0038b2   203a     addwfc  0x3a, 0x0, 0x0   
0038b4   0000     nop                      
                                           ; ; Starting pCode block
                                           ___str_2:
0038b6   6144     cpfslt  0x44, 0x1        	DB	0x44, 0x61, 0x74, 0x65, 0x3a, 0x20, 0x00
0038b8   6574     cpfsgt  0x74, 0x1        
0038ba   203a     addwfc  0x3a, 0x0, 0x0   
0038bc   0000     nop                      
                                           ; ; Starting pCode block
                                           ___str_3:
0038be   6c41     negf    0x41, 0x0        	DB	0x41, 0x6c, 0x61, 0x72, 0x6d, 0x20, 0x48, 0x69, 0x67, 0x68, 0x20, 0x30
0038c0   7261     btg     0x61, 0x1, 0x0   
0038c2   206d     addwfc  0x6d, 0x0, 0x0   
0038c4   6948     setf    0x48, 0x1        
0038c6   6867     setf    0x67, 0x0        
0038c8   3020     rrcf    0x20, 0x0, 0x0   
0038ca   4420     rlncf   0x20, 0x0, 0x0   	DB	0x20, 0x44, 0x65, 0x73, 0x6c, 0x69, 0x67, 0x61, 0x64, 0x6f, 0x00
0038cc   7365     btg     0x65, 0x1, 0x1   
0038ce   696c     setf    0x6c, 0x1        
0038d0   6167     cpfslt  0x67, 0x1        
0038d2   6f64     movwf   0x64, 0x1        
0038d4   0000     nop                      
                                           ; ; Starting pCode block
                                           ___str_4:
0038d6   6c41     negf    0x41, 0x0        	DB	0x41, 0x6c, 0x61, 0x72, 0x6d, 0x20, 0x4c, 0x6f, 0x77, 0x20, 0x30, 0x20
0038d8   7261     btg     0x61, 0x1, 0x0   
0038da   206d     addwfc  0x6d, 0x0, 0x0   
0038dc   6f4c     movwf   0x4c, 0x1        
0038de   2077     addwfc  0x77, 0x0, 0x0   
0038e0   2030     addwfc  0x30, 0x0, 0x0   
0038e2   6341     cpfseq  0x41, 0x1        	DB	0x41, 0x63, 0x69, 0x6f, 0x6e, 0x61, 0x64, 0x6f, 0x00
0038e4   6f69     movwf   0x69, 0x1        
0038e6   616e     cpfslt  0x6e, 0x1        
0038e8   6f64     movwf   0x64, 0x1        
0038ea   0000     nop                      
                                           ; ; Starting pCode block
                                           ___str_5:
0038ec   6c41     negf    0x41, 0x0        	DB	0x41, 0x6c, 0x61, 0x72, 0x6d, 0x20, 0x4c, 0x6f, 0x77, 0x20, 0x30, 0x20
0038ee   7261     btg     0x61, 0x1, 0x0   
0038f0   206d     addwfc  0x6d, 0x0, 0x0   
0038f2   6f4c     movwf   0x4c, 0x1        
0038f4   2077     addwfc  0x77, 0x0, 0x0   
0038f6   2030     addwfc  0x30, 0x0, 0x0   
0038f8   6544     cpfsgt  0x44, 0x1        	DB	0x44, 0x65, 0x73, 0x6c, 0x69, 0x67, 0x61, 0x64, 0x6f, 0x00
0038fa   6c73     negf    0x73, 0x0        
0038fc   6769     tstfsz  0x69, 0x1        
0038fe   6461     cpfsgt  0x61, 0x0        
003900   006f     dw      0x006f           


                                           ; Statistics:
                                           ; code size:	 2910 (0x0b5e) bytes ( 2.22%)
                                           ;           	 1455 (0x05af) words
                                           ; udata size:	    0 (0x0000) bytes ( 0.00%)
                                           ; access size:	   15 (0x000f) bytes


                                           	end
