gplink-1.5.0 #1285 (Sep 12 2016)
Copyright (c) 1998-2016 gputils project
Listing File Generated: 10-19-2017  09:33:18


Address  Value    Disassembly              Source
-------  -----    -----------              ------
                                           ;--------------------------------------------------------
                                           ; File Created by SDCC : free open source ANSI-C Compiler
                                           ; Version 3.6.0 #9615 (MINGW64)
                                           ;--------------------------------------------------------
                                           ; PIC16 port for the Microchip 16-bit core micros
                                           ;--------------------------------------------------------
                                           	list	p=18f4550
                                           	radix	dec


                                           ;--------------------------------------------------------
                                           ; public variables in this module
                                           ;--------------------------------------------------------
                                           	global	_BCD2UpperCh
                                           	global	_BCD2LowerCh
                                           	global	_rtc1307_read

                                           ;--------------------------------------------------------
                                           ; extern variables in this module
                                           ;--------------------------------------------------------
                                           	extern	_SPPCFGbits
                                           	extern	_SPPEPSbits
                                           	extern	_SPPCONbits
                                           	extern	_UFRMLbits
                                           	extern	_UFRMHbits
                                           	extern	_UIRbits
                                           	extern	_UIEbits
                                           	extern	_UEIRbits
                                           	extern	_UEIEbits
                                           	extern	_USTATbits
                                           	extern	_UCONbits
                                           	extern	_UADDRbits
                                           	extern	_UCFGbits
                                           	extern	_UEP0bits
                                           	extern	_UEP1bits
                                           	extern	_UEP2bits
                                           	extern	_UEP3bits
                                           	extern	_UEP4bits
                                           	extern	_UEP5bits
                                           	extern	_UEP6bits
                                           	extern	_UEP7bits
                                           	extern	_UEP8bits
                                           	extern	_UEP9bits
                                           	extern	_UEP10bits
                                           	extern	_UEP11bits
                                           	extern	_UEP12bits
                                           	extern	_UEP13bits
                                           	extern	_UEP14bits
                                           	extern	_UEP15bits
                                           	extern	_PORTAbits
                                           	extern	_PORTBbits
                                           	extern	_PORTCbits
                                           	extern	_PORTDbits
                                           	extern	_PORTEbits
                                           	extern	_LATAbits
                                           	extern	_LATBbits
                                           	extern	_LATCbits
                                           	extern	_LATDbits
                                           	extern	_LATEbits
                                           	extern	_DDRAbits
                                           	extern	_TRISAbits
                                           	extern	_DDRBbits
                                           	extern	_TRISBbits
                                           	extern	_DDRCbits
                                           	extern	_TRISCbits
                                           	extern	_DDRDbits
                                           	extern	_TRISDbits
                                           	extern	_DDREbits
                                           	extern	_TRISEbits
                                           	extern	_OSCTUNEbits
                                           	extern	_PIE1bits
                                           	extern	_PIR1bits
                                           	extern	_IPR1bits
                                           	extern	_PIE2bits
                                           	extern	_PIR2bits
                                           	extern	_IPR2bits
                                           	extern	_EECON1bits
                                           	extern	_RCSTAbits
                                           	extern	_TXSTAbits
                                           	extern	_T3CONbits
                                           	extern	_CMCONbits
                                           	extern	_CVRCONbits
                                           	extern	_CCP1ASbits
                                           	extern	_ECCP1ASbits
                                           	extern	_CCP1DELbits
                                           	extern	_ECCP1DELbits
                                           	extern	_BAUDCONbits
                                           	extern	_BAUDCTLbits
                                           	extern	_CCP2CONbits
                                           	extern	_CCP1CONbits
                                           	extern	_ECCP1CONbits
                                           	extern	_ADCON2bits
                                           	extern	_ADCON1bits
                                           	extern	_ADCON0bits
                                           	extern	_SSPCON2bits
                                           	extern	_SSPCON1bits
                                           	extern	_SSPSTATbits
                                           	extern	_T2CONbits
                                           	extern	_T1CONbits
                                           	extern	_RCONbits
                                           	extern	_WDTCONbits
                                           	extern	_HLVDCONbits
                                           	extern	_LVDCONbits
                                           	extern	_OSCCONbits
                                           	extern	_T0CONbits
                                           	extern	_STATUSbits
                                           	extern	_INTCON3bits
                                           	extern	_INTCON2bits
                                           	extern	_INTCONbits
                                           	extern	_STKPTRbits
                                           	extern	_SPPDATA
                                           	extern	_SPPCFG
                                           	extern	_SPPEPS
                                           	extern	_SPPCON
                                           	extern	_UFRM
                                           	extern	_UFRML
                                           	extern	_UFRMH
                                           	extern	_UIR
                                           	extern	_UIE
                                           	extern	_UEIR
                                           	extern	_UEIE
                                           	extern	_USTAT
                                           	extern	_UCON
                                           	extern	_UADDR
                                           	extern	_UCFG
                                           	extern	_UEP0
                                           	extern	_UEP1
                                           	extern	_UEP2
                                           	extern	_UEP3
                                           	extern	_UEP4
                                           	extern	_UEP5
                                           	extern	_UEP6
                                           	extern	_UEP7
                                           	extern	_UEP8
                                           	extern	_UEP9
                                           	extern	_UEP10
                                           	extern	_UEP11
                                           	extern	_UEP12
                                           	extern	_UEP13
                                           	extern	_UEP14
                                           	extern	_UEP15
                                           	extern	_PORTA
                                           	extern	_PORTB
                                           	extern	_PORTC
                                           	extern	_PORTD
                                           	extern	_PORTE
                                           	extern	_LATA
                                           	extern	_LATB
                                           	extern	_LATC
                                           	extern	_LATD
                                           	extern	_LATE
                                           	extern	_DDRA
                                           	extern	_TRISA
                                           	extern	_DDRB
                                           	extern	_TRISB
                                           	extern	_DDRC
                                           	extern	_TRISC
                                           	extern	_DDRD
                                           	extern	_TRISD
                                           	extern	_DDRE
                                           	extern	_TRISE
                                           	extern	_OSCTUNE
                                           	extern	_PIE1
                                           	extern	_PIR1
                                           	extern	_IPR1
                                           	extern	_PIE2
                                           	extern	_PIR2
                                           	extern	_IPR2
                                           	extern	_EECON1
                                           	extern	_EECON2
                                           	extern	_EEDATA
                                           	extern	_EEADR
                                           	extern	_RCSTA
                                           	extern	_TXSTA
                                           	extern	_TXREG
                                           	extern	_RCREG
                                           	extern	_SPBRG
                                           	extern	_SPBRGH
                                           	extern	_T3CON
                                           	extern	_TMR3
                                           	extern	_TMR3L
                                           	extern	_TMR3H
                                           	extern	_CMCON
                                           	extern	_CVRCON
                                           	extern	_CCP1AS
                                           	extern	_ECCP1AS
                                           	extern	_CCP1DEL
                                           	extern	_ECCP1DEL
                                           	extern	_BAUDCON
                                           	extern	_BAUDCTL
                                           	extern	_CCP2CON
                                           	extern	_CCPR2
                                           	extern	_CCPR2L
                                           	extern	_CCPR2H
                                           	extern	_CCP1CON
                                           	extern	_ECCP1CON
                                           	extern	_CCPR1
                                           	extern	_CCPR1L
                                           	extern	_CCPR1H
                                           	extern	_ADCON2
                                           	extern	_ADCON1
                                           	extern	_ADCON0
                                           	extern	_ADRES
                                           	extern	_ADRESL
                                           	extern	_ADRESH
                                           	extern	_SSPCON2
                                           	extern	_SSPCON1
                                           	extern	_SSPSTAT
                                           	extern	_SSPADD
                                           	extern	_SSPBUF
                                           	extern	_T2CON
                                           	extern	_PR2
                                           	extern	_TMR2
                                           	extern	_T1CON
                                           	extern	_TMR1
                                           	extern	_TMR1L
                                           	extern	_TMR1H
                                           	extern	_RCON
                                           	extern	_WDTCON
                                           	extern	_HLVDCON
                                           	extern	_LVDCON
                                           	extern	_OSCCON
                                           	extern	_T0CON
                                           	extern	_TMR0
                                           	extern	_TMR0L
                                           	extern	_TMR0H
                                           	extern	_STATUS
                                           	extern	_FSR2L
                                           	extern	_FSR2H
                                           	extern	_PLUSW2
                                           	extern	_PREINC2
                                           	extern	_POSTDEC2
                                           	extern	_POSTINC2
                                           	extern	_INDF2
                                           	extern	_BSR
                                           	extern	_FSR1L
                                           	extern	_FSR1H
                                           	extern	_PLUSW1
                                           	extern	_PREINC1
                                           	extern	_POSTDEC1
                                           	extern	_POSTINC1
                                           	extern	_INDF1
                                           	extern	_WREG
                                           	extern	_FSR0L
                                           	extern	_FSR0H
                                           	extern	_PLUSW0
                                           	extern	_PREINC0
                                           	extern	_POSTDEC0
                                           	extern	_POSTINC0
                                           	extern	_INDF0
                                           	extern	_INTCON3
                                           	extern	_INTCON2
                                           	extern	_INTCON
                                           	extern	_PROD
                                           	extern	_PRODL
                                           	extern	_PRODH
                                           	extern	_TABLAT
                                           	extern	_TBLPTR
                                           	extern	_TBLPTRL
                                           	extern	_TBLPTRH
                                           	extern	_TBLPTRU
                                           	extern	_PC
                                           	extern	_PCL
                                           	extern	_PCLATH
                                           	extern	_PCLATU
                                           	extern	_STKPTR
                                           	extern	_TOS
                                           	extern	_TOSL
                                           	extern	_TOSH
                                           	extern	_TOSU
                                           	extern	_I2C_Start
                                           	extern	_I2C_Restart
                                           	extern	_I2C_Stop
                                           	extern	_I2C_Send
                                           	extern	_I2C_Read

                                           ;--------------------------------------------------------
                                           ;	Equates to used internal registers
                                           ;--------------------------------------------------------
                                           WREG	equ	0xfe8
                                           FSR1L	equ	0xfe1
                                           FSR2L	equ	0xfd9
                                           POSTINC1	equ	0xfe6
                                           POSTDEC1	equ	0xfe5
                                           PREINC1	equ	0xfe4
                                           PLUSW2	equ	0xfdb


                                           ; Internal registers
                                           .registers	udata_ovr	0x0000
                                           r0x00	res	1

                                           ;--------------------------------------------------------
                                           ; global & static initialisations
                                           ;--------------------------------------------------------
                                           ; I code from now on!
                                           ; ; Starting pCode block
                                           S_rtc__rtc1307_read	code
                                           _rtc1307_read:
                                           ;	.line	21; rtc.c	unsigned char rtc1307_read(unsigned char address)
002336   cfd9     movff   0xfd9, 0xfe5     	MOVFF	FSR2L, POSTDEC1
002338   ffe5
00233a   cfe1     movff   0xfe1, 0xfd9     	MOVFF	FSR1L, FSR2L
00233c   ffd9
00233e   c000     movff   0x000, 0xfe5     	MOVFF	r0x00, POSTDEC1
002340   ffe5
002342   0e02     movlw   0x02             	MOVLW	0x02
002344   cfdb     movff   0xfdb, 0x000     	MOVFF	PLUSW2, r0x00
002346   f000
                                           ;	.line	24; rtc.c	I2C_Start();
002348   ecd0     call    0x0025a0, 0x0    	CALL	_I2C_Start
00234a   f012
                                           ;	.line	25; rtc.c	I2C_Send(0xD0);
00234c   0ed0     movlw   0xd0             	MOVLW	0xd0
00234e   6ee5     movwf   0xe5, 0x0        	MOVWF	POSTDEC1
002350   ec03     call    0x002606, 0x0    	CALL	_I2C_Send
002352   f013
002354   52e6     movf    0xe6, 0x1, 0x0   	MOVF	POSTINC1, F
                                           ;	.line	26; rtc.c	I2C_Send(address);
002356   5000     movf    0x00, 0x0, 0x0   	MOVF	r0x00, W
002358   6ee5     movwf   0xe5, 0x0        	MOVWF	POSTDEC1
00235a   ec03     call    0x002606, 0x0    	CALL	_I2C_Send
00235c   f013
00235e   52e6     movf    0xe6, 0x1, 0x0   	MOVF	POSTINC1, F
                                           ;	.line	27; rtc.c	I2C_Restart();
002360   ecbe     call    0x00257c, 0x0    	CALL	_I2C_Restart
002362   f012
                                           ;	.line	28; rtc.c	I2C_Send(0xD1);
002364   0ed1     movlw   0xd1             	MOVLW	0xd1
002366   6ee5     movwf   0xe5, 0x0        	MOVWF	POSTDEC1
002368   ec03     call    0x002606, 0x0    	CALL	_I2C_Send
00236a   f013
00236c   52e6     movf    0xe6, 0x1, 0x0   	MOVF	POSTINC1, F
                                           ;	.line	29; rtc.c	temp = I2C_Read();
00236e   ece8     call    0x0023d0, 0x0    	CALL	_I2C_Read
002370   f011
002372   6e00     movwf   0x00, 0x0        	MOVWF	r0x00
                                           ;	.line	30; rtc.c	I2C_Stop();	//this line is Removed Because it is already included in I2C_read function
002374   ecac     call    0x002558, 0x0    	CALL	_I2C_Stop
002376   f012
                                           ;	.line	31; rtc.c	return temp;
002378   5000     movf    0x00, 0x0, 0x0   	MOVF	r0x00, W
00237a   cfe4     movff   0xfe4, 0x000     	MOVFF	PREINC1, r0x00
00237c   f000
00237e   cfe4     movff   0xfe4, 0xfd9     	MOVFF	PREINC1, FSR2L
002380   ffd9
002382   0012     return  0x0              	RETURN	

                                           ; ; Starting pCode block
                                           S_rtc__BCD2LowerCh	code
                                           _BCD2LowerCh:
                                           ;	.line	13; rtc.c	unsigned char BCD2LowerCh(unsigned char bcd)
00249a   cfd9     movff   0xfd9, 0xfe5     	MOVFF	FSR2L, POSTDEC1
00249c   ffe5
00249e   cfe1     movff   0xfe1, 0xfd9     	MOVFF	FSR1L, FSR2L
0024a0   ffd9
0024a2   c000     movff   0x000, 0xfe5     	MOVFF	r0x00, POSTDEC1
0024a4   ffe5
0024a6   0e02     movlw   0x02             	MOVLW	0x02
0024a8   cfdb     movff   0xfdb, 0x000     	MOVFF	PLUSW2, r0x00
0024aa   f000
                                           ;	.line	16; rtc.c	temp = bcd & 0x0F; //Making the Upper 4-bits
0024ac   0e0f     movlw   0x0f             	MOVLW	0x0f
0024ae   1600     andwf   0x00, 0x1, 0x0   	ANDWF	r0x00, F
                                           ;	.line	17; rtc.c	temp = temp | 0x30;
0024b0   0e30     movlw   0x30             	MOVLW	0x30
0024b2   1200     iorwf   0x00, 0x1, 0x0   	IORWF	r0x00, F
                                           ;	.line	18; rtc.c	return(temp);
0024b4   5000     movf    0x00, 0x0, 0x0   	MOVF	r0x00, W
0024b6   cfe4     movff   0xfe4, 0x000     	MOVFF	PREINC1, r0x00
0024b8   f000
0024ba   cfe4     movff   0xfe4, 0xfd9     	MOVFF	PREINC1, FSR2L
0024bc   ffd9
0024be   0012     return  0x0              	RETURN	

                                           ; ; Starting pCode block
                                           S_rtc__BCD2UpperCh	code
                                           _BCD2UpperCh:
                                           ;	.line	6; rtc.c	unsigned char BCD2UpperCh(unsigned char bcd)
002472   cfd9     movff   0xfd9, 0xfe5     	MOVFF	FSR2L, POSTDEC1
002474   ffe5
002476   cfe1     movff   0xfe1, 0xfd9     	MOVFF	FSR1L, FSR2L
002478   ffd9
00247a   c000     movff   0x000, 0xfe5     	MOVFF	r0x00, POSTDEC1
00247c   ffe5
00247e   0e02     movlw   0x02             	MOVLW	0x02
002480   cfdb     movff   0xfdb, 0x000     	MOVFF	PLUSW2, r0x00
002482   f000
                                           ;	.line	9; rtc.c	temp = bcd >> 4;
002484   3800     swapf   0x00, 0x0, 0x0   	SWAPF	r0x00, W
002486   0b0f     andlw   0x0f             	ANDLW	0x0f
002488   6e00     movwf   0x00, 0x0        	MOVWF	r0x00
                                           ;	.line	10; rtc.c	temp = temp | 0x30;
00248a   0e30     movlw   0x30             	MOVLW	0x30
00248c   1200     iorwf   0x00, 0x1, 0x0   	IORWF	r0x00, F
                                           ;	.line	11; rtc.c	return(temp);	
00248e   5000     movf    0x00, 0x0, 0x0   	MOVF	r0x00, W
002490   cfe4     movff   0xfe4, 0x000     	MOVFF	PREINC1, r0x00
002492   f000
002494   cfe4     movff   0xfe4, 0xfd9     	MOVFF	PREINC1, FSR2L
002496   ffd9
002498   0012     return  0x0              	RETURN	



                                           ; Statistics:
                                           ; code size:	  156 (0x009c) bytes ( 0.12%)
                                           ;           	   78 (0x004e) words
                                           ; udata size:	    0 (0x0000) bytes ( 0.00%)
                                           ; access size:	    1 (0x0001) bytes


                                           	end
                                           ;--------------------------------------------------------
                                           ; File Created by SDCC : free open source ANSI-C Compiler
                                           ; Version 3.6.0 #9615 (MINGW64)
                                           ;--------------------------------------------------------
                                           ; PIC16 port for the Microchip 16-bit core micros
                                           ;--------------------------------------------------------
                                           	list	p=18f4550
                                           	radix	dec


                                           ;--------------------------------------------------------
                                           ; public variables in this module
                                           ;--------------------------------------------------------
                                           	global	_adcInit
                                           	global	_adcPot
                                           	global	_adcIDA
                                           	global	_adcIDB
                                           	global	_adcAN1
                                           	global	_adcRead
                                           	global	_ReadPot

                                           ;--------------------------------------------------------
                                           ; extern variables in this module
                                           ;--------------------------------------------------------
                                           	extern	___uint2fs
                                           	extern	___fsmul
                                           	extern	___fs2uint

                                           ;--------------------------------------------------------
                                           ;	Equates to used internal registers
                                           ;--------------------------------------------------------
                                           WREG	equ	0xfe8
                                           FSR0L	equ	0xfe9
                                           FSR1L	equ	0xfe1
                                           FSR2L	equ	0xfd9
                                           INDF0	equ	0xfef
                                           POSTINC1	equ	0xfe6
                                           POSTDEC1	equ	0xfe5
                                           PREINC1	equ	0xfe4
                                           PRODL	equ	0xff3
                                           PRODH	equ	0xff4


                                           ; Internal registers
                                           .registers	udata_ovr	0x0000
                                           r0x00	res	1
                                           r0x01	res	1
                                           r0x02	res	1
                                           r0x03	res	1
                                           r0x04	res	1
                                           r0x05	res	1

                                           ;--------------------------------------------------------
                                           ; global & static initialisations
                                           ;--------------------------------------------------------
                                           ; I code from now on!
                                           ; ; Starting pCode block
                                           S_adc__ReadPot	code
                                           _ReadPot:
                                           ;	.line	61; adc.c	int ReadPot(void)
001666   cfd9     movff   0xfd9, 0xfe5     	MOVFF	FSR2L, POSTDEC1
001668   ffe5
00166a   cfe1     movff   0xfe1, 0xfd9     	MOVFF	FSR1L, FSR2L
00166c   ffd9
00166e   c000     movff   0x000, 0xfe5     	MOVFF	r0x00, POSTDEC1
001670   ffe5
001672   c001     movff   0x001, 0xfe5     	MOVFF	r0x01, POSTDEC1
001674   ffe5
001676   c002     movff   0x002, 0xfe5     	MOVFF	r0x02, POSTDEC1
001678   ffe5
00167a   c003     movff   0x003, 0xfe5     	MOVFF	r0x03, POSTDEC1
00167c   ffe5
00167e   c004     movff   0x004, 0xfe5     	MOVFF	r0x04, POSTDEC1
001680   ffe5
001682   c005     movff   0x005, 0xfe5     	MOVFF	r0x05, POSTDEC1
001684   ffe5
                                           ;	.line	64; adc.c	ADCON0 = 0b00010001;  //seleciona o canal 4 e liga o ad
001686   ee0f     lfsr    0x0, 0xfc2       	LFSR	0x00, 0xfc2
001688   f0c2
00168a   0e11     movlw   0x11             	MOVLW	0x11
00168c   6eef     movwf   0xef, 0x0        	MOVWF	INDF0
                                           ;	.line	65; adc.c	ADCON0 |= 0b00000010;	 //inicia conversao
00168e   ee0f     lfsr    0x0, 0xfc2       	LFSR	0x00, 0xfc2
001690   f0c2
001692   cfef     movff   0xfef, 0x000     	MOVFF	INDF0, r0x00
001694   f000
001696   8200     bsf     0x00, 0x1, 0x0   	BSF	r0x00, 1
001698   ee0f     lfsr    0x0, 0xfc2       	LFSR	0x00, 0xfc2
00169a   f0c2
00169c   c000     movff   0x000, 0xfef     	MOVFF	r0x00, INDF0
00169e   ffef
                                           _00147_DS_:
                                           ;	.line	67; adc.c	while(BitTst(ADCON0,1)); // espera terminar a conversão;
0016a0   ee0f     lfsr    0x0, 0xfc2       	LFSR	0x00, 0xfc2
0016a2   f0c2
0016a4   cfef     movff   0xfef, 0x000     	MOVFF	INDF0, r0x00
0016a6   f000
0016a8   b200     btfsc   0x00, 0x1, 0x0   	BTFSC	r0x00, 1
0016aa   d7fa     bra     0x0016a0         	BRA	_00147_DS_
                                           ;	.line	69; adc.c	ADvalor = ADRESH ; // le o resultado
0016ac   ee0f     lfsr    0x0, 0xfc4       	LFSR	0x00, 0xfc4
0016ae   f0c4
0016b0   cfef     movff   0xfef, 0x000     	MOVFF	INDF0, r0x00
0016b2   f000
0016b4   6a01     clrf    0x01, 0x0        	CLRF	r0x01
                                           ;	.line	70; adc.c	ADvalor <<= 8;
0016b6   5000     movf    0x00, 0x0, 0x0   	MOVF	r0x00, W
0016b8   6e01     movwf   0x01, 0x0        	MOVWF	r0x01
0016ba   6a00     clrf    0x00, 0x0        	CLRF	r0x00
                                           ;	.line	71; adc.c	ADvalor += ADRESL;
0016bc   ee0f     lfsr    0x0, 0xfc3       	LFSR	0x00, 0xfc3
0016be   f0c3
0016c0   cfef     movff   0xfef, 0x002     	MOVFF	INDF0, r0x02
0016c2   f002
0016c4   6a03     clrf    0x03, 0x0        	CLRF	r0x03
0016c6   5002     movf    0x02, 0x0, 0x0   	MOVF	r0x02, W
0016c8   2600     addwf   0x00, 0x1, 0x0   	ADDWF	r0x00, F
0016ca   5003     movf    0x03, 0x0, 0x0   	MOVF	r0x03, W
0016cc   2201     addwfc  0x01, 0x1, 0x0   	ADDWFC	r0x01, F
                                           ;	.line	72; adc.c	ADvalor = ADvalor * 1.51515;
0016ce   5001     movf    0x01, 0x0, 0x0   	MOVF	r0x01, W
0016d0   6ee5     movwf   0xe5, 0x0        	MOVWF	POSTDEC1
0016d2   5000     movf    0x00, 0x0, 0x0   	MOVF	r0x00, W
0016d4   6ee5     movwf   0xe5, 0x0        	MOVWF	POSTDEC1
0016d6   ec3a     call    0x002274, 0x0    	CALL	___uint2fs
0016d8   f011
0016da   6e02     movwf   0x02, 0x0        	MOVWF	r0x02
0016dc   cff3     movff   0xff3, 0x003     	MOVFF	PRODL, r0x03
0016de   f003
0016e0   cff4     movff   0xff4, 0x004     	MOVFF	PRODH, r0x04
0016e2   f004
0016e4   cfe9     movff   0xfe9, 0x005     	MOVFF	FSR0L, r0x05
0016e6   f005
0016e8   52e6     movf    0xe6, 0x1, 0x0   	MOVF	POSTINC1, F
0016ea   52e6     movf    0xe6, 0x1, 0x0   	MOVF	POSTINC1, F
0016ec   5005     movf    0x05, 0x0, 0x0   	MOVF	r0x05, W
0016ee   6ee5     movwf   0xe5, 0x0        	MOVWF	POSTDEC1
0016f0   5004     movf    0x04, 0x0, 0x0   	MOVF	r0x04, W
0016f2   6ee5     movwf   0xe5, 0x0        	MOVWF	POSTDEC1
0016f4   5003     movf    0x03, 0x0, 0x0   	MOVF	r0x03, W
0016f6   6ee5     movwf   0xe5, 0x0        	MOVWF	POSTDEC1
0016f8   5002     movf    0x02, 0x0, 0x0   	MOVF	r0x02, W
0016fa   6ee5     movwf   0xe5, 0x0        	MOVWF	POSTDEC1
0016fc   0e3f     movlw   0x3f             	MOVLW	0x3f
0016fe   6ee5     movwf   0xe5, 0x0        	MOVWF	POSTDEC1
001700   0ec1     movlw   0xc1             	MOVLW	0xc1
001702   6ee5     movwf   0xe5, 0x0        	MOVWF	POSTDEC1
001704   0ef0     movlw   0xf0             	MOVLW	0xf0
001706   6ee5     movwf   0xe5, 0x0        	MOVWF	POSTDEC1
001708   0e6f     movlw   0x6f             	MOVLW	0x6f
00170a   6ee5     movwf   0xe5, 0x0        	MOVWF	POSTDEC1
00170c   eceb     call    0x0005d6, 0x0    	CALL	___fsmul
00170e   f002
001710   6e02     movwf   0x02, 0x0        	MOVWF	r0x02
001712   cff3     movff   0xff3, 0x003     	MOVFF	PRODL, r0x03
001714   f003
001716   cff4     movff   0xff4, 0x004     	MOVFF	PRODH, r0x04
001718   f004
00171a   cfe9     movff   0xfe9, 0x005     	MOVFF	FSR0L, r0x05
00171c   f005
00171e   0e08     movlw   0x08             	MOVLW	0x08
001720   26e1     addwf   0xe1, 0x1, 0x0   	ADDWF	FSR1L, F
001722   5005     movf    0x05, 0x0, 0x0   	MOVF	r0x05, W
001724   6ee5     movwf   0xe5, 0x0        	MOVWF	POSTDEC1
001726   5004     movf    0x04, 0x0, 0x0   	MOVF	r0x04, W
001728   6ee5     movwf   0xe5, 0x0        	MOVWF	POSTDEC1
00172a   5003     movf    0x03, 0x0, 0x0   	MOVF	r0x03, W
00172c   6ee5     movwf   0xe5, 0x0        	MOVWF	POSTDEC1
00172e   5002     movf    0x02, 0x0, 0x0   	MOVF	r0x02, W
001730   6ee5     movwf   0xe5, 0x0        	MOVWF	POSTDEC1
001732   ec6f     call    0x001ede, 0x0    	CALL	___fs2uint
001734   f00f
001736   6e00     movwf   0x00, 0x0        	MOVWF	r0x00
001738   cff3     movff   0xff3, 0x001     	MOVFF	PRODL, r0x01
00173a   f001
00173c   0e04     movlw   0x04             	MOVLW	0x04
00173e   26e1     addwf   0xe1, 0x1, 0x0   	ADDWF	FSR1L, F
                                           ;	.line	73; adc.c	return ADvalor;
001740   c001     movff   0x001, 0xff3     	MOVFF	r0x01, PRODL
001742   fff3
001744   5000     movf    0x00, 0x0, 0x0   	MOVF	r0x00, W
001746   cfe4     movff   0xfe4, 0x005     	MOVFF	PREINC1, r0x05
001748   f005
00174a   cfe4     movff   0xfe4, 0x004     	MOVFF	PREINC1, r0x04
00174c   f004
00174e   cfe4     movff   0xfe4, 0x003     	MOVFF	PREINC1, r0x03
001750   f003
001752   cfe4     movff   0xfe4, 0x002     	MOVFF	PREINC1, r0x02
001754   f002
001756   cfe4     movff   0xfe4, 0x001     	MOVFF	PREINC1, r0x01
001758   f001
00175a   cfe4     movff   0xfe4, 0x000     	MOVFF	PREINC1, r0x00
00175c   f000
00175e   cfe4     movff   0xfe4, 0xfd9     	MOVFF	PREINC1, FSR2L
001760   ffd9
001762   0012     return  0x0              	RETURN	

                                           ; ; Starting pCode block
                                           S_adc__adcRead	code
                                           _adcRead:
                                           ;	.line	48; adc.c	int adcRead(void)
002200   cfd9     movff   0xfd9, 0xfe5     	MOVFF	FSR2L, POSTDEC1
002202   ffe5
002204   cfe1     movff   0xfe1, 0xfd9     	MOVFF	FSR1L, FSR2L
002206   ffd9
002208   c000     movff   0x000, 0xfe5     	MOVFF	r0x00, POSTDEC1
00220a   ffe5
00220c   c001     movff   0x001, 0xfe5     	MOVFF	r0x01, POSTDEC1
00220e   ffe5
002210   c002     movff   0x002, 0xfe5     	MOVFF	r0x02, POSTDEC1
002212   ffe5
002214   c003     movff   0x003, 0xfe5     	MOVFF	r0x03, POSTDEC1
002216   ffe5
                                           ;	.line	51; adc.c	ADCON0 |= 0b00000010;	 //inicia conversao
002218   ee0f     lfsr    0x0, 0xfc2       	LFSR	0x00, 0xfc2
00221a   f0c2
00221c   cfef     movff   0xfef, 0x000     	MOVFF	INDF0, r0x00
00221e   f000
002220   8200     bsf     0x00, 0x1, 0x0   	BSF	r0x00, 1
002222   ee0f     lfsr    0x0, 0xfc2       	LFSR	0x00, 0xfc2
002224   f0c2
002226   c000     movff   0x000, 0xfef     	MOVFF	r0x00, INDF0
002228   ffef
                                           _00130_DS_:
                                           ;	.line	53; adc.c	while(BitTst(ADCON0,1)); // espera terminar a conversão;
00222a   ee0f     lfsr    0x0, 0xfc2       	LFSR	0x00, 0xfc2
00222c   f0c2
00222e   cfef     movff   0xfef, 0x000     	MOVFF	INDF0, r0x00
002230   f000
002232   b200     btfsc   0x00, 0x1, 0x0   	BTFSC	r0x00, 1
002234   d7fa     bra     0x00222a         	BRA	_00130_DS_
                                           ;	.line	55; adc.c	ADvalor = ADRESH ; // le o resultado
002236   ee0f     lfsr    0x0, 0xfc4       	LFSR	0x00, 0xfc4
002238   f0c4
00223a   cfef     movff   0xfef, 0x000     	MOVFF	INDF0, r0x00
00223c   f000
00223e   6a01     clrf    0x01, 0x0        	CLRF	r0x01
                                           ;	.line	56; adc.c	ADvalor <<= 8;
002240   5000     movf    0x00, 0x0, 0x0   	MOVF	r0x00, W
002242   6e01     movwf   0x01, 0x0        	MOVWF	r0x01
002244   6a00     clrf    0x00, 0x0        	CLRF	r0x00
                                           ;	.line	57; adc.c	ADvalor += ADRESL;
002246   ee0f     lfsr    0x0, 0xfc3       	LFSR	0x00, 0xfc3
002248   f0c3
00224a   cfef     movff   0xfef, 0x002     	MOVFF	INDF0, r0x02
00224c   f002
00224e   6a03     clrf    0x03, 0x0        	CLRF	r0x03
002250   5002     movf    0x02, 0x0, 0x0   	MOVF	r0x02, W
002252   2600     addwf   0x00, 0x1, 0x0   	ADDWF	r0x00, F
002254   5003     movf    0x03, 0x0, 0x0   	MOVF	r0x03, W
002256   2201     addwfc  0x01, 0x1, 0x0   	ADDWFC	r0x01, F
                                           ;	.line	58; adc.c	return ADvalor;
002258   c001     movff   0x001, 0xff3     	MOVFF	r0x01, PRODL
00225a   fff3
00225c   5000     movf    0x00, 0x0, 0x0   	MOVF	r0x00, W
00225e   cfe4     movff   0xfe4, 0x003     	MOVFF	PREINC1, r0x03
002260   f003
002262   cfe4     movff   0xfe4, 0x002     	MOVFF	PREINC1, r0x02
002264   f002
002266   cfe4     movff   0xfe4, 0x001     	MOVFF	PREINC1, r0x01
002268   f001
00226a   cfe4     movff   0xfe4, 0x000     	MOVFF	PREINC1, r0x00
00226c   f000
00226e   cfe4     movff   0xfe4, 0xfd9     	MOVFF	PREINC1, FSR2L
002270   ffd9
002272   0012     return  0x0              	RETURN	

                                           ; ; Starting pCode block
                                           S_adc__adcAN1	code
                                           _adcAN1:
                                           ;	.line	41; adc.c	void adcAN1(void)
0024c0   cfd9     movff   0xfd9, 0xfe5     	MOVFF	FSR2L, POSTDEC1
0024c2   ffe5
0024c4   cfe1     movff   0xfe1, 0xfd9     	MOVFF	FSR1L, FSR2L
0024c6   ffd9
                                           ;	.line	43; adc.c	ADCON0 = 0b00011101;  //seleciona o canal 3 e liga o ad
0024c8   ee0f     lfsr    0x0, 0xfc2       	LFSR	0x00, 0xfc2
0024ca   f0c2
0024cc   0e1d     movlw   0x1d             	MOVLW	0x1d
0024ce   6eef     movwf   0xef, 0x0        	MOVWF	INDF0
                                           ;	.line	44; adc.c	ADCON1 = 0x06; //apenas AN0 é analogico, a referencia é baseada na fonte
0024d0   ee0f     lfsr    0x0, 0xfc1       	LFSR	0x00, 0xfc1
0024d2   f0c1
0024d4   0e06     movlw   0x06             	MOVLW	0x06
0024d6   6eef     movwf   0xef, 0x0        	MOVWF	INDF0
                                           ;	.line	45; adc.c	ADCON2 = 0b10101010; //FOSC /32, Alinhamento à direita e tempo de conv = 12 TAD
0024d8   ee0f     lfsr    0x0, 0xfc0       	LFSR	0x00, 0xfc0
0024da   f0c0
0024dc   0eaa     movlw   0xaa             	MOVLW	0xaa
0024de   6eef     movwf   0xef, 0x0        	MOVWF	INDF0
0024e0   cfe4     movff   0xfe4, 0xfd9     	MOVFF	PREINC1, FSR2L
0024e2   ffd9
0024e4   0012     return  0x0              	RETURN	

                                           ; ; Starting pCode block
                                           S_adc__adcIDB	code
                                           _adcIDB:
                                           ;	.line	34; adc.c	void adcIDB(void)
0024e6   cfd9     movff   0xfd9, 0xfe5     	MOVFF	FSR2L, POSTDEC1
0024e8   ffe5
0024ea   cfe1     movff   0xfe1, 0xfd9     	MOVFF	FSR1L, FSR2L
0024ec   ffd9
                                           ;	.line	36; adc.c	ADCON0 = 0b00001101;  //seleciona o canal 3 e liga o ad
0024ee   ee0f     lfsr    0x0, 0xfc2       	LFSR	0x00, 0xfc2
0024f0   f0c2
0024f2   0e0d     movlw   0x0d             	MOVLW	0x0d
0024f4   6eef     movwf   0xef, 0x0        	MOVWF	INDF0
                                           ;	.line	37; adc.c	ADCON1 = 0x06; //apenas AN0 é analogico, a referencia é baseada na fonte
0024f6   ee0f     lfsr    0x0, 0xfc1       	LFSR	0x00, 0xfc1
0024f8   f0c1
0024fa   0e06     movlw   0x06             	MOVLW	0x06
0024fc   6eef     movwf   0xef, 0x0        	MOVWF	INDF0
                                           ;	.line	38; adc.c	ADCON2 = 0b10101010; //FOSC /32, Alinhamento à direita e tempo de conv = 12 TAD
0024fe   ee0f     lfsr    0x0, 0xfc0       	LFSR	0x00, 0xfc0
002500   f0c0
002502   0eaa     movlw   0xaa             	MOVLW	0xaa
002504   6eef     movwf   0xef, 0x0        	MOVWF	INDF0
002506   cfe4     movff   0xfe4, 0xfd9     	MOVFF	PREINC1, FSR2L
002508   ffd9
00250a   0012     return  0x0              	RETURN	

                                           ; ; Starting pCode block
                                           S_adc__adcIDA	code
                                           _adcIDA:
                                           ;	.line	27; adc.c	void adcIDA(void)
00250c   cfd9     movff   0xfd9, 0xfe5     	MOVFF	FSR2L, POSTDEC1
00250e   ffe5
002510   cfe1     movff   0xfe1, 0xfd9     	MOVFF	FSR1L, FSR2L
002512   ffd9
                                           ;	.line	29; adc.c	ADCON0 = 0b00001001;  //seleciona o canal 2 e liga o ad
002514   ee0f     lfsr    0x0, 0xfc2       	LFSR	0x00, 0xfc2
002516   f0c2
002518   0e09     movlw   0x09             	MOVLW	0x09
00251a   6eef     movwf   0xef, 0x0        	MOVWF	INDF0
                                           ;	.line	30; adc.c	ADCON1 = 0x06; //apenas AN0 é analogico, a referencia é baseada na fonte
00251c   ee0f     lfsr    0x0, 0xfc1       	LFSR	0x00, 0xfc1
00251e   f0c1
002520   0e06     movlw   0x06             	MOVLW	0x06
002522   6eef     movwf   0xef, 0x0        	MOVWF	INDF0
                                           ;	.line	31; adc.c	ADCON2 = 0b10101010; //FOSC /32, Alinhamento à direita e tempo de conv = 12 TAD
002524   ee0f     lfsr    0x0, 0xfc0       	LFSR	0x00, 0xfc0
002526   f0c0
002528   0eaa     movlw   0xaa             	MOVLW	0xaa
00252a   6eef     movwf   0xef, 0x0        	MOVWF	INDF0
00252c   cfe4     movff   0xfe4, 0xfd9     	MOVFF	PREINC1, FSR2L
00252e   ffd9
002530   0012     return  0x0              	RETURN	

                                           ; ; Starting pCode block
                                           S_adc__adcPot	code
                                           _adcPot:
                                           ;	.line	20; adc.c	void adcPot(void)
002532   cfd9     movff   0xfd9, 0xfe5     	MOVFF	FSR2L, POSTDEC1
002534   ffe5
002536   cfe1     movff   0xfe1, 0xfd9     	MOVFF	FSR1L, FSR2L
002538   ffd9
                                           ;	.line	22; adc.c	ADCON0 = 0b00010001;  //seleciona o canal 4 e liga o ad
00253a   ee0f     lfsr    0x0, 0xfc2       	LFSR	0x00, 0xfc2
00253c   f0c2
00253e   0e11     movlw   0x11             	MOVLW	0x11
002540   6eef     movwf   0xef, 0x0        	MOVWF	INDF0
                                           ;	.line	23; adc.c	ADCON1 = 0x06; //apenas AN0 é analogico, a referencia é baseada na fonte
002542   ee0f     lfsr    0x0, 0xfc1       	LFSR	0x00, 0xfc1
002544   f0c1
002546   0e06     movlw   0x06             	MOVLW	0x06
002548   6eef     movwf   0xef, 0x0        	MOVWF	INDF0
                                           ;	.line	24; adc.c	ADCON2 = 0b10101010; //FOSC /32, Alinhamento à direita e tempo de conv = 12 TAD
00254a   ee0f     lfsr    0x0, 0xfc0       	LFSR	0x00, 0xfc0
00254c   f0c0
00254e   0eaa     movlw   0xaa             	MOVLW	0xaa
002550   6eef     movwf   0xef, 0x0        	MOVWF	INDF0
002552   cfe4     movff   0xfe4, 0xfd9     	MOVFF	PREINC1, FSR2L
002554   ffd9
002556   0012     return  0x0              	RETURN	

                                           ; ; Starting pCode block
                                           S_adc__adcInit	code
                                           _adcInit:
                                           ;	.line	8; adc.c	void adcInit(void)
001ffc   cfd9     movff   0xfd9, 0xfe5     	MOVFF	FSR2L, POSTDEC1
001ffe   ffe5
002000   cfe1     movff   0xfe1, 0xfd9     	MOVFF	FSR1L, FSR2L
002002   ffd9
002004   c000     movff   0x000, 0xfe5     	MOVFF	r0x00, POSTDEC1
002006   ffe5
                                           ;	.line	10; adc.c	BitClr(TRISA,0);
002008   ee0f     lfsr    0x0, 0xf92       	LFSR	0x00, 0xf92
00200a   f092
00200c   cfef     movff   0xfef, 0x000     	MOVFF	INDF0, r0x00
00200e   f000
002010   9000     bcf     0x00, 0x0, 0x0   	BCF	r0x00, 0
002012   ee0f     lfsr    0x0, 0xf92       	LFSR	0x00, 0xf92
002014   f092
002016   c000     movff   0x000, 0xfef     	MOVFF	r0x00, INDF0
002018   ffef
                                           ;	.line	11; adc.c	BitClr(TRISA,1);
00201a   ee0f     lfsr    0x0, 0xf92       	LFSR	0x00, 0xf92
00201c   f092
00201e   cfef     movff   0xfef, 0x000     	MOVFF	INDF0, r0x00
002020   f000
002022   9200     bcf     0x00, 0x1, 0x0   	BCF	r0x00, 1
002024   ee0f     lfsr    0x0, 0xf92       	LFSR	0x00, 0xf92
002026   f092
002028   c000     movff   0x000, 0xfef     	MOVFF	r0x00, INDF0
00202a   ffef
                                           ;	.line	12; adc.c	BitSet(TRISA,2);	
00202c   ee0f     lfsr    0x0, 0xf92       	LFSR	0x00, 0xf92
00202e   f092
002030   cfef     movff   0xfef, 0x000     	MOVFF	INDF0, r0x00
002032   f000
002034   8400     bsf     0x00, 0x2, 0x0   	BSF	r0x00, 2
002036   ee0f     lfsr    0x0, 0xf92       	LFSR	0x00, 0xf92
002038   f092
00203a   c000     movff   0x000, 0xfef     	MOVFF	r0x00, INDF0
00203c   ffef
                                           ;	.line	13; adc.c	BitSet(TRISA,3);
00203e   ee0f     lfsr    0x0, 0xf92       	LFSR	0x00, 0xf92
002040   f092
002042   cfef     movff   0xfef, 0x000     	MOVFF	INDF0, r0x00
002044   f000
002046   8600     bsf     0x00, 0x3, 0x0   	BSF	r0x00, 3
002048   ee0f     lfsr    0x0, 0xf92       	LFSR	0x00, 0xf92
00204a   f092
00204c   c000     movff   0x000, 0xfef     	MOVFF	r0x00, INDF0
00204e   ffef
                                           ;	.line	14; adc.c	BitSet(TRISA,5);    
002050   ee0f     lfsr    0x0, 0xf92       	LFSR	0x00, 0xf92
002052   f092
002054   cfef     movff   0xfef, 0x000     	MOVFF	INDF0, r0x00
002056   f000
002058   8a00     bsf     0x00, 0x5, 0x0   	BSF	r0x00, 5
00205a   ee0f     lfsr    0x0, 0xf92       	LFSR	0x00, 0xf92
00205c   f092
00205e   c000     movff   0x000, 0xfef     	MOVFF	r0x00, INDF0
002060   ffef
                                           ;	.line	15; adc.c	ADCON0 = 0b00010000; //seleciona o canal 0 e liga o ad
002062   ee0f     lfsr    0x0, 0xfc2       	LFSR	0x00, 0xfc2
002064   f0c2
002066   0e10     movlw   0x10             	MOVLW	0x10
002068   6eef     movwf   0xef, 0x0        	MOVWF	INDF0
                                           ;	.line	16; adc.c	ADCON1 = 0x0F; //Todos Digitais, a referencia é baseada na fonte
00206a   ee0f     lfsr    0x0, 0xfc1       	LFSR	0x00, 0xfc1
00206c   f0c1
00206e   0e0f     movlw   0x0f             	MOVLW	0x0f
002070   6eef     movwf   0xef, 0x0        	MOVWF	INDF0
                                           ;	.line	17; adc.c	ADCON2 = 0b10101010; //FOSC /32, Alinhamento à direita e tempo de conv = 12 TAD
002072   ee0f     lfsr    0x0, 0xfc0       	LFSR	0x00, 0xfc0
002074   f0c0
002076   0eaa     movlw   0xaa             	MOVLW	0xaa
002078   6eef     movwf   0xef, 0x0        	MOVWF	INDF0
00207a   cfe4     movff   0xfe4, 0x000     	MOVFF	PREINC1, r0x00
00207c   f000
00207e   cfe4     movff   0xfe4, 0xfd9     	MOVFF	PREINC1, FSR2L
002080   ffd9
002082   0012     return  0x0              	RETURN	



                                           ; Statistics:
                                           ; code size:	  658 (0x0292) bytes ( 0.50%)
                                           ;           	  329 (0x0149) words
                                           ; udata size:	    0 (0x0000) bytes ( 0.00%)
                                           ; access size:	    6 (0x0006) bytes


                                           	end
                                           ;--------------------------------------------------------
                                           ; File Created by SDCC : free open source ANSI-C Compiler
                                           ; Version 3.6.0 #9615 (MINGW64)
                                           ;--------------------------------------------------------
                                           ; PIC16 port for the Microchip 16-bit core micros
                                           ;--------------------------------------------------------
                                           	list	p=18f4550
                                           	radix	dec
                                           	CONFIG	MCLRE=ON
                                           	CONFIG	FOSC=HS
                                           	CONFIG	WDT=OFF
                                           	CONFIG	LVP=OFF
                                           	CONFIG	ICPRT=ON
                                           	CONFIG	XINST=OFF


                                           ;--------------------------------------------------------
                                           ; public variables in this module
                                           ;--------------------------------------------------------
                                           	global	_pot
                                           	global	_IDA
                                           	global	_IDB
                                           	global	_dac
                                           	global	_main

                                           ;--------------------------------------------------------
                                           ; extern variables in this module
                                           ;--------------------------------------------------------
                                           	extern	_lcdInit
                                           	extern	_Delay2ms
                                           	extern	_lcdLine
                                           	extern	_lcdData
                                           	extern	_lcdString
                                           	extern	_adcInit
                                           	extern	_adcPot
                                           	extern	_adcIDA
                                           	extern	_adcIDB
                                           	extern	_adcAN1
                                           	extern	_adcRead
                                           	extern	_ReadPot
                                           	extern	_I2C_Init
                                           	extern	_pwmSet1
                                           	extern	_pwmSet2
                                           	extern	_pwmInit
                                           	extern	_dac_i2c
                                           	extern	__mulint
                                           	extern	__divsint
                                           	extern	__modsint

                                           ;--------------------------------------------------------
                                           ;	Equates to used internal registers
                                           ;--------------------------------------------------------
                                           FSR1L	equ	0xfe1
                                           POSTINC1	equ	0xfe6
                                           POSTDEC1	equ	0xfe5
                                           PRODL	equ	0xff3


                                           ; Internal registers
                                           .registers	udata_ovr	0x0000
                                           r0x00	res	1
                                           r0x01	res	1
                                           r0x02	res	1

                                           udata_main_0	udata
                                           _pot	res	2

                                           udata_main_1	udata
                                           _IDA	res	2

                                           udata_main_2	udata
                                           _IDB	res	2

                                           udata_main_3	udata
                                           _dac	res	2

                                           ;--------------------------------------------------------
                                           ; interrupt vector
                                           ;--------------------------------------------------------

                                           ;--------------------------------------------------------
                                           ; global & static initialisations
                                           ;--------------------------------------------------------
                                           ; I code from now on!
                                           ; ; Starting pCode block
                                           S_main__main	code
                                           _main:
                                           ;	.line	14; main.c	I2C_Init();
000004   ecf3     call    0x0025e6, 0x0    	CALL	_I2C_Init
000006   f012
                                           ;	.line	16; main.c	pwmInit();
000008   ec42     call    0x002084, 0x0    	CALL	_pwmInit
00000a   f010
                                           ;	.line	17; main.c	pwmSet1(60);
00000c   0e3c     movlw   0x3c             	MOVLW	0x3c
00000e   6ee5     movwf   0xe5, 0x0        	MOVWF	POSTDEC1
000010   ec6e     call    0x001adc, 0x0    	CALL	_pwmSet1
000012   f00d
000014   52e6     movf    0xe6, 0x1, 0x0   	MOVF	POSTINC1, F
                                           ;	.line	18; main.c	pwmSet2(15);
000016   0e0f     movlw   0x0f             	MOVLW	0x0f
000018   6ee5     movwf   0xe5, 0x0        	MOVWF	POSTDEC1
00001a   ec10     call    0x001a20, 0x0    	CALL	_pwmSet2
00001c   f00d
00001e   52e6     movf    0xe6, 0x1, 0x0   	MOVF	POSTINC1, F
                                           ;	.line	19; main.c	adcInit();
000020   ecfe     call    0x001ffc, 0x0    	CALL	_adcInit
000022   f00f
                                           ;	.line	20; main.c	lcdInit(); 
000024   ecb5     call    0x00096a, 0x0    	CALL	_lcdInit
000026   f004
                                           _00106_DS_:
                                           ;	.line	25; main.c	adcPot();
000028   ec99     call    0x002532, 0x0    	CALL	_adcPot
00002a   f012
                                           ;	.line	26; main.c	pot = ReadPot();  
00002c   ec33     call    0x001666, 0x0    	CALL	_ReadPot
00002e   f00b
000030   0100     movlb   0x0              	BANKSEL	_pot
000032   6f84     movwf   0x84, 0x1        	MOVWF	_pot, B
000034   cff3     movff   0xff3, 0x085     	MOVFF	PRODL, (_pot + 1)
000036   f085
000038   0100     movlb   0x0              	BANKSEL	(_pot + 1)
                                           ;	.line	27; main.c	dac_i2c(pot*4);
00003a   5185     movf    0x85, 0x0, 0x1   	MOVF	(_pot + 1), W, B
00003c   6ee5     movwf   0xe5, 0x0        	MOVWF	POSTDEC1
00003e   0100     movlb   0x0              	BANKSEL	_pot
000040   5184     movf    0x84, 0x0, 0x1   	MOVF	_pot, W, B
000042   6ee5     movwf   0xe5, 0x0        	MOVWF	POSTDEC1
000044   0e00     movlw   0x00             	MOVLW	0x00
000046   6ee5     movwf   0xe5, 0x0        	MOVWF	POSTDEC1
000048   0e04     movlw   0x04             	MOVLW	0x04
00004a   6ee5     movwf   0xe5, 0x0        	MOVWF	POSTDEC1
00004c   ecd7     call    0x001dae, 0x0    	CALL	__mulint
00004e   f00e
000050   6e00     movwf   0x00, 0x0        	MOVWF	r0x00
000052   cff3     movff   0xff3, 0x001     	MOVFF	PRODL, r0x01
000054   f001
000056   0e04     movlw   0x04             	MOVLW	0x04
000058   26e1     addwf   0xe1, 0x1, 0x0   	ADDWF	FSR1L, F
00005a   5001     movf    0x01, 0x0, 0x0   	MOVF	r0x01, W
00005c   6ee5     movwf   0xe5, 0x0        	MOVWF	POSTDEC1
00005e   5000     movf    0x00, 0x0, 0x0   	MOVF	r0x00, W
000060   6ee5     movwf   0xe5, 0x0        	MOVWF	POSTDEC1
000062   ec27     call    0x001e4e, 0x0    	CALL	_dac_i2c
000064   f00f
000066   52e6     movf    0xe6, 0x1, 0x0   	MOVF	POSTINC1, F
000068   52e6     movf    0xe6, 0x1, 0x0   	MOVF	POSTINC1, F
                                           ;	.line	28; main.c	adcIDA();
00006a   ec86     call    0x00250c, 0x0    	CALL	_adcIDA
00006c   f012
                                           ;	.line	29; main.c	IDA = adcRead();
00006e   ec00     call    0x002200, 0x0    	CALL	_adcRead
000070   f011
000072   0100     movlb   0x0              	BANKSEL	_IDA
000074   6f86     movwf   0x86, 0x1        	MOVWF	_IDA, B
000076   cff3     movff   0xff3, 0x087     	MOVFF	PRODL, (_IDA + 1)
000078   f087
                                           ;	.line	30; main.c	adcIDB();
00007a   ec73     call    0x0024e6, 0x0    	CALL	_adcIDB
00007c   f012
                                           ;	.line	31; main.c	IDB = adcRead(); 
00007e   ec00     call    0x002200, 0x0    	CALL	_adcRead
000080   f011
000082   0100     movlb   0x0              	BANKSEL	_IDB
000084   6f88     movwf   0x88, 0x1        	MOVWF	_IDB, B
000086   cff3     movff   0xff3, 0x089     	MOVFF	PRODL, (_IDB + 1)
000088   f089
                                           ;	.line	32; main.c	adcAN1();
00008a   ec60     call    0x0024c0, 0x0    	CALL	_adcAN1
00008c   f012
                                           ;	.line	33; main.c	dac = adcRead();
00008e   ec00     call    0x002200, 0x0    	CALL	_adcRead
000090   f011
000092   0100     movlb   0x0              	BANKSEL	_dac
000094   6f8a     movwf   0x8a, 0x1        	MOVWF	_dac, B
000096   cff3     movff   0xff3, 0x08b     	MOVFF	PRODL, (_dac + 1)
000098   f08b
                                           ;	.line	34; main.c	Delay2ms();     
00009a   ec20     call    0x002440, 0x0    	CALL	_Delay2ms
00009c   f012
                                           ;	.line	36; main.c	adcInit();
00009e   ecfe     call    0x001ffc, 0x0    	CALL	_adcInit
0000a0   f00f
                                           ;	.line	37; main.c	Delay2ms();    
0000a2   ec20     call    0x002440, 0x0    	CALL	_Delay2ms
0000a4   f012
                                           ;	.line	38; main.c	lcdLine(1);
0000a6   0e00     movlw   0x00             	MOVLW	0x00
0000a8   6ee5     movwf   0xe5, 0x0        	MOVWF	POSTDEC1
0000aa   0e01     movlw   0x01             	MOVLW	0x01
0000ac   6ee5     movwf   0xe5, 0x0        	MOVWF	POSTDEC1
0000ae   ecc2     call    0x002384, 0x0    	CALL	_lcdLine
0000b0   f011
0000b2   52e6     movf    0xe6, 0x1, 0x0   	MOVF	POSTINC1, F
0000b4   52e6     movf    0xe6, 0x1, 0x0   	MOVF	POSTINC1, F
                                           ;	.line	39; main.c	lcdString("P:");
0000b6   0e00     movlw   0x00             	MOVLW	UPPER(___str_0)
0000b8   6e02     movwf   0x02, 0x0        	MOVWF	r0x02
0000ba   0e05     movlw   0x05             	MOVLW	HIGH(___str_0)
0000bc   6e01     movwf   0x01, 0x0        	MOVWF	r0x01
0000be   0ec4     movlw   0xc4             	MOVLW	LOW(___str_0)
0000c0   6e00     movwf   0x00, 0x0        	MOVWF	r0x00
0000c2   5002     movf    0x02, 0x0, 0x0   	MOVF	r0x02, W
0000c4   6ee5     movwf   0xe5, 0x0        	MOVWF	POSTDEC1
0000c6   5001     movf    0x01, 0x0, 0x0   	MOVF	r0x01, W
0000c8   6ee5     movwf   0xe5, 0x0        	MOVWF	POSTDEC1
0000ca   5000     movf    0x00, 0x0, 0x0   	MOVF	r0x00, W
0000cc   6ee5     movwf   0xe5, 0x0        	MOVWF	POSTDEC1
0000ce   ecb7     call    0x001f6e, 0x0    	CALL	_lcdString
0000d0   f00f
0000d2   0e03     movlw   0x03             	MOVLW	0x03
0000d4   26e1     addwf   0xe1, 0x1, 0x0   	ADDWF	FSR1L, F
                                           ;	.line	40; main.c	lcdData((pot / 1000) % 10 + 48);
0000d6   0e03     movlw   0x03             	MOVLW	0x03
0000d8   6ee5     movwf   0xe5, 0x0        	MOVWF	POSTDEC1
0000da   0ee8     movlw   0xe8             	MOVLW	0xe8
0000dc   6ee5     movwf   0xe5, 0x0        	MOVWF	POSTDEC1
0000de   0100     movlb   0x0              	BANKSEL	(_pot + 1)
0000e0   5185     movf    0x85, 0x0, 0x1   	MOVF	(_pot + 1), W, B
0000e2   6ee5     movwf   0xe5, 0x0        	MOVWF	POSTDEC1
0000e4   0100     movlb   0x0              	BANKSEL	_pot
0000e6   5184     movf    0x84, 0x0, 0x1   	MOVF	_pot, W, B
0000e8   6ee5     movwf   0xe5, 0x0        	MOVWF	POSTDEC1
0000ea   ec2b     call    0x001856, 0x0    	CALL	__divsint
0000ec   f00c
0000ee   6e00     movwf   0x00, 0x0        	MOVWF	r0x00
0000f0   cff3     movff   0xff3, 0x001     	MOVFF	PRODL, r0x01
0000f2   f001
0000f4   0e04     movlw   0x04             	MOVLW	0x04
0000f6   26e1     addwf   0xe1, 0x1, 0x0   	ADDWF	FSR1L, F
0000f8   0e00     movlw   0x00             	MOVLW	0x00
0000fa   6ee5     movwf   0xe5, 0x0        	MOVWF	POSTDEC1
0000fc   0e0a     movlw   0x0a             	MOVLW	0x0a
0000fe   6ee5     movwf   0xe5, 0x0        	MOVWF	POSTDEC1
000100   5001     movf    0x01, 0x0, 0x0   	MOVF	r0x01, W
000102   6ee5     movwf   0xe5, 0x0        	MOVWF	POSTDEC1
000104   5000     movf    0x00, 0x0, 0x0   	MOVF	r0x00, W
000106   6ee5     movwf   0xe5, 0x0        	MOVWF	POSTDEC1
000108   eca2     call    0x001944, 0x0    	CALL	__modsint
00010a   f00c
00010c   6e00     movwf   0x00, 0x0        	MOVWF	r0x00
00010e   cff3     movff   0xff3, 0x001     	MOVFF	PRODL, r0x01
000110   f001
000112   0e04     movlw   0x04             	MOVLW	0x04
000114   26e1     addwf   0xe1, 0x1, 0x0   	ADDWF	FSR1L, F
000116   0e30     movlw   0x30             	MOVLW	0x30
000118   2600     addwf   0x00, 0x1, 0x0   	ADDWF	r0x00, F
00011a   5000     movf    0x00, 0x0, 0x0   	MOVF	r0x00, W
00011c   6ee5     movwf   0xe5, 0x0        	MOVWF	POSTDEC1
00011e   ec68     call    0x000ed0, 0x0    	CALL	_lcdData
000120   f007
000122   52e6     movf    0xe6, 0x1, 0x0   	MOVF	POSTINC1, F
                                           ;	.line	41; main.c	lcdData((pot / 100) % 10 + 48);
000124   0e00     movlw   0x00             	MOVLW	0x00
000126   6ee5     movwf   0xe5, 0x0        	MOVWF	POSTDEC1
000128   0e64     movlw   0x64             	MOVLW	0x64
00012a   6ee5     movwf   0xe5, 0x0        	MOVWF	POSTDEC1
00012c   0100     movlb   0x0              	BANKSEL	(_pot + 1)
00012e   5185     movf    0x85, 0x0, 0x1   	MOVF	(_pot + 1), W, B
000130   6ee5     movwf   0xe5, 0x0        	MOVWF	POSTDEC1
000132   0100     movlb   0x0              	BANKSEL	_pot
000134   5184     movf    0x84, 0x0, 0x1   	MOVF	_pot, W, B
000136   6ee5     movwf   0xe5, 0x0        	MOVWF	POSTDEC1
000138   ec2b     call    0x001856, 0x0    	CALL	__divsint
00013a   f00c
00013c   6e00     movwf   0x00, 0x0        	MOVWF	r0x00
00013e   cff3     movff   0xff3, 0x001     	MOVFF	PRODL, r0x01
000140   f001
000142   0e04     movlw   0x04             	MOVLW	0x04
000144   26e1     addwf   0xe1, 0x1, 0x0   	ADDWF	FSR1L, F
000146   0e00     movlw   0x00             	MOVLW	0x00
000148   6ee5     movwf   0xe5, 0x0        	MOVWF	POSTDEC1
00014a   0e0a     movlw   0x0a             	MOVLW	0x0a
00014c   6ee5     movwf   0xe5, 0x0        	MOVWF	POSTDEC1
00014e   5001     movf    0x01, 0x0, 0x0   	MOVF	r0x01, W
000150   6ee5     movwf   0xe5, 0x0        	MOVWF	POSTDEC1
000152   5000     movf    0x00, 0x0, 0x0   	MOVF	r0x00, W
000154   6ee5     movwf   0xe5, 0x0        	MOVWF	POSTDEC1
000156   eca2     call    0x001944, 0x0    	CALL	__modsint
000158   f00c
00015a   6e00     movwf   0x00, 0x0        	MOVWF	r0x00
00015c   cff3     movff   0xff3, 0x001     	MOVFF	PRODL, r0x01
00015e   f001
000160   0e04     movlw   0x04             	MOVLW	0x04
000162   26e1     addwf   0xe1, 0x1, 0x0   	ADDWF	FSR1L, F
000164   0e30     movlw   0x30             	MOVLW	0x30
000166   2600     addwf   0x00, 0x1, 0x0   	ADDWF	r0x00, F
000168   5000     movf    0x00, 0x0, 0x0   	MOVF	r0x00, W
00016a   6ee5     movwf   0xe5, 0x0        	MOVWF	POSTDEC1
00016c   ec68     call    0x000ed0, 0x0    	CALL	_lcdData
00016e   f007
000170   52e6     movf    0xe6, 0x1, 0x0   	MOVF	POSTINC1, F
                                           ;	.line	42; main.c	lcdData((pot / 10) % 10 + 48);
000172   0e00     movlw   0x00             	MOVLW	0x00
000174   6ee5     movwf   0xe5, 0x0        	MOVWF	POSTDEC1
000176   0e0a     movlw   0x0a             	MOVLW	0x0a
000178   6ee5     movwf   0xe5, 0x0        	MOVWF	POSTDEC1
00017a   0100     movlb   0x0              	BANKSEL	(_pot + 1)
00017c   5185     movf    0x85, 0x0, 0x1   	MOVF	(_pot + 1), W, B
00017e   6ee5     movwf   0xe5, 0x0        	MOVWF	POSTDEC1
000180   0100     movlb   0x0              	BANKSEL	_pot
000182   5184     movf    0x84, 0x0, 0x1   	MOVF	_pot, W, B
000184   6ee5     movwf   0xe5, 0x0        	MOVWF	POSTDEC1
000186   ec2b     call    0x001856, 0x0    	CALL	__divsint
000188   f00c
00018a   6e00     movwf   0x00, 0x0        	MOVWF	r0x00
00018c   cff3     movff   0xff3, 0x001     	MOVFF	PRODL, r0x01
00018e   f001
000190   0e04     movlw   0x04             	MOVLW	0x04
000192   26e1     addwf   0xe1, 0x1, 0x0   	ADDWF	FSR1L, F
000194   0e00     movlw   0x00             	MOVLW	0x00
000196   6ee5     movwf   0xe5, 0x0        	MOVWF	POSTDEC1
000198   0e0a     movlw   0x0a             	MOVLW	0x0a
00019a   6ee5     movwf   0xe5, 0x0        	MOVWF	POSTDEC1
00019c   5001     movf    0x01, 0x0, 0x0   	MOVF	r0x01, W
00019e   6ee5     movwf   0xe5, 0x0        	MOVWF	POSTDEC1
0001a0   5000     movf    0x00, 0x0, 0x0   	MOVF	r0x00, W
0001a2   6ee5     movwf   0xe5, 0x0        	MOVWF	POSTDEC1
0001a4   eca2     call    0x001944, 0x0    	CALL	__modsint
0001a6   f00c
0001a8   6e00     movwf   0x00, 0x0        	MOVWF	r0x00
0001aa   cff3     movff   0xff3, 0x001     	MOVFF	PRODL, r0x01
0001ac   f001
0001ae   0e04     movlw   0x04             	MOVLW	0x04
0001b0   26e1     addwf   0xe1, 0x1, 0x0   	ADDWF	FSR1L, F
0001b2   0e30     movlw   0x30             	MOVLW	0x30
0001b4   2600     addwf   0x00, 0x1, 0x0   	ADDWF	r0x00, F
0001b6   5000     movf    0x00, 0x0, 0x0   	MOVF	r0x00, W
0001b8   6ee5     movwf   0xe5, 0x0        	MOVWF	POSTDEC1
0001ba   ec68     call    0x000ed0, 0x0    	CALL	_lcdData
0001bc   f007
0001be   52e6     movf    0xe6, 0x1, 0x0   	MOVF	POSTINC1, F
                                           ;	.line	43; main.c	lcdData((pot / 1) % 10 + 48);
0001c0   c084     movff   0x084, 0x000     	MOVFF	_pot, r0x00
0001c2   f000
0001c4   c085     movff   0x085, 0x001     	MOVFF	(_pot + 1), r0x01
0001c6   f001
0001c8   0e00     movlw   0x00             	MOVLW	0x00
0001ca   6ee5     movwf   0xe5, 0x0        	MOVWF	POSTDEC1
0001cc   0e0a     movlw   0x0a             	MOVLW	0x0a
0001ce   6ee5     movwf   0xe5, 0x0        	MOVWF	POSTDEC1
0001d0   5001     movf    0x01, 0x0, 0x0   	MOVF	r0x01, W
0001d2   6ee5     movwf   0xe5, 0x0        	MOVWF	POSTDEC1
0001d4   5000     movf    0x00, 0x0, 0x0   	MOVF	r0x00, W
0001d6   6ee5     movwf   0xe5, 0x0        	MOVWF	POSTDEC1
0001d8   eca2     call    0x001944, 0x0    	CALL	__modsint
0001da   f00c
0001dc   6e00     movwf   0x00, 0x0        	MOVWF	r0x00
0001de   cff3     movff   0xff3, 0x001     	MOVFF	PRODL, r0x01
0001e0   f001
0001e2   0e04     movlw   0x04             	MOVLW	0x04
0001e4   26e1     addwf   0xe1, 0x1, 0x0   	ADDWF	FSR1L, F
0001e6   0e30     movlw   0x30             	MOVLW	0x30
0001e8   2600     addwf   0x00, 0x1, 0x0   	ADDWF	r0x00, F
0001ea   5000     movf    0x00, 0x0, 0x0   	MOVF	r0x00, W
0001ec   6ee5     movwf   0xe5, 0x0        	MOVWF	POSTDEC1
0001ee   ec68     call    0x000ed0, 0x0    	CALL	_lcdData
0001f0   f007
0001f2   52e6     movf    0xe6, 0x1, 0x0   	MOVF	POSTINC1, F
                                           ;	.line	44; main.c	lcdString(" DAC:");
0001f4   0e00     movlw   0x00             	MOVLW	UPPER(___str_1)
0001f6   6e02     movwf   0x02, 0x0        	MOVWF	r0x02
0001f8   0e05     movlw   0x05             	MOVLW	HIGH(___str_1)
0001fa   6e01     movwf   0x01, 0x0        	MOVWF	r0x01
0001fc   0ec8     movlw   0xc8             	MOVLW	LOW(___str_1)
0001fe   6e00     movwf   0x00, 0x0        	MOVWF	r0x00
000200   5002     movf    0x02, 0x0, 0x0   	MOVF	r0x02, W
000202   6ee5     movwf   0xe5, 0x0        	MOVWF	POSTDEC1
000204   5001     movf    0x01, 0x0, 0x0   	MOVF	r0x01, W
000206   6ee5     movwf   0xe5, 0x0        	MOVWF	POSTDEC1
000208   5000     movf    0x00, 0x0, 0x0   	MOVF	r0x00, W
00020a   6ee5     movwf   0xe5, 0x0        	MOVWF	POSTDEC1
00020c   ecb7     call    0x001f6e, 0x0    	CALL	_lcdString
00020e   f00f
000210   0e03     movlw   0x03             	MOVLW	0x03
000212   26e1     addwf   0xe1, 0x1, 0x0   	ADDWF	FSR1L, F
                                           ;	.line	45; main.c	lcdData((dac / 1000) % 10 + 48);
000214   0e03     movlw   0x03             	MOVLW	0x03
000216   6ee5     movwf   0xe5, 0x0        	MOVWF	POSTDEC1
000218   0ee8     movlw   0xe8             	MOVLW	0xe8
00021a   6ee5     movwf   0xe5, 0x0        	MOVWF	POSTDEC1
00021c   0100     movlb   0x0              	BANKSEL	(_dac + 1)
00021e   518b     movf    0x8b, 0x0, 0x1   	MOVF	(_dac + 1), W, B
000220   6ee5     movwf   0xe5, 0x0        	MOVWF	POSTDEC1
000222   0100     movlb   0x0              	BANKSEL	_dac
000224   518a     movf    0x8a, 0x0, 0x1   	MOVF	_dac, W, B
000226   6ee5     movwf   0xe5, 0x0        	MOVWF	POSTDEC1
000228   ec2b     call    0x001856, 0x0    	CALL	__divsint
00022a   f00c
00022c   6e00     movwf   0x00, 0x0        	MOVWF	r0x00
00022e   cff3     movff   0xff3, 0x001     	MOVFF	PRODL, r0x01
000230   f001
000232   0e04     movlw   0x04             	MOVLW	0x04
000234   26e1     addwf   0xe1, 0x1, 0x0   	ADDWF	FSR1L, F
000236   0e00     movlw   0x00             	MOVLW	0x00
000238   6ee5     movwf   0xe5, 0x0        	MOVWF	POSTDEC1
00023a   0e0a     movlw   0x0a             	MOVLW	0x0a
00023c   6ee5     movwf   0xe5, 0x0        	MOVWF	POSTDEC1
00023e   5001     movf    0x01, 0x0, 0x0   	MOVF	r0x01, W
000240   6ee5     movwf   0xe5, 0x0        	MOVWF	POSTDEC1
000242   5000     movf    0x00, 0x0, 0x0   	MOVF	r0x00, W
000244   6ee5     movwf   0xe5, 0x0        	MOVWF	POSTDEC1
000246   eca2     call    0x001944, 0x0    	CALL	__modsint
000248   f00c
00024a   6e00     movwf   0x00, 0x0        	MOVWF	r0x00
00024c   cff3     movff   0xff3, 0x001     	MOVFF	PRODL, r0x01
00024e   f001
000250   0e04     movlw   0x04             	MOVLW	0x04
000252   26e1     addwf   0xe1, 0x1, 0x0   	ADDWF	FSR1L, F
000254   0e30     movlw   0x30             	MOVLW	0x30
000256   2600     addwf   0x00, 0x1, 0x0   	ADDWF	r0x00, F
000258   5000     movf    0x00, 0x0, 0x0   	MOVF	r0x00, W
00025a   6ee5     movwf   0xe5, 0x0        	MOVWF	POSTDEC1
00025c   ec68     call    0x000ed0, 0x0    	CALL	_lcdData
00025e   f007
000260   52e6     movf    0xe6, 0x1, 0x0   	MOVF	POSTINC1, F
                                           ;	.line	46; main.c	lcdData((dac / 100) % 10 + 48);
000262   0e00     movlw   0x00             	MOVLW	0x00
000264   6ee5     movwf   0xe5, 0x0        	MOVWF	POSTDEC1
000266   0e64     movlw   0x64             	MOVLW	0x64
000268   6ee5     movwf   0xe5, 0x0        	MOVWF	POSTDEC1
00026a   0100     movlb   0x0              	BANKSEL	(_dac + 1)
00026c   518b     movf    0x8b, 0x0, 0x1   	MOVF	(_dac + 1), W, B
00026e   6ee5     movwf   0xe5, 0x0        	MOVWF	POSTDEC1
000270   0100     movlb   0x0              	BANKSEL	_dac
000272   518a     movf    0x8a, 0x0, 0x1   	MOVF	_dac, W, B
000274   6ee5     movwf   0xe5, 0x0        	MOVWF	POSTDEC1
000276   ec2b     call    0x001856, 0x0    	CALL	__divsint
000278   f00c
00027a   6e00     movwf   0x00, 0x0        	MOVWF	r0x00
00027c   cff3     movff   0xff3, 0x001     	MOVFF	PRODL, r0x01
00027e   f001
000280   0e04     movlw   0x04             	MOVLW	0x04
000282   26e1     addwf   0xe1, 0x1, 0x0   	ADDWF	FSR1L, F
000284   0e00     movlw   0x00             	MOVLW	0x00
000286   6ee5     movwf   0xe5, 0x0        	MOVWF	POSTDEC1
000288   0e0a     movlw   0x0a             	MOVLW	0x0a
00028a   6ee5     movwf   0xe5, 0x0        	MOVWF	POSTDEC1
00028c   5001     movf    0x01, 0x0, 0x0   	MOVF	r0x01, W
00028e   6ee5     movwf   0xe5, 0x0        	MOVWF	POSTDEC1
000290   5000     movf    0x00, 0x0, 0x0   	MOVF	r0x00, W
000292   6ee5     movwf   0xe5, 0x0        	MOVWF	POSTDEC1
000294   eca2     call    0x001944, 0x0    	CALL	__modsint
000296   f00c
000298   6e00     movwf   0x00, 0x0        	MOVWF	r0x00
00029a   cff3     movff   0xff3, 0x001     	MOVFF	PRODL, r0x01
00029c   f001
00029e   0e04     movlw   0x04             	MOVLW	0x04
0002a0   26e1     addwf   0xe1, 0x1, 0x0   	ADDWF	FSR1L, F
0002a2   0e30     movlw   0x30             	MOVLW	0x30
0002a4   2600     addwf   0x00, 0x1, 0x0   	ADDWF	r0x00, F
0002a6   5000     movf    0x00, 0x0, 0x0   	MOVF	r0x00, W
0002a8   6ee5     movwf   0xe5, 0x0        	MOVWF	POSTDEC1
0002aa   ec68     call    0x000ed0, 0x0    	CALL	_lcdData
0002ac   f007
0002ae   52e6     movf    0xe6, 0x1, 0x0   	MOVF	POSTINC1, F
                                           ;	.line	47; main.c	lcdData((dac / 10) % 10 + 48);
0002b0   0e00     movlw   0x00             	MOVLW	0x00
0002b2   6ee5     movwf   0xe5, 0x0        	MOVWF	POSTDEC1
0002b4   0e0a     movlw   0x0a             	MOVLW	0x0a
0002b6   6ee5     movwf   0xe5, 0x0        	MOVWF	POSTDEC1
0002b8   0100     movlb   0x0              	BANKSEL	(_dac + 1)
0002ba   518b     movf    0x8b, 0x0, 0x1   	MOVF	(_dac + 1), W, B
0002bc   6ee5     movwf   0xe5, 0x0        	MOVWF	POSTDEC1
0002be   0100     movlb   0x0              	BANKSEL	_dac
0002c0   518a     movf    0x8a, 0x0, 0x1   	MOVF	_dac, W, B
0002c2   6ee5     movwf   0xe5, 0x0        	MOVWF	POSTDEC1
0002c4   ec2b     call    0x001856, 0x0    	CALL	__divsint
0002c6   f00c
0002c8   6e00     movwf   0x00, 0x0        	MOVWF	r0x00
0002ca   cff3     movff   0xff3, 0x001     	MOVFF	PRODL, r0x01
0002cc   f001
0002ce   0e04     movlw   0x04             	MOVLW	0x04
0002d0   26e1     addwf   0xe1, 0x1, 0x0   	ADDWF	FSR1L, F
0002d2   0e00     movlw   0x00             	MOVLW	0x00
0002d4   6ee5     movwf   0xe5, 0x0        	MOVWF	POSTDEC1
0002d6   0e0a     movlw   0x0a             	MOVLW	0x0a
0002d8   6ee5     movwf   0xe5, 0x0        	MOVWF	POSTDEC1
0002da   5001     movf    0x01, 0x0, 0x0   	MOVF	r0x01, W
0002dc   6ee5     movwf   0xe5, 0x0        	MOVWF	POSTDEC1
0002de   5000     movf    0x00, 0x0, 0x0   	MOVF	r0x00, W
0002e0   6ee5     movwf   0xe5, 0x0        	MOVWF	POSTDEC1
0002e2   eca2     call    0x001944, 0x0    	CALL	__modsint
0002e4   f00c
0002e6   6e00     movwf   0x00, 0x0        	MOVWF	r0x00
0002e8   cff3     movff   0xff3, 0x001     	MOVFF	PRODL, r0x01
0002ea   f001
0002ec   0e04     movlw   0x04             	MOVLW	0x04
0002ee   26e1     addwf   0xe1, 0x1, 0x0   	ADDWF	FSR1L, F
0002f0   0e30     movlw   0x30             	MOVLW	0x30
0002f2   2600     addwf   0x00, 0x1, 0x0   	ADDWF	r0x00, F
0002f4   5000     movf    0x00, 0x0, 0x0   	MOVF	r0x00, W
0002f6   6ee5     movwf   0xe5, 0x0        	MOVWF	POSTDEC1
0002f8   ec68     call    0x000ed0, 0x0    	CALL	_lcdData
0002fa   f007
0002fc   52e6     movf    0xe6, 0x1, 0x0   	MOVF	POSTINC1, F
                                           ;	.line	48; main.c	lcdData((dac / 1) % 10 + 48);
0002fe   c08a     movff   0x08a, 0x000     	MOVFF	_dac, r0x00
000300   f000
000302   c08b     movff   0x08b, 0x001     	MOVFF	(_dac + 1), r0x01
000304   f001
000306   0e00     movlw   0x00             	MOVLW	0x00
000308   6ee5     movwf   0xe5, 0x0        	MOVWF	POSTDEC1
00030a   0e0a     movlw   0x0a             	MOVLW	0x0a
00030c   6ee5     movwf   0xe5, 0x0        	MOVWF	POSTDEC1
00030e   5001     movf    0x01, 0x0, 0x0   	MOVF	r0x01, W
000310   6ee5     movwf   0xe5, 0x0        	MOVWF	POSTDEC1
000312   5000     movf    0x00, 0x0, 0x0   	MOVF	r0x00, W
000314   6ee5     movwf   0xe5, 0x0        	MOVWF	POSTDEC1
000316   eca2     call    0x001944, 0x0    	CALL	__modsint
000318   f00c
00031a   6e00     movwf   0x00, 0x0        	MOVWF	r0x00
00031c   cff3     movff   0xff3, 0x001     	MOVFF	PRODL, r0x01
00031e   f001
000320   0e04     movlw   0x04             	MOVLW	0x04
000322   26e1     addwf   0xe1, 0x1, 0x0   	ADDWF	FSR1L, F
000324   0e30     movlw   0x30             	MOVLW	0x30
000326   2600     addwf   0x00, 0x1, 0x0   	ADDWF	r0x00, F
000328   5000     movf    0x00, 0x0, 0x0   	MOVF	r0x00, W
00032a   6ee5     movwf   0xe5, 0x0        	MOVWF	POSTDEC1
00032c   ec68     call    0x000ed0, 0x0    	CALL	_lcdData
00032e   f007
000330   52e6     movf    0xe6, 0x1, 0x0   	MOVF	POSTINC1, F
                                           ;	.line	49; main.c	lcdLine(2);       
000332   0e00     movlw   0x00             	MOVLW	0x00
000334   6ee5     movwf   0xe5, 0x0        	MOVWF	POSTDEC1
000336   0e02     movlw   0x02             	MOVLW	0x02
000338   6ee5     movwf   0xe5, 0x0        	MOVWF	POSTDEC1
00033a   ecc2     call    0x002384, 0x0    	CALL	_lcdLine
00033c   f011
00033e   52e6     movf    0xe6, 0x1, 0x0   	MOVF	POSTINC1, F
000340   52e6     movf    0xe6, 0x1, 0x0   	MOVF	POSTINC1, F
                                           ;	.line	50; main.c	lcdString("A:");
000342   0e00     movlw   0x00             	MOVLW	UPPER(___str_2)
000344   6e02     movwf   0x02, 0x0        	MOVWF	r0x02
000346   0e05     movlw   0x05             	MOVLW	HIGH(___str_2)
000348   6e01     movwf   0x01, 0x0        	MOVWF	r0x01
00034a   0ece     movlw   0xce             	MOVLW	LOW(___str_2)
00034c   6e00     movwf   0x00, 0x0        	MOVWF	r0x00
00034e   5002     movf    0x02, 0x0, 0x0   	MOVF	r0x02, W
000350   6ee5     movwf   0xe5, 0x0        	MOVWF	POSTDEC1
000352   5001     movf    0x01, 0x0, 0x0   	MOVF	r0x01, W
000354   6ee5     movwf   0xe5, 0x0        	MOVWF	POSTDEC1
000356   5000     movf    0x00, 0x0, 0x0   	MOVF	r0x00, W
000358   6ee5     movwf   0xe5, 0x0        	MOVWF	POSTDEC1
00035a   ecb7     call    0x001f6e, 0x0    	CALL	_lcdString
00035c   f00f
00035e   0e03     movlw   0x03             	MOVLW	0x03
000360   26e1     addwf   0xe1, 0x1, 0x0   	ADDWF	FSR1L, F
                                           ;	.line	51; main.c	lcdData((IDA / 1000) % 10 + 48);
000362   0e03     movlw   0x03             	MOVLW	0x03
000364   6ee5     movwf   0xe5, 0x0        	MOVWF	POSTDEC1
000366   0ee8     movlw   0xe8             	MOVLW	0xe8
000368   6ee5     movwf   0xe5, 0x0        	MOVWF	POSTDEC1
00036a   0100     movlb   0x0              	BANKSEL	(_IDA + 1)
00036c   5187     movf    0x87, 0x0, 0x1   	MOVF	(_IDA + 1), W, B
00036e   6ee5     movwf   0xe5, 0x0        	MOVWF	POSTDEC1
000370   0100     movlb   0x0              	BANKSEL	_IDA
000372   5186     movf    0x86, 0x0, 0x1   	MOVF	_IDA, W, B
000374   6ee5     movwf   0xe5, 0x0        	MOVWF	POSTDEC1
000376   ec2b     call    0x001856, 0x0    	CALL	__divsint
000378   f00c
00037a   6e00     movwf   0x00, 0x0        	MOVWF	r0x00
00037c   cff3     movff   0xff3, 0x001     	MOVFF	PRODL, r0x01
00037e   f001
000380   0e04     movlw   0x04             	MOVLW	0x04
000382   26e1     addwf   0xe1, 0x1, 0x0   	ADDWF	FSR1L, F
000384   0e00     movlw   0x00             	MOVLW	0x00
000386   6ee5     movwf   0xe5, 0x0        	MOVWF	POSTDEC1
000388   0e0a     movlw   0x0a             	MOVLW	0x0a
00038a   6ee5     movwf   0xe5, 0x0        	MOVWF	POSTDEC1
00038c   5001     movf    0x01, 0x0, 0x0   	MOVF	r0x01, W
00038e   6ee5     movwf   0xe5, 0x0        	MOVWF	POSTDEC1
000390   5000     movf    0x00, 0x0, 0x0   	MOVF	r0x00, W
000392   6ee5     movwf   0xe5, 0x0        	MOVWF	POSTDEC1
000394   eca2     call    0x001944, 0x0    	CALL	__modsint
000396   f00c
000398   6e00     movwf   0x00, 0x0        	MOVWF	r0x00
00039a   cff3     movff   0xff3, 0x001     	MOVFF	PRODL, r0x01
00039c   f001
00039e   0e04     movlw   0x04             	MOVLW	0x04
0003a0   26e1     addwf   0xe1, 0x1, 0x0   	ADDWF	FSR1L, F
0003a2   0e30     movlw   0x30             	MOVLW	0x30
0003a4   2600     addwf   0x00, 0x1, 0x0   	ADDWF	r0x00, F
0003a6   5000     movf    0x00, 0x0, 0x0   	MOVF	r0x00, W
0003a8   6ee5     movwf   0xe5, 0x0        	MOVWF	POSTDEC1
0003aa   ec68     call    0x000ed0, 0x0    	CALL	_lcdData
0003ac   f007
0003ae   52e6     movf    0xe6, 0x1, 0x0   	MOVF	POSTINC1, F
                                           ;	.line	52; main.c	lcdData((IDA / 100) % 10 + 48);
0003b0   0e00     movlw   0x00             	MOVLW	0x00
0003b2   6ee5     movwf   0xe5, 0x0        	MOVWF	POSTDEC1
0003b4   0e64     movlw   0x64             	MOVLW	0x64
0003b6   6ee5     movwf   0xe5, 0x0        	MOVWF	POSTDEC1
0003b8   0100     movlb   0x0              	BANKSEL	(_IDA + 1)
0003ba   5187     movf    0x87, 0x0, 0x1   	MOVF	(_IDA + 1), W, B
0003bc   6ee5     movwf   0xe5, 0x0        	MOVWF	POSTDEC1
0003be   0100     movlb   0x0              	BANKSEL	_IDA
0003c0   5186     movf    0x86, 0x0, 0x1   	MOVF	_IDA, W, B
0003c2   6ee5     movwf   0xe5, 0x0        	MOVWF	POSTDEC1
0003c4   ec2b     call    0x001856, 0x0    	CALL	__divsint
0003c6   f00c
0003c8   6e00     movwf   0x00, 0x0        	MOVWF	r0x00
0003ca   cff3     movff   0xff3, 0x001     	MOVFF	PRODL, r0x01
0003cc   f001
0003ce   0e04     movlw   0x04             	MOVLW	0x04
0003d0   26e1     addwf   0xe1, 0x1, 0x0   	ADDWF	FSR1L, F
0003d2   0e00     movlw   0x00             	MOVLW	0x00
0003d4   6ee5     movwf   0xe5, 0x0        	MOVWF	POSTDEC1
0003d6   0e0a     movlw   0x0a             	MOVLW	0x0a
0003d8   6ee5     movwf   0xe5, 0x0        	MOVWF	POSTDEC1
0003da   5001     movf    0x01, 0x0, 0x0   	MOVF	r0x01, W
0003dc   6ee5     movwf   0xe5, 0x0        	MOVWF	POSTDEC1
0003de   5000     movf    0x00, 0x0, 0x0   	MOVF	r0x00, W
0003e0   6ee5     movwf   0xe5, 0x0        	MOVWF	POSTDEC1
0003e2   eca2     call    0x001944, 0x0    	CALL	__modsint
0003e4   f00c
0003e6   6e00     movwf   0x00, 0x0        	MOVWF	r0x00
0003e8   cff3     movff   0xff3, 0x001     	MOVFF	PRODL, r0x01
0003ea   f001
0003ec   0e04     movlw   0x04             	MOVLW	0x04
0003ee   26e1     addwf   0xe1, 0x1, 0x0   	ADDWF	FSR1L, F
0003f0   0e30     movlw   0x30             	MOVLW	0x30
0003f2   2600     addwf   0x00, 0x1, 0x0   	ADDWF	r0x00, F
0003f4   5000     movf    0x00, 0x0, 0x0   	MOVF	r0x00, W
0003f6   6ee5     movwf   0xe5, 0x0        	MOVWF	POSTDEC1
0003f8   ec68     call    0x000ed0, 0x0    	CALL	_lcdData
0003fa   f007
0003fc   52e6     movf    0xe6, 0x1, 0x0   	MOVF	POSTINC1, F
                                           ;	.line	53; main.c	lcdData((IDA / 10) % 10 + 48);
0003fe   0e00     movlw   0x00             	MOVLW	0x00
000400   6ee5     movwf   0xe5, 0x0        	MOVWF	POSTDEC1
000402   0e0a     movlw   0x0a             	MOVLW	0x0a
000404   6ee5     movwf   0xe5, 0x0        	MOVWF	POSTDEC1
000406   0100     movlb   0x0              	BANKSEL	(_IDA + 1)
000408   5187     movf    0x87, 0x0, 0x1   	MOVF	(_IDA + 1), W, B
00040a   6ee5     movwf   0xe5, 0x0        	MOVWF	POSTDEC1
00040c   0100     movlb   0x0              	BANKSEL	_IDA
00040e   5186     movf    0x86, 0x0, 0x1   	MOVF	_IDA, W, B
000410   6ee5     movwf   0xe5, 0x0        	MOVWF	POSTDEC1
000412   ec2b     call    0x001856, 0x0    	CALL	__divsint
000414   f00c
000416   6e00     movwf   0x00, 0x0        	MOVWF	r0x00
000418   cff3     movff   0xff3, 0x001     	MOVFF	PRODL, r0x01
00041a   f001
00041c   0e04     movlw   0x04             	MOVLW	0x04
00041e   26e1     addwf   0xe1, 0x1, 0x0   	ADDWF	FSR1L, F
000420   0e00     movlw   0x00             	MOVLW	0x00
000422   6ee5     movwf   0xe5, 0x0        	MOVWF	POSTDEC1
000424   0e0a     movlw   0x0a             	MOVLW	0x0a
000426   6ee5     movwf   0xe5, 0x0        	MOVWF	POSTDEC1
000428   5001     movf    0x01, 0x0, 0x0   	MOVF	r0x01, W
00042a   6ee5     movwf   0xe5, 0x0        	MOVWF	POSTDEC1
00042c   5000     movf    0x00, 0x0, 0x0   	MOVF	r0x00, W
00042e   6ee5     movwf   0xe5, 0x0        	MOVWF	POSTDEC1
000430   eca2     call    0x001944, 0x0    	CALL	__modsint
000432   f00c
000434   6e00     movwf   0x00, 0x0        	MOVWF	r0x00
000436   cff3     movff   0xff3, 0x001     	MOVFF	PRODL, r0x01
000438   f001
00043a   0e04     movlw   0x04             	MOVLW	0x04
00043c   26e1     addwf   0xe1, 0x1, 0x0   	ADDWF	FSR1L, F
00043e   0e30     movlw   0x30             	MOVLW	0x30
000440   2600     addwf   0x00, 0x1, 0x0   	ADDWF	r0x00, F
000442   5000     movf    0x00, 0x0, 0x0   	MOVF	r0x00, W
000444   6ee5     movwf   0xe5, 0x0        	MOVWF	POSTDEC1
000446   ec68     call    0x000ed0, 0x0    	CALL	_lcdData
000448   f007
00044a   52e6     movf    0xe6, 0x1, 0x0   	MOVF	POSTINC1, F
                                           ;	.line	54; main.c	lcdData((IDA / 1) % 10 + 48);
00044c   c086     movff   0x086, 0x000     	MOVFF	_IDA, r0x00
00044e   f000
000450   c087     movff   0x087, 0x001     	MOVFF	(_IDA + 1), r0x01
000452   f001
000454   0e00     movlw   0x00             	MOVLW	0x00
000456   6ee5     movwf   0xe5, 0x0        	MOVWF	POSTDEC1
000458   0e0a     movlw   0x0a             	MOVLW	0x0a
00045a   6ee5     movwf   0xe5, 0x0        	MOVWF	POSTDEC1
00045c   5001     movf    0x01, 0x0, 0x0   	MOVF	r0x01, W
00045e   6ee5     movwf   0xe5, 0x0        	MOVWF	POSTDEC1
000460   5000     movf    0x00, 0x0, 0x0   	MOVF	r0x00, W
000462   6ee5     movwf   0xe5, 0x0        	MOVWF	POSTDEC1
000464   eca2     call    0x001944, 0x0    	CALL	__modsint
000466   f00c
000468   6e00     movwf   0x00, 0x0        	MOVWF	r0x00
00046a   cff3     movff   0xff3, 0x001     	MOVFF	PRODL, r0x01
00046c   f001
00046e   0e04     movlw   0x04             	MOVLW	0x04
000470   26e1     addwf   0xe1, 0x1, 0x0   	ADDWF	FSR1L, F
000472   0e30     movlw   0x30             	MOVLW	0x30
000474   2600     addwf   0x00, 0x1, 0x0   	ADDWF	r0x00, F
000476   5000     movf    0x00, 0x0, 0x0   	MOVF	r0x00, W
000478   6ee5     movwf   0xe5, 0x0        	MOVWF	POSTDEC1
00047a   ec68     call    0x000ed0, 0x0    	CALL	_lcdData
00047c   f007
00047e   52e6     movf    0xe6, 0x1, 0x0   	MOVF	POSTINC1, F
                                           ;	.line	55; main.c	lcdString(" B:");
000480   0e00     movlw   0x00             	MOVLW	UPPER(___str_3)
000482   6e02     movwf   0x02, 0x0        	MOVWF	r0x02
000484   0e05     movlw   0x05             	MOVLW	HIGH(___str_3)
000486   6e01     movwf   0x01, 0x0        	MOVWF	r0x01
000488   0ed2     movlw   0xd2             	MOVLW	LOW(___str_3)
00048a   6e00     movwf   0x00, 0x0        	MOVWF	r0x00
00048c   5002     movf    0x02, 0x0, 0x0   	MOVF	r0x02, W
00048e   6ee5     movwf   0xe5, 0x0        	MOVWF	POSTDEC1
000490   5001     movf    0x01, 0x0, 0x0   	MOVF	r0x01, W
000492   6ee5     movwf   0xe5, 0x0        	MOVWF	POSTDEC1
000494   5000     movf    0x00, 0x0, 0x0   	MOVF	r0x00, W
000496   6ee5     movwf   0xe5, 0x0        	MOVWF	POSTDEC1
000498   ecb7     call    0x001f6e, 0x0    	CALL	_lcdString
00049a   f00f
00049c   0e03     movlw   0x03             	MOVLW	0x03
00049e   26e1     addwf   0xe1, 0x1, 0x0   	ADDWF	FSR1L, F
                                           ;	.line	56; main.c	lcdData((IDB / 1000) % 10 + 48);
0004a0   0e03     movlw   0x03             	MOVLW	0x03
0004a2   6ee5     movwf   0xe5, 0x0        	MOVWF	POSTDEC1
0004a4   0ee8     movlw   0xe8             	MOVLW	0xe8
0004a6   6ee5     movwf   0xe5, 0x0        	MOVWF	POSTDEC1
0004a8   0100     movlb   0x0              	BANKSEL	(_IDB + 1)
0004aa   5189     movf    0x89, 0x0, 0x1   	MOVF	(_IDB + 1), W, B
0004ac   6ee5     movwf   0xe5, 0x0        	MOVWF	POSTDEC1
0004ae   0100     movlb   0x0              	BANKSEL	_IDB
0004b0   5188     movf    0x88, 0x0, 0x1   	MOVF	_IDB, W, B
0004b2   6ee5     movwf   0xe5, 0x0        	MOVWF	POSTDEC1
0004b4   ec2b     call    0x001856, 0x0    	CALL	__divsint
0004b6   f00c
0004b8   6e00     movwf   0x00, 0x0        	MOVWF	r0x00
0004ba   cff3     movff   0xff3, 0x001     	MOVFF	PRODL, r0x01
0004bc   f001
0004be   0e04     movlw   0x04             	MOVLW	0x04
0004c0   26e1     addwf   0xe1, 0x1, 0x0   	ADDWF	FSR1L, F
0004c2   0e00     movlw   0x00             	MOVLW	0x00
0004c4   6ee5     movwf   0xe5, 0x0        	MOVWF	POSTDEC1
0004c6   0e0a     movlw   0x0a             	MOVLW	0x0a
0004c8   6ee5     movwf   0xe5, 0x0        	MOVWF	POSTDEC1
0004ca   5001     movf    0x01, 0x0, 0x0   	MOVF	r0x01, W
0004cc   6ee5     movwf   0xe5, 0x0        	MOVWF	POSTDEC1
0004ce   5000     movf    0x00, 0x0, 0x0   	MOVF	r0x00, W
0004d0   6ee5     movwf   0xe5, 0x0        	MOVWF	POSTDEC1
0004d2   eca2     call    0x001944, 0x0    	CALL	__modsint
0004d4   f00c
0004d6   6e00     movwf   0x00, 0x0        	MOVWF	r0x00
0004d8   cff3     movff   0xff3, 0x001     	MOVFF	PRODL, r0x01
0004da   f001
0004dc   0e04     movlw   0x04             	MOVLW	0x04
0004de   26e1     addwf   0xe1, 0x1, 0x0   	ADDWF	FSR1L, F
0004e0   0e30     movlw   0x30             	MOVLW	0x30
0004e2   2600     addwf   0x00, 0x1, 0x0   	ADDWF	r0x00, F
0004e4   5000     movf    0x00, 0x0, 0x0   	MOVF	r0x00, W
0004e6   6ee5     movwf   0xe5, 0x0        	MOVWF	POSTDEC1
0004e8   ec68     call    0x000ed0, 0x0    	CALL	_lcdData
0004ea   f007
0004ec   52e6     movf    0xe6, 0x1, 0x0   	MOVF	POSTINC1, F
                                           ;	.line	57; main.c	lcdData((IDB / 100) % 10 + 48);
0004ee   0e00     movlw   0x00             	MOVLW	0x00
0004f0   6ee5     movwf   0xe5, 0x0        	MOVWF	POSTDEC1
0004f2   0e64     movlw   0x64             	MOVLW	0x64
0004f4   6ee5     movwf   0xe5, 0x0        	MOVWF	POSTDEC1
0004f6   0100     movlb   0x0              	BANKSEL	(_IDB + 1)
0004f8   5189     movf    0x89, 0x0, 0x1   	MOVF	(_IDB + 1), W, B
0004fa   6ee5     movwf   0xe5, 0x0        	MOVWF	POSTDEC1
0004fc   0100     movlb   0x0              	BANKSEL	_IDB
0004fe   5188     movf    0x88, 0x0, 0x1   	MOVF	_IDB, W, B
000500   6ee5     movwf   0xe5, 0x0        	MOVWF	POSTDEC1
000502   ec2b     call    0x001856, 0x0    	CALL	__divsint
000504   f00c
000506   6e00     movwf   0x00, 0x0        	MOVWF	r0x00
000508   cff3     movff   0xff3, 0x001     	MOVFF	PRODL, r0x01
00050a   f001
00050c   0e04     movlw   0x04             	MOVLW	0x04
00050e   26e1     addwf   0xe1, 0x1, 0x0   	ADDWF	FSR1L, F
000510   0e00     movlw   0x00             	MOVLW	0x00
000512   6ee5     movwf   0xe5, 0x0        	MOVWF	POSTDEC1
000514   0e0a     movlw   0x0a             	MOVLW	0x0a
000516   6ee5     movwf   0xe5, 0x0        	MOVWF	POSTDEC1
000518   5001     movf    0x01, 0x0, 0x0   	MOVF	r0x01, W
00051a   6ee5     movwf   0xe5, 0x0        	MOVWF	POSTDEC1
00051c   5000     movf    0x00, 0x0, 0x0   	MOVF	r0x00, W
00051e   6ee5     movwf   0xe5, 0x0        	MOVWF	POSTDEC1
000520   eca2     call    0x001944, 0x0    	CALL	__modsint
000522   f00c
000524   6e00     movwf   0x00, 0x0        	MOVWF	r0x00
000526   cff3     movff   0xff3, 0x001     	MOVFF	PRODL, r0x01
000528   f001
00052a   0e04     movlw   0x04             	MOVLW	0x04
00052c   26e1     addwf   0xe1, 0x1, 0x0   	ADDWF	FSR1L, F
00052e   0e30     movlw   0x30             	MOVLW	0x30
000530   2600     addwf   0x00, 0x1, 0x0   	ADDWF	r0x00, F
000532   5000     movf    0x00, 0x0, 0x0   	MOVF	r0x00, W
000534   6ee5     movwf   0xe5, 0x0        	MOVWF	POSTDEC1
000536   ec68     call    0x000ed0, 0x0    	CALL	_lcdData
000538   f007
00053a   52e6     movf    0xe6, 0x1, 0x0   	MOVF	POSTINC1, F
                                           ;	.line	58; main.c	lcdData((IDB / 10) % 10 + 48);
00053c   0e00     movlw   0x00             	MOVLW	0x00
00053e   6ee5     movwf   0xe5, 0x0        	MOVWF	POSTDEC1
000540   0e0a     movlw   0x0a             	MOVLW	0x0a
000542   6ee5     movwf   0xe5, 0x0        	MOVWF	POSTDEC1
000544   0100     movlb   0x0              	BANKSEL	(_IDB + 1)
000546   5189     movf    0x89, 0x0, 0x1   	MOVF	(_IDB + 1), W, B
000548   6ee5     movwf   0xe5, 0x0        	MOVWF	POSTDEC1
00054a   0100     movlb   0x0              	BANKSEL	_IDB
00054c   5188     movf    0x88, 0x0, 0x1   	MOVF	_IDB, W, B
00054e   6ee5     movwf   0xe5, 0x0        	MOVWF	POSTDEC1
000550   ec2b     call    0x001856, 0x0    	CALL	__divsint
000552   f00c
000554   6e00     movwf   0x00, 0x0        	MOVWF	r0x00
000556   cff3     movff   0xff3, 0x001     	MOVFF	PRODL, r0x01
000558   f001
00055a   0e04     movlw   0x04             	MOVLW	0x04
00055c   26e1     addwf   0xe1, 0x1, 0x0   	ADDWF	FSR1L, F
00055e   0e00     movlw   0x00             	MOVLW	0x00
000560   6ee5     movwf   0xe5, 0x0        	MOVWF	POSTDEC1
000562   0e0a     movlw   0x0a             	MOVLW	0x0a
000564   6ee5     movwf   0xe5, 0x0        	MOVWF	POSTDEC1
000566   5001     movf    0x01, 0x0, 0x0   	MOVF	r0x01, W
000568   6ee5     movwf   0xe5, 0x0        	MOVWF	POSTDEC1
00056a   5000     movf    0x00, 0x0, 0x0   	MOVF	r0x00, W
00056c   6ee5     movwf   0xe5, 0x0        	MOVWF	POSTDEC1
00056e   eca2     call    0x001944, 0x0    	CALL	__modsint
000570   f00c
000572   6e00     movwf   0x00, 0x0        	MOVWF	r0x00
000574   cff3     movff   0xff3, 0x001     	MOVFF	PRODL, r0x01
000576   f001
000578   0e04     movlw   0x04             	MOVLW	0x04
00057a   26e1     addwf   0xe1, 0x1, 0x0   	ADDWF	FSR1L, F
00057c   0e30     movlw   0x30             	MOVLW	0x30
00057e   2600     addwf   0x00, 0x1, 0x0   	ADDWF	r0x00, F
000580   5000     movf    0x00, 0x0, 0x0   	MOVF	r0x00, W
000582   6ee5     movwf   0xe5, 0x0        	MOVWF	POSTDEC1
000584   ec68     call    0x000ed0, 0x0    	CALL	_lcdData
000586   f007
000588   52e6     movf    0xe6, 0x1, 0x0   	MOVF	POSTINC1, F
                                           ;	.line	59; main.c	lcdData((IDB / 1) % 10 + 48);   
00058a   c088     movff   0x088, 0x000     	MOVFF	_IDB, r0x00
00058c   f000
00058e   c089     movff   0x089, 0x001     	MOVFF	(_IDB + 1), r0x01
000590   f001
000592   0e00     movlw   0x00             	MOVLW	0x00
000594   6ee5     movwf   0xe5, 0x0        	MOVWF	POSTDEC1
000596   0e0a     movlw   0x0a             	MOVLW	0x0a
000598   6ee5     movwf   0xe5, 0x0        	MOVWF	POSTDEC1
00059a   5001     movf    0x01, 0x0, 0x0   	MOVF	r0x01, W
00059c   6ee5     movwf   0xe5, 0x0        	MOVWF	POSTDEC1
00059e   5000     movf    0x00, 0x0, 0x0   	MOVF	r0x00, W
0005a0   6ee5     movwf   0xe5, 0x0        	MOVWF	POSTDEC1
0005a2   eca2     call    0x001944, 0x0    	CALL	__modsint
0005a4   f00c
0005a6   6e00     movwf   0x00, 0x0        	MOVWF	r0x00
0005a8   cff3     movff   0xff3, 0x001     	MOVFF	PRODL, r0x01
0005aa   f001
0005ac   0e04     movlw   0x04             	MOVLW	0x04
0005ae   26e1     addwf   0xe1, 0x1, 0x0   	ADDWF	FSR1L, F
0005b0   0e30     movlw   0x30             	MOVLW	0x30
0005b2   2600     addwf   0x00, 0x1, 0x0   	ADDWF	r0x00, F
0005b4   5000     movf    0x00, 0x0, 0x0   	MOVF	r0x00, W
0005b6   6ee5     movwf   0xe5, 0x0        	MOVWF	POSTDEC1
0005b8   ec68     call    0x000ed0, 0x0    	CALL	_lcdData
0005ba   f007
0005bc   52e6     movf    0xe6, 0x1, 0x0   	MOVF	POSTINC1, F
0005be   ef14     goto    0x000028         	GOTO	_00106_DS_
0005c0   f000
0005c2   0012     return  0x0              	RETURN	

                                           ; ; Starting pCode block
                                           ___str_0:
0005c4   3a50     swapf   0x50, 0x1, 0x0   	DB	0x50, 0x3a, 0x00
0005c6   0000     nop                      
                                           ; ; Starting pCode block
                                           ___str_1:
0005c8   4420     rlncf   0x20, 0x0, 0x0   	DB	0x20, 0x44, 0x41, 0x43, 0x3a, 0x00
0005ca   4341     rrncf   0x41, 0x1, 0x1   
0005cc   003a     dw      0x003a           
                                           ; ; Starting pCode block
                                           ___str_2:
0005ce   3a41     swapf   0x41, 0x1, 0x0   	DB	0x41, 0x3a, 0x00
0005d0   0000     nop                      
                                           ; ; Starting pCode block
                                           ___str_3:
0005d2   4220     rrncf   0x20, 0x1, 0x0   	DB	0x20, 0x42, 0x3a, 0x00
0005d4   003a     dw      0x003a           


                                           ; Statistics:
                                           ; code size:	 1480 (0x05c8) bytes ( 1.13%)
                                           ;           	  740 (0x02e4) words
                                           ; udata size:	    8 (0x0008) bytes ( 0.45%)
                                           ; access size:	    3 (0x0003) bytes


                                           	end
                                           ;--------------------------------------------------------
                                           ; File Created by SDCC : free open source ANSI-C Compiler
                                           ; Version 3.6.0 #9615 (MINGW64)
                                           ;--------------------------------------------------------
                                           ; PIC16 port for the Microchip 16-bit core micros
                                           ;--------------------------------------------------------
                                           	list	p=18f4550
                                           	radix	dec


                                           ;--------------------------------------------------------
                                           ; public variables in this module
                                           ;--------------------------------------------------------
                                           	global	_I2C_Init
                                           	global	_I2C_Start
                                           	global	_I2C_Restart
                                           	global	_I2C_Stop
                                           	global	_I2C_Wait
                                           	global	_I2C_Send
                                           	global	_I2C_Read

                                           ;--------------------------------------------------------
                                           ; extern variables in this module
                                           ;--------------------------------------------------------
                                           	extern	_SPPCFGbits
                                           	extern	_SPPEPSbits
                                           	extern	_SPPCONbits
                                           	extern	_UFRMLbits
                                           	extern	_UFRMHbits
                                           	extern	_UIRbits
                                           	extern	_UIEbits
                                           	extern	_UEIRbits
                                           	extern	_UEIEbits
                                           	extern	_USTATbits
                                           	extern	_UCONbits
                                           	extern	_UADDRbits
                                           	extern	_UCFGbits
                                           	extern	_UEP0bits
                                           	extern	_UEP1bits
                                           	extern	_UEP2bits
                                           	extern	_UEP3bits
                                           	extern	_UEP4bits
                                           	extern	_UEP5bits
                                           	extern	_UEP6bits
                                           	extern	_UEP7bits
                                           	extern	_UEP8bits
                                           	extern	_UEP9bits
                                           	extern	_UEP10bits
                                           	extern	_UEP11bits
                                           	extern	_UEP12bits
                                           	extern	_UEP13bits
                                           	extern	_UEP14bits
                                           	extern	_UEP15bits
                                           	extern	_PORTAbits
                                           	extern	_PORTBbits
                                           	extern	_PORTCbits
                                           	extern	_PORTDbits
                                           	extern	_PORTEbits
                                           	extern	_LATAbits
                                           	extern	_LATBbits
                                           	extern	_LATCbits
                                           	extern	_LATDbits
                                           	extern	_LATEbits
                                           	extern	_DDRAbits
                                           	extern	_TRISAbits
                                           	extern	_DDRBbits
                                           	extern	_TRISBbits
                                           	extern	_DDRCbits
                                           	extern	_TRISCbits
                                           	extern	_DDRDbits
                                           	extern	_TRISDbits
                                           	extern	_DDREbits
                                           	extern	_TRISEbits
                                           	extern	_OSCTUNEbits
                                           	extern	_PIE1bits
                                           	extern	_PIR1bits
                                           	extern	_IPR1bits
                                           	extern	_PIE2bits
                                           	extern	_PIR2bits
                                           	extern	_IPR2bits
                                           	extern	_EECON1bits
                                           	extern	_RCSTAbits
                                           	extern	_TXSTAbits
                                           	extern	_T3CONbits
                                           	extern	_CMCONbits
                                           	extern	_CVRCONbits
                                           	extern	_CCP1ASbits
                                           	extern	_ECCP1ASbits
                                           	extern	_CCP1DELbits
                                           	extern	_ECCP1DELbits
                                           	extern	_BAUDCONbits
                                           	extern	_BAUDCTLbits
                                           	extern	_CCP2CONbits
                                           	extern	_CCP1CONbits
                                           	extern	_ECCP1CONbits
                                           	extern	_ADCON2bits
                                           	extern	_ADCON1bits
                                           	extern	_ADCON0bits
                                           	extern	_SSPCON2bits
                                           	extern	_SSPCON1bits
                                           	extern	_SSPSTATbits
                                           	extern	_T2CONbits
                                           	extern	_T1CONbits
                                           	extern	_RCONbits
                                           	extern	_WDTCONbits
                                           	extern	_HLVDCONbits
                                           	extern	_LVDCONbits
                                           	extern	_OSCCONbits
                                           	extern	_T0CONbits
                                           	extern	_STATUSbits
                                           	extern	_INTCON3bits
                                           	extern	_INTCON2bits
                                           	extern	_INTCONbits
                                           	extern	_STKPTRbits
                                           	extern	_SPPDATA
                                           	extern	_SPPCFG
                                           	extern	_SPPEPS
                                           	extern	_SPPCON
                                           	extern	_UFRM
                                           	extern	_UFRML
                                           	extern	_UFRMH
                                           	extern	_UIR
                                           	extern	_UIE
                                           	extern	_UEIR
                                           	extern	_UEIE
                                           	extern	_USTAT
                                           	extern	_UCON
                                           	extern	_UADDR
                                           	extern	_UCFG
                                           	extern	_UEP0
                                           	extern	_UEP1
                                           	extern	_UEP2
                                           	extern	_UEP3
                                           	extern	_UEP4
                                           	extern	_UEP5
                                           	extern	_UEP6
                                           	extern	_UEP7
                                           	extern	_UEP8
                                           	extern	_UEP9
                                           	extern	_UEP10
                                           	extern	_UEP11
                                           	extern	_UEP12
                                           	extern	_UEP13
                                           	extern	_UEP14
                                           	extern	_UEP15
                                           	extern	_PORTA
                                           	extern	_PORTB
                                           	extern	_PORTC
                                           	extern	_PORTD
                                           	extern	_PORTE
                                           	extern	_LATA
                                           	extern	_LATB
                                           	extern	_LATC
                                           	extern	_LATD
                                           	extern	_LATE
                                           	extern	_DDRA
                                           	extern	_TRISA
                                           	extern	_DDRB
                                           	extern	_TRISB
                                           	extern	_DDRC
                                           	extern	_TRISC
                                           	extern	_DDRD
                                           	extern	_TRISD
                                           	extern	_DDRE
                                           	extern	_TRISE
                                           	extern	_OSCTUNE
                                           	extern	_PIE1
                                           	extern	_PIR1
                                           	extern	_IPR1
                                           	extern	_PIE2
                                           	extern	_PIR2
                                           	extern	_IPR2
                                           	extern	_EECON1
                                           	extern	_EECON2
                                           	extern	_EEDATA
                                           	extern	_EEADR
                                           	extern	_RCSTA
                                           	extern	_TXSTA
                                           	extern	_TXREG
                                           	extern	_RCREG
                                           	extern	_SPBRG
                                           	extern	_SPBRGH
                                           	extern	_T3CON
                                           	extern	_TMR3
                                           	extern	_TMR3L
                                           	extern	_TMR3H
                                           	extern	_CMCON
                                           	extern	_CVRCON
                                           	extern	_CCP1AS
                                           	extern	_ECCP1AS
                                           	extern	_CCP1DEL
                                           	extern	_ECCP1DEL
                                           	extern	_BAUDCON
                                           	extern	_BAUDCTL
                                           	extern	_CCP2CON
                                           	extern	_CCPR2
                                           	extern	_CCPR2L
                                           	extern	_CCPR2H
                                           	extern	_CCP1CON
                                           	extern	_ECCP1CON
                                           	extern	_CCPR1
                                           	extern	_CCPR1L
                                           	extern	_CCPR1H
                                           	extern	_ADCON2
                                           	extern	_ADCON1
                                           	extern	_ADCON0
                                           	extern	_ADRES
                                           	extern	_ADRESL
                                           	extern	_ADRESH
                                           	extern	_SSPCON2
                                           	extern	_SSPCON1
                                           	extern	_SSPSTAT
                                           	extern	_SSPADD
                                           	extern	_SSPBUF
                                           	extern	_T2CON
                                           	extern	_PR2
                                           	extern	_TMR2
                                           	extern	_T1CON
                                           	extern	_TMR1
                                           	extern	_TMR1L
                                           	extern	_TMR1H
                                           	extern	_RCON
                                           	extern	_WDTCON
                                           	extern	_HLVDCON
                                           	extern	_LVDCON
                                           	extern	_OSCCON
                                           	extern	_T0CON
                                           	extern	_TMR0
                                           	extern	_TMR0L
                                           	extern	_TMR0H
                                           	extern	_STATUS
                                           	extern	_FSR2L
                                           	extern	_FSR2H
                                           	extern	_PLUSW2
                                           	extern	_PREINC2
                                           	extern	_POSTDEC2
                                           	extern	_POSTINC2
                                           	extern	_INDF2
                                           	extern	_BSR
                                           	extern	_FSR1L
                                           	extern	_FSR1H
                                           	extern	_PLUSW1
                                           	extern	_PREINC1
                                           	extern	_POSTDEC1
                                           	extern	_POSTINC1
                                           	extern	_INDF1
                                           	extern	_WREG
                                           	extern	_FSR0L
                                           	extern	_FSR0H
                                           	extern	_PLUSW0
                                           	extern	_PREINC0
                                           	extern	_POSTDEC0
                                           	extern	_POSTINC0
                                           	extern	_INDF0
                                           	extern	_INTCON3
                                           	extern	_INTCON2
                                           	extern	_INTCON
                                           	extern	_PROD
                                           	extern	_PRODL
                                           	extern	_PRODH
                                           	extern	_TABLAT
                                           	extern	_TBLPTR
                                           	extern	_TBLPTRL
                                           	extern	_TBLPTRH
                                           	extern	_TBLPTRU
                                           	extern	_PC
                                           	extern	_PCL
                                           	extern	_PCLATH
                                           	extern	_PCLATU
                                           	extern	_STKPTR
                                           	extern	_TOS
                                           	extern	_TOSL
                                           	extern	_TOSH
                                           	extern	_TOSU

                                           ;--------------------------------------------------------
                                           ;	Equates to used internal registers
                                           ;--------------------------------------------------------
                                           WREG	equ	0xfe8
                                           FSR1L	equ	0xfe1
                                           FSR2L	equ	0xfd9
                                           POSTDEC1	equ	0xfe5
                                           PREINC1	equ	0xfe4
                                           PLUSW2	equ	0xfdb


                                           ; Internal registers
                                           .registers	udata_ovr	0x0000
                                           r0x00	res	1
                                           r0x01	res	1

                                           ;--------------------------------------------------------
                                           ; global & static initialisations
                                           ;--------------------------------------------------------
                                           ; I code from now on!
                                           ; ; Starting pCode block
                                           S_i2c__I2C_Read	code
                                           _I2C_Read:
                                           ;	.line	68; i2c.c	unsigned char I2C_Read(void)
0023d0   cfd9     movff   0xfd9, 0xfe5     	MOVFF	FSR2L, POSTDEC1
0023d2   ffe5
0023d4   cfe1     movff   0xfe1, 0xfd9     	MOVFF	FSR1L, FSR2L
0023d6   ffd9
0023d8   c000     movff   0x000, 0xfe5     	MOVFF	r0x00, POSTDEC1
0023da   ffe5
0023dc   c001     movff   0x001, 0xfe5     	MOVFF	r0x01, POSTDEC1
0023de   ffe5
                                           ;	.line	71; i2c.c	SSPCON2bits.RCEN = 1;        /* Enable data reception */
0023e0   86c5     bsf     0xc5, 0x3, 0x0   	BSF	_SSPCON2bits, 3
                                           _00184_DS_:
                                           ;	.line	72; i2c.c	while(SSPSTATbits.BF == 0)      /* wait for buffer full */
0023e2   a0c7     btfss   0xc7, 0x0, 0x0   	BTFSS	_SSPSTATbits, 0
0023e4   d7fe     bra     0x0023e2         	BRA	_00184_DS_
                                           ;	.line	74; i2c.c	temp = SSPBUF;   /* Read serial buffer and store in temp register */
0023e6   cfc9     movff   0xfc9, 0x000     	MOVFF	_SSPBUF, r0x00
0023e8   f000
                                           ;	.line	75; i2c.c	I2C_Wait();       /* wait to check any pending transfer */
0023ea   ec07     call    0x00240e, 0x0    	CALL	_I2C_Wait
0023ec   f012
                                           ;	.line	76; i2c.c	SSPCON2bits.ACKDT=1;				//send not acknowledge
0023ee   8ac5     bsf     0xc5, 0x5, 0x0   	BSF	_SSPCON2bits, 5
                                           ;	.line	77; i2c.c	SSPCON2bits.ACKEN=1;
0023f0   88c5     bsf     0xc5, 0x4, 0x0   	BSF	_SSPCON2bits, 4
                                           _00187_DS_:
                                           ;	.line	78; i2c.c	while(SSPCON2bits.ACKEN == 1) 
0023f2   6a01     clrf    0x01, 0x0        	CLRF	r0x01
0023f4   b8c5     btfsc   0xc5, 0x4, 0x0   	BTFSC	_SSPCON2bits, 4
0023f6   2a01     incf    0x01, 0x1, 0x0   	INCF	r0x01, F
0023f8   5001     movf    0x01, 0x0, 0x0   	MOVF	r0x01, W
0023fa   0a01     xorlw   0x01             	XORLW	0x01
0023fc   e0fa     bz      0x0023f2         	BZ	_00187_DS_
                                           ;	.line	81; i2c.c	return temp;     /* Return the read data from bus */
0023fe   5000     movf    0x00, 0x0, 0x0   	MOVF	r0x00, W
002400   cfe4     movff   0xfe4, 0x001     	MOVFF	PREINC1, r0x01
002402   f001
002404   cfe4     movff   0xfe4, 0x000     	MOVFF	PREINC1, r0x00
002406   f000
002408   cfe4     movff   0xfe4, 0xfd9     	MOVFF	PREINC1, FSR2L
00240a   ffd9
00240c   0012     return  0x0              	RETURN	

                                           ; ; Starting pCode block
                                           S_i2c__I2C_Send	code
                                           _I2C_Send:
                                           ;	.line	61; i2c.c	void I2C_Send(unsigned char dat)
002606   cfd9     movff   0xfd9, 0xfe5     	MOVFF	FSR2L, POSTDEC1
002608   ffe5
00260a   cfe1     movff   0xfe1, 0xfd9     	MOVFF	FSR1L, FSR2L
00260c   ffd9
00260e   0e02     movlw   0x02             	MOVLW	0x02
002610   cfdb     movff   0xfdb, 0xfc9     	MOVFF	PLUSW2, _SSPBUF
002612   ffc9
                                           _00176_DS_:
                                           ;	.line	64; i2c.c	while(SSPSTATbits.BF);       /* wait till complete data is sent from buffer */
002614   b0c7     btfsc   0xc7, 0x0, 0x0   	BTFSC	_SSPSTATbits, 0
002616   d7fe     bra     0x002614         	BRA	_00176_DS_
                                           ;	.line	65; i2c.c	I2C_Wait();       /* wait for any pending transfer */
002618   ec07     call    0x00240e, 0x0    	CALL	_I2C_Wait
00261a   f012
00261c   cfe4     movff   0xfe4, 0xfd9     	MOVFF	PREINC1, FSR2L
00261e   ffd9
002620   0012     return  0x0              	RETURN	

                                           ; ; Starting pCode block
                                           S_i2c__I2C_Wait	code
                                           _I2C_Wait:
                                           ;	.line	49; i2c.c	void I2C_Wait(void)
00240e   cfd9     movff   0xfd9, 0xfe5     	MOVFF	FSR2L, POSTDEC1
002410   ffe5
002412   cfe1     movff   0xfe1, 0xfd9     	MOVFF	FSR1L, FSR2L
002414   ffd9
002416   c000     movff   0x000, 0xfe5     	MOVFF	r0x00, POSTDEC1
002418   ffe5
                                           _00152_DS_:
                                           ;	.line	51; i2c.c	while(SSPSTATbits.R_NOT_W == 1)
00241a   6a00     clrf    0x00, 0x0        	CLRF	r0x00
00241c   b4c7     btfsc   0xc7, 0x2, 0x0   	BTFSC	_SSPSTATbits, 2
00241e   2a00     incf    0x00, 0x1, 0x0   	INCF	r0x00, F
002420   5000     movf    0x00, 0x0, 0x0   	MOVF	r0x00, W
002422   0a01     xorlw   0x01             	XORLW	0x01
002424   e0fa     bz      0x00241a         	BZ	_00152_DS_
                                           ;	.line	53; i2c.c	if(SSPCON2bits.ACKSTAT == 1)
002426   6a00     clrf    0x00, 0x0        	CLRF	r0x00
002428   bcc5     btfsc   0xc5, 0x6, 0x0   	BTFSC	_SSPCON2bits, 6
00242a   2a00     incf    0x00, 0x1, 0x0   	INCF	r0x00, F
00242c   5000     movf    0x00, 0x0, 0x0   	MOVF	r0x00, W
00242e   0a01     xorlw   0x01             	XORLW	0x01
002430   e102     bnz     0x002436         	BNZ	_00157_DS_
                                           ;	.line	55; i2c.c	I2C_Stop();
002432   ecac     call    0x002558, 0x0    	CALL	_I2C_Stop
002434   f012
                                           _00157_DS_:
002436   cfe4     movff   0xfe4, 0x000     	MOVFF	PREINC1, r0x00
002438   f000
00243a   cfe4     movff   0xfe4, 0xfd9     	MOVFF	PREINC1, FSR2L
00243c   ffd9
00243e   0012     return  0x0              	RETURN	

                                           ; ; Starting pCode block
                                           S_i2c__I2C_Stop	code
                                           _I2C_Stop:
                                           ;	.line	42; i2c.c	void I2C_Stop(void)
002558   cfd9     movff   0xfd9, 0xfe5     	MOVFF	FSR2L, POSTDEC1
00255a   ffe5
00255c   cfe1     movff   0xfe1, 0xfd9     	MOVFF	FSR1L, FSR2L
00255e   ffd9
002560   c000     movff   0x000, 0xfe5     	MOVFF	r0x00, POSTDEC1
002562   ffe5
                                           ;	.line	44; i2c.c	SSPCON2bits.PEN=1;
002564   84c5     bsf     0xc5, 0x2, 0x0   	BSF	_SSPCON2bits, 2
                                           _00138_DS_:
                                           ;	.line	45; i2c.c	while(SSPCON2bits.PEN==1)
002566   6a00     clrf    0x00, 0x0        	CLRF	r0x00
002568   b4c5     btfsc   0xc5, 0x2, 0x0   	BTFSC	_SSPCON2bits, 2
00256a   2a00     incf    0x00, 0x1, 0x0   	INCF	r0x00, F
00256c   5000     movf    0x00, 0x0, 0x0   	MOVF	r0x00, W
00256e   0a01     xorlw   0x01             	XORLW	0x01
002570   e0fa     bz      0x002566         	BZ	_00138_DS_
                                           ;	.line	46; i2c.c	continue;
002572   cfe4     movff   0xfe4, 0x000     	MOVFF	PREINC1, r0x00
002574   f000
002576   cfe4     movff   0xfe4, 0xfd9     	MOVFF	PREINC1, FSR2L
002578   ffd9
00257a   0012     return  0x0              	RETURN	

                                           ; ; Starting pCode block
                                           S_i2c__I2C_Restart	code
                                           _I2C_Restart:
                                           ;	.line	32; i2c.c	void I2C_Restart(void)
00257c   cfd9     movff   0xfd9, 0xfe5     	MOVFF	FSR2L, POSTDEC1
00257e   ffe5
002580   cfe1     movff   0xfe1, 0xfd9     	MOVFF	FSR1L, FSR2L
002582   ffd9
002584   c000     movff   0x000, 0xfe5     	MOVFF	r0x00, POSTDEC1
002586   ffe5
                                           ;	.line	34; i2c.c	SSPCON2bits.RSEN = 1;
002588   82c5     bsf     0xc5, 0x1, 0x0   	BSF	_SSPCON2bits, 1
                                           _00124_DS_:
                                           ;	.line	36; i2c.c	while (SSPCON2bits.RSEN == 1)
00258a   6a00     clrf    0x00, 0x0        	CLRF	r0x00
00258c   b2c5     btfsc   0xc5, 0x1, 0x0   	BTFSC	_SSPCON2bits, 1
00258e   2a00     incf    0x00, 0x1, 0x0   	INCF	r0x00, F
002590   5000     movf    0x00, 0x0, 0x0   	MOVF	r0x00, W
002592   0a01     xorlw   0x01             	XORLW	0x01
002594   e0fa     bz      0x00258a         	BZ	_00124_DS_
                                           ;	.line	37; i2c.c	continue;
002596   cfe4     movff   0xfe4, 0x000     	MOVFF	PREINC1, r0x00
002598   f000
00259a   cfe4     movff   0xfe4, 0xfd9     	MOVFF	PREINC1, FSR2L
00259c   ffd9
00259e   0012     return  0x0              	RETURN	

                                           ; ; Starting pCode block
                                           S_i2c__I2C_Start	code
                                           _I2C_Start:
                                           ;	.line	21; i2c.c	void I2C_Start(void)
0025a0   cfd9     movff   0xfd9, 0xfe5     	MOVFF	FSR2L, POSTDEC1
0025a2   ffe5
0025a4   cfe1     movff   0xfe1, 0xfd9     	MOVFF	FSR1L, FSR2L
0025a6   ffd9
0025a8   c000     movff   0x000, 0xfe5     	MOVFF	r0x00, POSTDEC1
0025aa   ffe5
                                           ;	.line	23; i2c.c	SSPCON2bits.SEN = 1;
0025ac   80c5     bsf     0xc5, 0x0, 0x0   	BSF	_SSPCON2bits, 0
                                           _00110_DS_:
                                           ;	.line	25; i2c.c	while (SSPCON2bits.SEN == 1)
0025ae   6a00     clrf    0x00, 0x0        	CLRF	r0x00
0025b0   b0c5     btfsc   0xc5, 0x0, 0x0   	BTFSC	_SSPCON2bits, 0
0025b2   2a00     incf    0x00, 0x1, 0x0   	INCF	r0x00, F
0025b4   5000     movf    0x00, 0x0, 0x0   	MOVF	r0x00, W
0025b6   0a01     xorlw   0x01             	XORLW	0x01
0025b8   e0fa     bz      0x0025ae         	BZ	_00110_DS_
                                           ;	.line	26; i2c.c	continue;
0025ba   cfe4     movff   0xfe4, 0x000     	MOVFF	PREINC1, r0x00
0025bc   f000
0025be   cfe4     movff   0xfe4, 0xfd9     	MOVFF	PREINC1, FSR2L
0025c0   ffd9
0025c2   0012     return  0x0              	RETURN	

                                           ; ; Starting pCode block
                                           S_i2c__I2C_Init	code
                                           _I2C_Init:
                                           ;	.line	4; i2c.c	void I2C_Init()
0025e6   cfd9     movff   0xfd9, 0xfe5     	MOVFF	FSR2L, POSTDEC1
0025e8   ffe5
0025ea   cfe1     movff   0xfe1, 0xfd9     	MOVFF	FSR1L, FSR2L
0025ec   ffd9
                                           ;	.line	6; i2c.c	TRISB |= 0x03;
0025ee   0e03     movlw   0x03             	MOVLW	0x03
0025f0   1293     iorwf   0x93, 0x1, 0x0   	IORWF	_TRISB, F
                                           ;	.line	7; i2c.c	SSPSTAT |= 0x80; //Slew Rate Disabled
0025f2   8ec7     bsf     0xc7, 0x7, 0x0   	BSF	_SSPSTAT, 7
                                           ;	.line	8; i2c.c	SSPADD = 119;
0025f4   0e77     movlw   0x77             	MOVLW	0x77
0025f6   6ec8     movwf   0xc8, 0x0        	MOVWF	_SSPADD
                                           ;	.line	10; i2c.c	SSPCON1 = 0b00101000;			//Master mode
0025f8   0e28     movlw   0x28             	MOVLW	0x28
0025fa   6ec6     movwf   0xc6, 0x0        	MOVWF	_SSPCON1
                                           ;	.line	11; i2c.c	SSPADD = 119;
0025fc   0e77     movlw   0x77             	MOVLW	0x77
0025fe   6ec8     movwf   0xc8, 0x0        	MOVWF	_SSPADD
002600   cfe4     movff   0xfe4, 0xfd9     	MOVFF	PREINC1, FSR2L
002602   ffd9
002604   0012     return  0x0              	RETURN	



                                           ; Statistics:
                                           ; code size:	  280 (0x0118) bytes ( 0.21%)
                                           ;           	  140 (0x008c) words
                                           ; udata size:	    0 (0x0000) bytes ( 0.00%)
                                           ; access size:	    2 (0x0002) bytes


                                           	end
                                           ;--------------------------------------------------------
                                           ; File Created by SDCC : free open source ANSI-C Compiler
                                           ; Version 3.6.0 #9615 (MINGW64)
                                           ;--------------------------------------------------------
                                           ; PIC16 port for the Microchip 16-bit core micros
                                           ;--------------------------------------------------------
                                           	list	p=18f4550
                                           	radix	dec


                                           ;--------------------------------------------------------
                                           ; public variables in this module
                                           ;--------------------------------------------------------
                                           	global	_Delay40us
                                           	global	_Delay2ms
                                           	global	_PulsoEN
                                           	global	_lcdCommand
                                           	global	_lcdInit
                                           	global	_lcdLine
                                           	global	_lcdData
                                           	global	_lcdString

                                           ;--------------------------------------------------------
                                           ; extern variables in this module
                                           ;--------------------------------------------------------
                                           	extern	__gptrget1

                                           ;--------------------------------------------------------
                                           ;	Equates to used internal registers
                                           ;--------------------------------------------------------
                                           STATUS	equ	0xfd8
                                           WREG	equ	0xfe8
                                           FSR0L	equ	0xfe9
                                           FSR1L	equ	0xfe1
                                           FSR2L	equ	0xfd9
                                           INDF0	equ	0xfef
                                           POSTINC1	equ	0xfe6
                                           POSTDEC1	equ	0xfe5
                                           PREINC1	equ	0xfe4
                                           PLUSW2	equ	0xfdb
                                           PRODL	equ	0xff3


                                           ; Internal registers
                                           .registers	udata_ovr	0x0000
                                           r0x00	res	1
                                           r0x01	res	1
                                           r0x02	res	1
                                           r0x03	res	1
                                           r0x04	res	1
                                           r0x05	res	1
                                           r0x06	res	1

                                           ;--------------------------------------------------------
                                           ; global & static initialisations
                                           ;--------------------------------------------------------
                                           ; I code from now on!
                                           ; ; Starting pCode block
                                           S_lcd__lcdString	code
                                           _lcdString:
                                           ;	.line	258; lcd.c	void lcdString(char vector[])
001f6e   cfd9     movff   0xfd9, 0xfe5     	MOVFF	FSR2L, POSTDEC1
001f70   ffe5
001f72   cfe1     movff   0xfe1, 0xfd9     	MOVFF	FSR1L, FSR2L
001f74   ffd9
001f76   c000     movff   0x000, 0xfe5     	MOVFF	r0x00, POSTDEC1
001f78   ffe5
001f7a   c001     movff   0x001, 0xfe5     	MOVFF	r0x01, POSTDEC1
001f7c   ffe5
001f7e   c002     movff   0x002, 0xfe5     	MOVFF	r0x02, POSTDEC1
001f80   ffe5
001f82   c003     movff   0x003, 0xfe5     	MOVFF	r0x03, POSTDEC1
001f84   ffe5
001f86   c004     movff   0x004, 0xfe5     	MOVFF	r0x04, POSTDEC1
001f88   ffe5
001f8a   c005     movff   0x005, 0xfe5     	MOVFF	r0x05, POSTDEC1
001f8c   ffe5
001f8e   c006     movff   0x006, 0xfe5     	MOVFF	r0x06, POSTDEC1
001f90   ffe5
001f92   0e02     movlw   0x02             	MOVLW	0x02
001f94   cfdb     movff   0xfdb, 0x000     	MOVFF	PLUSW2, r0x00
001f96   f000
001f98   0e03     movlw   0x03             	MOVLW	0x03
001f9a   cfdb     movff   0xfdb, 0x001     	MOVFF	PLUSW2, r0x01
001f9c   f001
001f9e   0e04     movlw   0x04             	MOVLW	0x04
001fa0   cfdb     movff   0xfdb, 0x002     	MOVFF	PLUSW2, r0x02
001fa2   f002
                                           ;	.line	262; lcd.c	while(vector[i])
001fa4   6a03     clrf    0x03, 0x0        	CLRF	r0x03
                                           _00303_DS_:
001fa6   5003     movf    0x03, 0x0, 0x0   	MOVF	r0x03, W
001fa8   2400     addwf   0x00, 0x0, 0x0   	ADDWF	r0x00, W
001faa   6e04     movwf   0x04, 0x0        	MOVWF	r0x04
001fac   6ae8     clrf    0xe8, 0x0        	CLRF	WREG
001fae   2001     addwfc  0x01, 0x0, 0x0   	ADDWFC	r0x01, W
001fb0   6e05     movwf   0x05, 0x0        	MOVWF	r0x05
001fb2   6ae8     clrf    0xe8, 0x0        	CLRF	WREG
001fb4   2002     addwfc  0x02, 0x0, 0x0   	ADDWFC	r0x02, W
001fb6   6e06     movwf   0x06, 0x0        	MOVWF	r0x06
001fb8   c004     movff   0x004, 0xfe9     	MOVFF	r0x04, FSR0L
001fba   ffe9
001fbc   c005     movff   0x005, 0xff3     	MOVFF	r0x05, PRODL
001fbe   fff3
001fc0   5006     movf    0x06, 0x0, 0x0   	MOVF	r0x06, W
001fc2   ece2     call    0x0025c4, 0x0    	CALL	__gptrget1
001fc4   f012
001fc6   6e04     movwf   0x04, 0x0        	MOVWF	r0x04
001fc8   5004     movf    0x04, 0x0, 0x0   	MOVF	r0x04, W
001fca   e007     bz      0x001fda         	BZ	_00306_DS_
                                           ;	.line	264; lcd.c	lcdData(vector[i]);
001fcc   5004     movf    0x04, 0x0, 0x0   	MOVF	r0x04, W
001fce   6ee5     movwf   0xe5, 0x0        	MOVWF	POSTDEC1
001fd0   ec68     call    0x000ed0, 0x0    	CALL	_lcdData
001fd2   f007
001fd4   52e6     movf    0xe6, 0x1, 0x0   	MOVF	POSTINC1, F
                                           ;	.line	265; lcd.c	i++;
001fd6   2a03     incf    0x03, 0x1, 0x0   	INCF	r0x03, F
001fd8   d7e6     bra     0x001fa6         	BRA	_00303_DS_
                                           _00306_DS_:
001fda   cfe4     movff   0xfe4, 0x006     	MOVFF	PREINC1, r0x06
001fdc   f006
001fde   cfe4     movff   0xfe4, 0x005     	MOVFF	PREINC1, r0x05
001fe0   f005
001fe2   cfe4     movff   0xfe4, 0x004     	MOVFF	PREINC1, r0x04
001fe4   f004
001fe6   cfe4     movff   0xfe4, 0x003     	MOVFF	PREINC1, r0x03
001fe8   f003
001fea   cfe4     movff   0xfe4, 0x002     	MOVFF	PREINC1, r0x02
001fec   f002
001fee   cfe4     movff   0xfe4, 0x001     	MOVFF	PREINC1, r0x01
001ff0   f001
001ff2   cfe4     movff   0xfe4, 0x000     	MOVFF	PREINC1, r0x00
001ff4   f000
001ff6   cfe4     movff   0xfe4, 0xfd9     	MOVFF	PREINC1, FSR2L
001ff8   ffd9
001ffa   0012     return  0x0              	RETURN	

                                           ; ; Starting pCode block
                                           S_lcd__lcdData	code
                                           _lcdData:
                                           ;	.line	221; lcd.c	void lcdData(unsigned char valor)
000ed0   cfd9     movff   0xfd9, 0xfe5     	MOVFF	FSR2L, POSTDEC1
000ed2   ffe5
000ed4   cfe1     movff   0xfe1, 0xfd9     	MOVFF	FSR1L, FSR2L
000ed6   ffd9
000ed8   c000     movff   0x000, 0xfe5     	MOVFF	r0x00, POSTDEC1
000eda   ffe5
000edc   c001     movff   0x001, 0xfe5     	MOVFF	r0x01, POSTDEC1
000ede   ffe5
000ee0   0e02     movlw   0x02             	MOVLW	0x02
000ee2   cfdb     movff   0xfdb, 0x000     	MOVFF	PLUSW2, r0x00
000ee4   f000
                                           ;	.line	223; lcd.c	Delay2ms();
000ee6   ec20     call    0x002440, 0x0    	CALL	_Delay2ms
000ee8   f012
                                           ;	.line	225; lcd.c	BitSet(PORTA,RS);
000eea   ee0f     lfsr    0x0, 0xf80       	LFSR	0x00, 0xf80
000eec   f080
000eee   cfef     movff   0xfef, 0x001     	MOVFF	INDF0, r0x01
000ef0   f001
000ef2   8001     bsf     0x01, 0x0, 0x0   	BSF	r0x01, 0
000ef4   ee0f     lfsr    0x0, 0xf80       	LFSR	0x00, 0xf80
000ef6   f080
000ef8   c001     movff   0x001, 0xfef     	MOVFF	r0x01, INDF0
000efa   ffef
                                           ;	.line	226; lcd.c	BitClr(PORTA,EN);	//comando
000efc   ee0f     lfsr    0x0, 0xf80       	LFSR	0x00, 0xf80
000efe   f080
000f00   cfef     movff   0xfef, 0x001     	MOVFF	INDF0, r0x01
000f02   f001
000f04   9201     bcf     0x01, 0x1, 0x0   	BCF	r0x01, 1
000f06   ee0f     lfsr    0x0, 0xf80       	LFSR	0x00, 0xf80
000f08   f080
000f0a   c001     movff   0x001, 0xfef     	MOVFF	r0x01, INDF0
000f0c   ffef
                                           ;	.line	229; lcd.c	Delay2ms();
000f0e   ec20     call    0x002440, 0x0    	CALL	_Delay2ms
000f10   f012
                                           ;	.line	232; lcd.c	if(valor&0b00010000){BitSet(PORTD,D1);}
000f12   a800     btfss   0x00, 0x4, 0x0   	BTFSS	r0x00, 4
000f14   d00a     bra     0x000f2a         	BRA	_00226_DS_
000f16   ee0f     lfsr    0x0, 0xf83       	LFSR	0x00, 0xf83
000f18   f083
000f1a   cfef     movff   0xfef, 0x001     	MOVFF	INDF0, r0x01
000f1c   f001
000f1e   8e01     bsf     0x01, 0x7, 0x0   	BSF	r0x01, 7
000f20   ee0f     lfsr    0x0, 0xf83       	LFSR	0x00, 0xf83
000f22   f083
000f24   c001     movff   0x001, 0xfef     	MOVFF	r0x01, INDF0
000f26   ffef
000f28   d009     bra     0x000f3c         	BRA	_00227_DS_
                                           _00226_DS_:
                                           ;	.line	233; lcd.c	else {BitClr(PORTD,D1);}
000f2a   ee0f     lfsr    0x0, 0xf83       	LFSR	0x00, 0xf83
000f2c   f083
000f2e   cfef     movff   0xfef, 0x001     	MOVFF	INDF0, r0x01
000f30   f001
000f32   9e01     bcf     0x01, 0x7, 0x0   	BCF	r0x01, 7
000f34   ee0f     lfsr    0x0, 0xf83       	LFSR	0x00, 0xf83
000f36   f083
000f38   c001     movff   0x001, 0xfef     	MOVFF	r0x01, INDF0
000f3a   ffef
                                           _00227_DS_:
                                           ;	.line	234; lcd.c	if(valor&0b00100000){BitSet(PORTD,D2);}
000f3c   aa00     btfss   0x00, 0x5, 0x0   	BTFSS	r0x00, 5
000f3e   d00a     bra     0x000f54         	BRA	_00229_DS_
000f40   ee0f     lfsr    0x0, 0xf83       	LFSR	0x00, 0xf83
000f42   f083
000f44   cfef     movff   0xfef, 0x001     	MOVFF	INDF0, r0x01
000f46   f001
000f48   8c01     bsf     0x01, 0x6, 0x0   	BSF	r0x01, 6
000f4a   ee0f     lfsr    0x0, 0xf83       	LFSR	0x00, 0xf83
000f4c   f083
000f4e   c001     movff   0x001, 0xfef     	MOVFF	r0x01, INDF0
000f50   ffef
000f52   d009     bra     0x000f66         	BRA	_00230_DS_
                                           _00229_DS_:
                                           ;	.line	235; lcd.c	else {BitClr(PORTD,D2);}
000f54   ee0f     lfsr    0x0, 0xf83       	LFSR	0x00, 0xf83
000f56   f083
000f58   cfef     movff   0xfef, 0x001     	MOVFF	INDF0, r0x01
000f5a   f001
000f5c   9c01     bcf     0x01, 0x6, 0x0   	BCF	r0x01, 6
000f5e   ee0f     lfsr    0x0, 0xf83       	LFSR	0x00, 0xf83
000f60   f083
000f62   c001     movff   0x001, 0xfef     	MOVFF	r0x01, INDF0
000f64   ffef
                                           _00230_DS_:
                                           ;	.line	236; lcd.c	if(valor&0b01000000){BitSet(PORTD,D3);}
000f66   ac00     btfss   0x00, 0x6, 0x0   	BTFSS	r0x00, 6
000f68   d00a     bra     0x000f7e         	BRA	_00232_DS_
000f6a   ee0f     lfsr    0x0, 0xf83       	LFSR	0x00, 0xf83
000f6c   f083
000f6e   cfef     movff   0xfef, 0x001     	MOVFF	INDF0, r0x01
000f70   f001
000f72   8a01     bsf     0x01, 0x5, 0x0   	BSF	r0x01, 5
000f74   ee0f     lfsr    0x0, 0xf83       	LFSR	0x00, 0xf83
000f76   f083
000f78   c001     movff   0x001, 0xfef     	MOVFF	r0x01, INDF0
000f7a   ffef
000f7c   d009     bra     0x000f90         	BRA	_00233_DS_
                                           _00232_DS_:
                                           ;	.line	237; lcd.c	else {BitClr(PORTD,D3);}
000f7e   ee0f     lfsr    0x0, 0xf83       	LFSR	0x00, 0xf83
000f80   f083
000f82   cfef     movff   0xfef, 0x001     	MOVFF	INDF0, r0x01
000f84   f001
000f86   9a01     bcf     0x01, 0x5, 0x0   	BCF	r0x01, 5
000f88   ee0f     lfsr    0x0, 0xf83       	LFSR	0x00, 0xf83
000f8a   f083
000f8c   c001     movff   0x001, 0xfef     	MOVFF	r0x01, INDF0
000f8e   ffef
                                           _00233_DS_:
                                           ;	.line	238; lcd.c	if(valor&0b10000000){BitSet(PORTD,D4);}
000f90   ae00     btfss   0x00, 0x7, 0x0   	BTFSS	r0x00, 7
000f92   d00a     bra     0x000fa8         	BRA	_00235_DS_
000f94   ee0f     lfsr    0x0, 0xf83       	LFSR	0x00, 0xf83
000f96   f083
000f98   cfef     movff   0xfef, 0x001     	MOVFF	INDF0, r0x01
000f9a   f001
000f9c   8801     bsf     0x01, 0x4, 0x0   	BSF	r0x01, 4
000f9e   ee0f     lfsr    0x0, 0xf83       	LFSR	0x00, 0xf83
000fa0   f083
000fa2   c001     movff   0x001, 0xfef     	MOVFF	r0x01, INDF0
000fa4   ffef
000fa6   d009     bra     0x000fba         	BRA	_00236_DS_
                                           _00235_DS_:
                                           ;	.line	239; lcd.c	else {BitClr(PORTD,D4);}    
000fa8   ee0f     lfsr    0x0, 0xf83       	LFSR	0x00, 0xf83
000faa   f083
000fac   cfef     movff   0xfef, 0x001     	MOVFF	INDF0, r0x01
000fae   f001
000fb0   9801     bcf     0x01, 0x4, 0x0   	BCF	r0x01, 4
000fb2   ee0f     lfsr    0x0, 0xf83       	LFSR	0x00, 0xf83
000fb4   f083
000fb6   c001     movff   0x001, 0xfef     	MOVFF	r0x01, INDF0
000fb8   ffef
                                           _00236_DS_:
                                           ;	.line	240; lcd.c	PulsoEN();
000fba   ec6f     call    0x0022de, 0x0    	CALL	_PulsoEN
000fbc   f011
                                           ;	.line	243; lcd.c	if(valor&0b00000001){BitSet(PORTD,D1);}
000fbe   a000     btfss   0x00, 0x0, 0x0   	BTFSS	r0x00, 0
000fc0   d00a     bra     0x000fd6         	BRA	_00238_DS_
000fc2   ee0f     lfsr    0x0, 0xf83       	LFSR	0x00, 0xf83
000fc4   f083
000fc6   cfef     movff   0xfef, 0x001     	MOVFF	INDF0, r0x01
000fc8   f001
000fca   8e01     bsf     0x01, 0x7, 0x0   	BSF	r0x01, 7
000fcc   ee0f     lfsr    0x0, 0xf83       	LFSR	0x00, 0xf83
000fce   f083
000fd0   c001     movff   0x001, 0xfef     	MOVFF	r0x01, INDF0
000fd2   ffef
000fd4   d009     bra     0x000fe8         	BRA	_00239_DS_
                                           _00238_DS_:
                                           ;	.line	244; lcd.c	else {BitClr(PORTD,D1);}
000fd6   ee0f     lfsr    0x0, 0xf83       	LFSR	0x00, 0xf83
000fd8   f083
000fda   cfef     movff   0xfef, 0x001     	MOVFF	INDF0, r0x01
000fdc   f001
000fde   9e01     bcf     0x01, 0x7, 0x0   	BCF	r0x01, 7
000fe0   ee0f     lfsr    0x0, 0xf83       	LFSR	0x00, 0xf83
000fe2   f083
000fe4   c001     movff   0x001, 0xfef     	MOVFF	r0x01, INDF0
000fe6   ffef
                                           _00239_DS_:
                                           ;	.line	245; lcd.c	if(valor&0b00000010){BitSet(PORTD,D2);}
000fe8   a200     btfss   0x00, 0x1, 0x0   	BTFSS	r0x00, 1
000fea   d00a     bra     0x001000         	BRA	_00241_DS_
000fec   ee0f     lfsr    0x0, 0xf83       	LFSR	0x00, 0xf83
000fee   f083
000ff0   cfef     movff   0xfef, 0x001     	MOVFF	INDF0, r0x01
000ff2   f001
000ff4   8c01     bsf     0x01, 0x6, 0x0   	BSF	r0x01, 6
000ff6   ee0f     lfsr    0x0, 0xf83       	LFSR	0x00, 0xf83
000ff8   f083
000ffa   c001     movff   0x001, 0xfef     	MOVFF	r0x01, INDF0
000ffc   ffef
000ffe   d009     bra     0x001012         	BRA	_00242_DS_
                                           _00241_DS_:
                                           ;	.line	246; lcd.c	else {BitClr(PORTD,D2);}
001000   ee0f     lfsr    0x0, 0xf83       	LFSR	0x00, 0xf83
001002   f083
001004   cfef     movff   0xfef, 0x001     	MOVFF	INDF0, r0x01
001006   f001
001008   9c01     bcf     0x01, 0x6, 0x0   	BCF	r0x01, 6
00100a   ee0f     lfsr    0x0, 0xf83       	LFSR	0x00, 0xf83
00100c   f083
00100e   c001     movff   0x001, 0xfef     	MOVFF	r0x01, INDF0
001010   ffef
                                           _00242_DS_:
                                           ;	.line	247; lcd.c	if(valor&0b00000100){BitSet(PORTD,D3);}
001012   a400     btfss   0x00, 0x2, 0x0   	BTFSS	r0x00, 2
001014   d00a     bra     0x00102a         	BRA	_00244_DS_
001016   ee0f     lfsr    0x0, 0xf83       	LFSR	0x00, 0xf83
001018   f083
00101a   cfef     movff   0xfef, 0x001     	MOVFF	INDF0, r0x01
00101c   f001
00101e   8a01     bsf     0x01, 0x5, 0x0   	BSF	r0x01, 5
001020   ee0f     lfsr    0x0, 0xf83       	LFSR	0x00, 0xf83
001022   f083
001024   c001     movff   0x001, 0xfef     	MOVFF	r0x01, INDF0
001026   ffef
001028   d009     bra     0x00103c         	BRA	_00245_DS_
                                           _00244_DS_:
                                           ;	.line	248; lcd.c	else {BitClr(PORTD,D3);}
00102a   ee0f     lfsr    0x0, 0xf83       	LFSR	0x00, 0xf83
00102c   f083
00102e   cfef     movff   0xfef, 0x001     	MOVFF	INDF0, r0x01
001030   f001
001032   9a01     bcf     0x01, 0x5, 0x0   	BCF	r0x01, 5
001034   ee0f     lfsr    0x0, 0xf83       	LFSR	0x00, 0xf83
001036   f083
001038   c001     movff   0x001, 0xfef     	MOVFF	r0x01, INDF0
00103a   ffef
                                           _00245_DS_:
                                           ;	.line	249; lcd.c	if(valor&0b00001000){BitSet(PORTD,D4);}
00103c   a600     btfss   0x00, 0x3, 0x0   	BTFSS	r0x00, 3
00103e   d00a     bra     0x001054         	BRA	_00247_DS_
001040   ee0f     lfsr    0x0, 0xf83       	LFSR	0x00, 0xf83
001042   f083
001044   cfef     movff   0xfef, 0x000     	MOVFF	INDF0, r0x00
001046   f000
001048   8800     bsf     0x00, 0x4, 0x0   	BSF	r0x00, 4
00104a   ee0f     lfsr    0x0, 0xf83       	LFSR	0x00, 0xf83
00104c   f083
00104e   c000     movff   0x000, 0xfef     	MOVFF	r0x00, INDF0
001050   ffef
001052   d009     bra     0x001066         	BRA	_00248_DS_
                                           _00247_DS_:
                                           ;	.line	250; lcd.c	else {BitClr(PORTD,D4);}
001054   ee0f     lfsr    0x0, 0xf83       	LFSR	0x00, 0xf83
001056   f083
001058   cfef     movff   0xfef, 0x000     	MOVFF	INDF0, r0x00
00105a   f000
00105c   9800     bcf     0x00, 0x4, 0x0   	BCF	r0x00, 4
00105e   ee0f     lfsr    0x0, 0xf83       	LFSR	0x00, 0xf83
001060   f083
001062   c000     movff   0x000, 0xfef     	MOVFF	r0x00, INDF0
001064   ffef
                                           _00248_DS_:
                                           ;	.line	251; lcd.c	PulsoEN();
001066   ec6f     call    0x0022de, 0x0    	CALL	_PulsoEN
001068   f011
                                           ;	.line	254; lcd.c	BitClr(PORTA,RS);
00106a   ee0f     lfsr    0x0, 0xf80       	LFSR	0x00, 0xf80
00106c   f080
00106e   cfef     movff   0xfef, 0x000     	MOVFF	INDF0, r0x00
001070   f000
001072   9000     bcf     0x00, 0x0, 0x0   	BCF	r0x00, 0
001074   ee0f     lfsr    0x0, 0xf80       	LFSR	0x00, 0xf80
001076   f080
001078   c000     movff   0x000, 0xfef     	MOVFF	r0x00, INDF0
00107a   ffef
00107c   cfe4     movff   0xfe4, 0x001     	MOVFF	PREINC1, r0x01
00107e   f001
001080   cfe4     movff   0xfe4, 0x000     	MOVFF	PREINC1, r0x00
001082   f000
001084   cfe4     movff   0xfe4, 0xfd9     	MOVFF	PREINC1, FSR2L
001086   ffd9
001088   0012     return  0x0              	RETURN	

                                           ; ; Starting pCode block
                                           S_lcd__lcdLine	code
                                           _lcdLine:
                                           ;	.line	208; lcd.c	void lcdLine(int linha)
002384   cfd9     movff   0xfd9, 0xfe5     	MOVFF	FSR2L, POSTDEC1
002386   ffe5
002388   cfe1     movff   0xfe1, 0xfd9     	MOVFF	FSR1L, FSR2L
00238a   ffd9
00238c   c000     movff   0x000, 0xfe5     	MOVFF	r0x00, POSTDEC1
00238e   ffe5
002390   c001     movff   0x001, 0xfe5     	MOVFF	r0x01, POSTDEC1
002392   ffe5
002394   0e02     movlw   0x02             	MOVLW	0x02
002396   cfdb     movff   0xfdb, 0x000     	MOVFF	PLUSW2, r0x00
002398   f000
00239a   0e03     movlw   0x03             	MOVLW	0x03
00239c   cfdb     movff   0xfdb, 0x001     	MOVFF	PLUSW2, r0x01
00239e   f001
                                           ;	.line	210; lcd.c	if(linha==2)
0023a0   5000     movf    0x00, 0x0, 0x0   	MOVF	r0x00, W
0023a2   0a02     xorlw   0x02             	XORLW	0x02
0023a4   e102     bnz     0x0023aa         	BNZ	_00219_DS_
0023a6   5001     movf    0x01, 0x0, 0x0   	MOVF	r0x01, W
0023a8   e001     bz      0x0023ac         	BZ	_00220_DS_
                                           _00219_DS_:
0023aa   d006     bra     0x0023b8         	BRA	_00212_DS_
                                           _00220_DS_:
                                           ;	.line	212; lcd.c	lcdCommand(0xC0);
0023ac   0ec0     movlw   0xc0             	MOVLW	0xc0
0023ae   6ee5     movwf   0xe5, 0x0        	MOVWF	POSTDEC1
0023b0   ec45     call    0x00108a, 0x0    	CALL	_lcdCommand
0023b2   f008
0023b4   52e6     movf    0xe6, 0x1, 0x0   	MOVF	POSTINC1, F
0023b6   d005     bra     0x0023c2         	BRA	_00214_DS_
                                           _00212_DS_:
                                           ;	.line	216; lcd.c	lcdCommand(0x80);
0023b8   0e80     movlw   0x80             	MOVLW	0x80
0023ba   6ee5     movwf   0xe5, 0x0        	MOVWF	POSTDEC1
0023bc   ec45     call    0x00108a, 0x0    	CALL	_lcdCommand
0023be   f008
0023c0   52e6     movf    0xe6, 0x1, 0x0   	MOVF	POSTINC1, F
                                           _00214_DS_:
0023c2   cfe4     movff   0xfe4, 0x001     	MOVFF	PREINC1, r0x01
0023c4   f001
0023c6   cfe4     movff   0xfe4, 0x000     	MOVFF	PREINC1, r0x00
0023c8   f000
0023ca   cfe4     movff   0xfe4, 0xfd9     	MOVFF	PREINC1, FSR2L
0023cc   ffd9
0023ce   0012     return  0x0              	RETURN	

                                           ; ; Starting pCode block
                                           S_lcd__lcdInit	code
                                           _lcdInit:
                                           ;	.line	107; lcd.c	void lcdInit(void)
00096a   cfd9     movff   0xfd9, 0xfe5     	MOVFF	FSR2L, POSTDEC1
00096c   ffe5
00096e   cfe1     movff   0xfe1, 0xfd9     	MOVFF	FSR1L, FSR2L
000970   ffd9
000972   c000     movff   0x000, 0xfe5     	MOVFF	r0x00, POSTDEC1
000974   ffe5
                                           ;	.line	112; lcd.c	Delay2ms();
000976   ec20     call    0x002440, 0x0    	CALL	_Delay2ms
000978   f012
                                           ;	.line	113; lcd.c	Delay2ms();
00097a   ec20     call    0x002440, 0x0    	CALL	_Delay2ms
00097c   f012
                                           ;	.line	114; lcd.c	Delay2ms();
00097e   ec20     call    0x002440, 0x0    	CALL	_Delay2ms
000980   f012
                                           ;	.line	117; lcd.c	BitClr(TRISA,RS);	//RS
000982   ee0f     lfsr    0x0, 0xf92       	LFSR	0x00, 0xf92
000984   f092
000986   cfef     movff   0xfef, 0x000     	MOVFF	INDF0, r0x00
000988   f000
00098a   9000     bcf     0x00, 0x0, 0x0   	BCF	r0x00, 0
00098c   ee0f     lfsr    0x0, 0xf92       	LFSR	0x00, 0xf92
00098e   f092
000990   c000     movff   0x000, 0xfef     	MOVFF	r0x00, INDF0
000992   ffef
                                           ;	.line	118; lcd.c	BitClr(TRISA,EN);	//EN
000994   ee0f     lfsr    0x0, 0xf92       	LFSR	0x00, 0xf92
000996   f092
000998   cfef     movff   0xfef, 0x000     	MOVFF	INDF0, r0x00
00099a   f000
00099c   9200     bcf     0x00, 0x1, 0x0   	BCF	r0x00, 1
00099e   ee0f     lfsr    0x0, 0xf92       	LFSR	0x00, 0xf92
0009a0   f092
0009a2   c000     movff   0x000, 0xfef     	MOVFF	r0x00, INDF0
0009a4   ffef
                                           ;	.line	122; lcd.c	BitClr(TRISD,D1);
0009a6   ee0f     lfsr    0x0, 0xf95       	LFSR	0x00, 0xf95
0009a8   f095
0009aa   cfef     movff   0xfef, 0x000     	MOVFF	INDF0, r0x00
0009ac   f000
0009ae   9e00     bcf     0x00, 0x7, 0x0   	BCF	r0x00, 7
0009b0   ee0f     lfsr    0x0, 0xf95       	LFSR	0x00, 0xf95
0009b2   f095
0009b4   c000     movff   0x000, 0xfef     	MOVFF	r0x00, INDF0
0009b6   ffef
                                           ;	.line	123; lcd.c	BitClr(TRISD,D2);
0009b8   ee0f     lfsr    0x0, 0xf95       	LFSR	0x00, 0xf95
0009ba   f095
0009bc   cfef     movff   0xfef, 0x000     	MOVFF	INDF0, r0x00
0009be   f000
0009c0   9c00     bcf     0x00, 0x6, 0x0   	BCF	r0x00, 6
0009c2   ee0f     lfsr    0x0, 0xf95       	LFSR	0x00, 0xf95
0009c4   f095
0009c6   c000     movff   0x000, 0xfef     	MOVFF	r0x00, INDF0
0009c8   ffef
                                           ;	.line	124; lcd.c	BitClr(TRISD,D3);
0009ca   ee0f     lfsr    0x0, 0xf95       	LFSR	0x00, 0xf95
0009cc   f095
0009ce   cfef     movff   0xfef, 0x000     	MOVFF	INDF0, r0x00
0009d0   f000
0009d2   9a00     bcf     0x00, 0x5, 0x0   	BCF	r0x00, 5
0009d4   ee0f     lfsr    0x0, 0xf95       	LFSR	0x00, 0xf95
0009d6   f095
0009d8   c000     movff   0x000, 0xfef     	MOVFF	r0x00, INDF0
0009da   ffef
                                           ;	.line	125; lcd.c	BitClr(TRISD,D4);
0009dc   ee0f     lfsr    0x0, 0xf95       	LFSR	0x00, 0xf95
0009de   f095
0009e0   cfef     movff   0xfef, 0x000     	MOVFF	INDF0, r0x00
0009e2   f000
0009e4   9800     bcf     0x00, 0x4, 0x0   	BCF	r0x00, 4
0009e6   ee0f     lfsr    0x0, 0xf95       	LFSR	0x00, 0xf95
0009e8   f095
0009ea   c000     movff   0x000, 0xfef     	MOVFF	r0x00, INDF0
0009ec   ffef
                                           ;	.line	127; lcd.c	BitClr(PORTA,RS);
0009ee   ee0f     lfsr    0x0, 0xf80       	LFSR	0x00, 0xf80
0009f0   f080
0009f2   cfef     movff   0xfef, 0x000     	MOVFF	INDF0, r0x00
0009f4   f000
0009f6   9000     bcf     0x00, 0x0, 0x0   	BCF	r0x00, 0
0009f8   ee0f     lfsr    0x0, 0xf80       	LFSR	0x00, 0xf80
0009fa   f080
0009fc   c000     movff   0x000, 0xfef     	MOVFF	r0x00, INDF0
0009fe   ffef
                                           ;	.line	128; lcd.c	BitClr(PORTA,EN);
000a00   ee0f     lfsr    0x0, 0xf80       	LFSR	0x00, 0xf80
000a02   f080
000a04   cfef     movff   0xfef, 0x000     	MOVFF	INDF0, r0x00
000a06   f000
000a08   9200     bcf     0x00, 0x1, 0x0   	BCF	r0x00, 1
000a0a   ee0f     lfsr    0x0, 0xf80       	LFSR	0x00, 0xf80
000a0c   f080
000a0e   c000     movff   0x000, 0xfef     	MOVFF	r0x00, INDF0
000a10   ffef
                                           ;	.line	130; lcd.c	Delay2ms();
000a12   ec20     call    0x002440, 0x0    	CALL	_Delay2ms
000a14   f012
                                           ;	.line	135; lcd.c	BitClr(PORTD,D4);
000a16   ee0f     lfsr    0x0, 0xf83       	LFSR	0x00, 0xf83
000a18   f083
000a1a   cfef     movff   0xfef, 0x000     	MOVFF	INDF0, r0x00
000a1c   f000
000a1e   9800     bcf     0x00, 0x4, 0x0   	BCF	r0x00, 4
000a20   ee0f     lfsr    0x0, 0xf83       	LFSR	0x00, 0xf83
000a22   f083
000a24   c000     movff   0x000, 0xfef     	MOVFF	r0x00, INDF0
000a26   ffef
                                           ;	.line	136; lcd.c	BitClr(PORTD,D3);
000a28   ee0f     lfsr    0x0, 0xf83       	LFSR	0x00, 0xf83
000a2a   f083
000a2c   cfef     movff   0xfef, 0x000     	MOVFF	INDF0, r0x00
000a2e   f000
000a30   9a00     bcf     0x00, 0x5, 0x0   	BCF	r0x00, 5
000a32   ee0f     lfsr    0x0, 0xf83       	LFSR	0x00, 0xf83
000a34   f083
000a36   c000     movff   0x000, 0xfef     	MOVFF	r0x00, INDF0
000a38   ffef
                                           ;	.line	137; lcd.c	BitSet(PORTD,D2);	
000a3a   ee0f     lfsr    0x0, 0xf83       	LFSR	0x00, 0xf83
000a3c   f083
000a3e   cfef     movff   0xfef, 0x000     	MOVFF	INDF0, r0x00
000a40   f000
000a42   8c00     bsf     0x00, 0x6, 0x0   	BSF	r0x00, 6
000a44   ee0f     lfsr    0x0, 0xf83       	LFSR	0x00, 0xf83
000a46   f083
000a48   c000     movff   0x000, 0xfef     	MOVFF	r0x00, INDF0
000a4a   ffef
                                           ;	.line	138; lcd.c	BitSet(PORTD,D1);
000a4c   ee0f     lfsr    0x0, 0xf83       	LFSR	0x00, 0xf83
000a4e   f083
000a50   cfef     movff   0xfef, 0x000     	MOVFF	INDF0, r0x00
000a52   f000
000a54   8e00     bsf     0x00, 0x7, 0x0   	BSF	r0x00, 7
000a56   ee0f     lfsr    0x0, 0xf83       	LFSR	0x00, 0xf83
000a58   f083
000a5a   c000     movff   0x000, 0xfef     	MOVFF	r0x00, INDF0
000a5c   ffef
                                           ;	.line	140; lcd.c	PulsoEN();
000a5e   ec6f     call    0x0022de, 0x0    	CALL	_PulsoEN
000a60   f011
                                           ;	.line	142; lcd.c	BitClr(PORTD,D4);
000a62   ee0f     lfsr    0x0, 0xf83       	LFSR	0x00, 0xf83
000a64   f083
000a66   cfef     movff   0xfef, 0x000     	MOVFF	INDF0, r0x00
000a68   f000
000a6a   9800     bcf     0x00, 0x4, 0x0   	BCF	r0x00, 4
000a6c   ee0f     lfsr    0x0, 0xf83       	LFSR	0x00, 0xf83
000a6e   f083
000a70   c000     movff   0x000, 0xfef     	MOVFF	r0x00, INDF0
000a72   ffef
                                           ;	.line	143; lcd.c	BitClr(PORTD,D3);
000a74   ee0f     lfsr    0x0, 0xf83       	LFSR	0x00, 0xf83
000a76   f083
000a78   cfef     movff   0xfef, 0x000     	MOVFF	INDF0, r0x00
000a7a   f000
000a7c   9a00     bcf     0x00, 0x5, 0x0   	BCF	r0x00, 5
000a7e   ee0f     lfsr    0x0, 0xf83       	LFSR	0x00, 0xf83
000a80   f083
000a82   c000     movff   0x000, 0xfef     	MOVFF	r0x00, INDF0
000a84   ffef
                                           ;	.line	144; lcd.c	BitSet(PORTD,D2);	
000a86   ee0f     lfsr    0x0, 0xf83       	LFSR	0x00, 0xf83
000a88   f083
000a8a   cfef     movff   0xfef, 0x000     	MOVFF	INDF0, r0x00
000a8c   f000
000a8e   8c00     bsf     0x00, 0x6, 0x0   	BSF	r0x00, 6
000a90   ee0f     lfsr    0x0, 0xf83       	LFSR	0x00, 0xf83
000a92   f083
000a94   c000     movff   0x000, 0xfef     	MOVFF	r0x00, INDF0
000a96   ffef
                                           ;	.line	145; lcd.c	BitSet(PORTD,D1);
000a98   ee0f     lfsr    0x0, 0xf83       	LFSR	0x00, 0xf83
000a9a   f083
000a9c   cfef     movff   0xfef, 0x000     	MOVFF	INDF0, r0x00
000a9e   f000
000aa0   8e00     bsf     0x00, 0x7, 0x0   	BSF	r0x00, 7
000aa2   ee0f     lfsr    0x0, 0xf83       	LFSR	0x00, 0xf83
000aa4   f083
000aa6   c000     movff   0x000, 0xfef     	MOVFF	r0x00, INDF0
000aa8   ffef
                                           ;	.line	147; lcd.c	PulsoEN();
000aaa   ec6f     call    0x0022de, 0x0    	CALL	_PulsoEN
000aac   f011
                                           ;	.line	149; lcd.c	BitClr(PORTD,D4);
000aae   ee0f     lfsr    0x0, 0xf83       	LFSR	0x00, 0xf83
000ab0   f083
000ab2   cfef     movff   0xfef, 0x000     	MOVFF	INDF0, r0x00
000ab4   f000
000ab6   9800     bcf     0x00, 0x4, 0x0   	BCF	r0x00, 4
000ab8   ee0f     lfsr    0x0, 0xf83       	LFSR	0x00, 0xf83
000aba   f083
000abc   c000     movff   0x000, 0xfef     	MOVFF	r0x00, INDF0
000abe   ffef
                                           ;	.line	150; lcd.c	BitClr(PORTD,D3);
000ac0   ee0f     lfsr    0x0, 0xf83       	LFSR	0x00, 0xf83
000ac2   f083
000ac4   cfef     movff   0xfef, 0x000     	MOVFF	INDF0, r0x00
000ac6   f000
000ac8   9a00     bcf     0x00, 0x5, 0x0   	BCF	r0x00, 5
000aca   ee0f     lfsr    0x0, 0xf83       	LFSR	0x00, 0xf83
000acc   f083
000ace   c000     movff   0x000, 0xfef     	MOVFF	r0x00, INDF0
000ad0   ffef
                                           ;	.line	151; lcd.c	BitSet(PORTD,D2);	
000ad2   ee0f     lfsr    0x0, 0xf83       	LFSR	0x00, 0xf83
000ad4   f083
000ad6   cfef     movff   0xfef, 0x000     	MOVFF	INDF0, r0x00
000ad8   f000
000ada   8c00     bsf     0x00, 0x6, 0x0   	BSF	r0x00, 6
000adc   ee0f     lfsr    0x0, 0xf83       	LFSR	0x00, 0xf83
000ade   f083
000ae0   c000     movff   0x000, 0xfef     	MOVFF	r0x00, INDF0
000ae2   ffef
                                           ;	.line	152; lcd.c	BitSet(PORTD,D1);
000ae4   ee0f     lfsr    0x0, 0xf83       	LFSR	0x00, 0xf83
000ae6   f083
000ae8   cfef     movff   0xfef, 0x000     	MOVFF	INDF0, r0x00
000aea   f000
000aec   8e00     bsf     0x00, 0x7, 0x0   	BSF	r0x00, 7
000aee   ee0f     lfsr    0x0, 0xf83       	LFSR	0x00, 0xf83
000af0   f083
000af2   c000     movff   0x000, 0xfef     	MOVFF	r0x00, INDF0
000af4   ffef
                                           ;	.line	154; lcd.c	PulsoEN();
000af6   ec6f     call    0x0022de, 0x0    	CALL	_PulsoEN
000af8   f011
                                           ;	.line	156; lcd.c	BitClr(PORTD,D4);
000afa   ee0f     lfsr    0x0, 0xf83       	LFSR	0x00, 0xf83
000afc   f083
000afe   cfef     movff   0xfef, 0x000     	MOVFF	INDF0, r0x00
000b00   f000
000b02   9800     bcf     0x00, 0x4, 0x0   	BCF	r0x00, 4
000b04   ee0f     lfsr    0x0, 0xf83       	LFSR	0x00, 0xf83
000b06   f083
000b08   c000     movff   0x000, 0xfef     	MOVFF	r0x00, INDF0
000b0a   ffef
                                           ;	.line	157; lcd.c	BitClr(PORTD,D3);
000b0c   ee0f     lfsr    0x0, 0xf83       	LFSR	0x00, 0xf83
000b0e   f083
000b10   cfef     movff   0xfef, 0x000     	MOVFF	INDF0, r0x00
000b12   f000
000b14   9a00     bcf     0x00, 0x5, 0x0   	BCF	r0x00, 5
000b16   ee0f     lfsr    0x0, 0xf83       	LFSR	0x00, 0xf83
000b18   f083
000b1a   c000     movff   0x000, 0xfef     	MOVFF	r0x00, INDF0
000b1c   ffef
                                           ;	.line	158; lcd.c	BitSet(PORTD,D2);	
000b1e   ee0f     lfsr    0x0, 0xf83       	LFSR	0x00, 0xf83
000b20   f083
000b22   cfef     movff   0xfef, 0x000     	MOVFF	INDF0, r0x00
000b24   f000
000b26   8c00     bsf     0x00, 0x6, 0x0   	BSF	r0x00, 6
000b28   ee0f     lfsr    0x0, 0xf83       	LFSR	0x00, 0xf83
000b2a   f083
000b2c   c000     movff   0x000, 0xfef     	MOVFF	r0x00, INDF0
000b2e   ffef
                                           ;	.line	159; lcd.c	BitClr(PORTD,D1);
000b30   ee0f     lfsr    0x0, 0xf83       	LFSR	0x00, 0xf83
000b32   f083
000b34   cfef     movff   0xfef, 0x000     	MOVFF	INDF0, r0x00
000b36   f000
000b38   9e00     bcf     0x00, 0x7, 0x0   	BCF	r0x00, 7
000b3a   ee0f     lfsr    0x0, 0xf83       	LFSR	0x00, 0xf83
000b3c   f083
000b3e   c000     movff   0x000, 0xfef     	MOVFF	r0x00, INDF0
000b40   ffef
                                           ;	.line	161; lcd.c	PulsoEN();
000b42   ec6f     call    0x0022de, 0x0    	CALL	_PulsoEN
000b44   f011
                                           ;	.line	163; lcd.c	BitClr(PORTD,D4);
000b46   ee0f     lfsr    0x0, 0xf83       	LFSR	0x00, 0xf83
000b48   f083
000b4a   cfef     movff   0xfef, 0x000     	MOVFF	INDF0, r0x00
000b4c   f000
000b4e   9800     bcf     0x00, 0x4, 0x0   	BCF	r0x00, 4
000b50   ee0f     lfsr    0x0, 0xf83       	LFSR	0x00, 0xf83
000b52   f083
000b54   c000     movff   0x000, 0xfef     	MOVFF	r0x00, INDF0
000b56   ffef
                                           ;	.line	164; lcd.c	BitClr(PORTD,D3);
000b58   ee0f     lfsr    0x0, 0xf83       	LFSR	0x00, 0xf83
000b5a   f083
000b5c   cfef     movff   0xfef, 0x000     	MOVFF	INDF0, r0x00
000b5e   f000
000b60   9a00     bcf     0x00, 0x5, 0x0   	BCF	r0x00, 5
000b62   ee0f     lfsr    0x0, 0xf83       	LFSR	0x00, 0xf83
000b64   f083
000b66   c000     movff   0x000, 0xfef     	MOVFF	r0x00, INDF0
000b68   ffef
                                           ;	.line	165; lcd.c	BitSet(PORTD,D2);	
000b6a   ee0f     lfsr    0x0, 0xf83       	LFSR	0x00, 0xf83
000b6c   f083
000b6e   cfef     movff   0xfef, 0x000     	MOVFF	INDF0, r0x00
000b70   f000
000b72   8c00     bsf     0x00, 0x6, 0x0   	BSF	r0x00, 6
000b74   ee0f     lfsr    0x0, 0xf83       	LFSR	0x00, 0xf83
000b76   f083
000b78   c000     movff   0x000, 0xfef     	MOVFF	r0x00, INDF0
000b7a   ffef
                                           ;	.line	166; lcd.c	BitClr(PORTD,D1);
000b7c   ee0f     lfsr    0x0, 0xf83       	LFSR	0x00, 0xf83
000b7e   f083
000b80   cfef     movff   0xfef, 0x000     	MOVFF	INDF0, r0x00
000b82   f000
000b84   9e00     bcf     0x00, 0x7, 0x0   	BCF	r0x00, 7
000b86   ee0f     lfsr    0x0, 0xf83       	LFSR	0x00, 0xf83
000b88   f083
000b8a   c000     movff   0x000, 0xfef     	MOVFF	r0x00, INDF0
000b8c   ffef
                                           ;	.line	168; lcd.c	PulsoEN();
000b8e   ec6f     call    0x0022de, 0x0    	CALL	_PulsoEN
000b90   f011
                                           ;	.line	170; lcd.c	BitClr(PORTD,D4);
000b92   ee0f     lfsr    0x0, 0xf83       	LFSR	0x00, 0xf83
000b94   f083
000b96   cfef     movff   0xfef, 0x000     	MOVFF	INDF0, r0x00
000b98   f000
000b9a   9800     bcf     0x00, 0x4, 0x0   	BCF	r0x00, 4
000b9c   ee0f     lfsr    0x0, 0xf83       	LFSR	0x00, 0xf83
000b9e   f083
000ba0   c000     movff   0x000, 0xfef     	MOVFF	r0x00, INDF0
000ba2   ffef
                                           ;	.line	171; lcd.c	BitClr(PORTD,D3);
000ba4   ee0f     lfsr    0x0, 0xf83       	LFSR	0x00, 0xf83
000ba6   f083
000ba8   cfef     movff   0xfef, 0x000     	MOVFF	INDF0, r0x00
000baa   f000
000bac   9a00     bcf     0x00, 0x5, 0x0   	BCF	r0x00, 5
000bae   ee0f     lfsr    0x0, 0xf83       	LFSR	0x00, 0xf83
000bb0   f083
000bb2   c000     movff   0x000, 0xfef     	MOVFF	r0x00, INDF0
000bb4   ffef
                                           ;	.line	172; lcd.c	BitClr(PORTD,D1);
000bb6   ee0f     lfsr    0x0, 0xf83       	LFSR	0x00, 0xf83
000bb8   f083
000bba   cfef     movff   0xfef, 0x000     	MOVFF	INDF0, r0x00
000bbc   f000
000bbe   9e00     bcf     0x00, 0x7, 0x0   	BCF	r0x00, 7
000bc0   ee0f     lfsr    0x0, 0xf83       	LFSR	0x00, 0xf83
000bc2   f083
000bc4   c000     movff   0x000, 0xfef     	MOVFF	r0x00, INDF0
000bc6   ffef
                                           ;	.line	173; lcd.c	BitSet(PORTD,D2);
000bc8   ee0f     lfsr    0x0, 0xf83       	LFSR	0x00, 0xf83
000bca   f083
000bcc   cfef     movff   0xfef, 0x000     	MOVFF	INDF0, r0x00
000bce   f000
000bd0   8c00     bsf     0x00, 0x6, 0x0   	BSF	r0x00, 6
000bd2   ee0f     lfsr    0x0, 0xf83       	LFSR	0x00, 0xf83
000bd4   f083
000bd6   c000     movff   0x000, 0xfef     	MOVFF	r0x00, INDF0
000bd8   ffef
                                           ;	.line	175; lcd.c	PulsoEN();
000bda   ec6f     call    0x0022de, 0x0    	CALL	_PulsoEN
000bdc   f011
                                           ;	.line	177; lcd.c	BitClr(PORTD,D4);
000bde   ee0f     lfsr    0x0, 0xf83       	LFSR	0x00, 0xf83
000be0   f083
000be2   cfef     movff   0xfef, 0x000     	MOVFF	INDF0, r0x00
000be4   f000
000be6   9800     bcf     0x00, 0x4, 0x0   	BCF	r0x00, 4
000be8   ee0f     lfsr    0x0, 0xf83       	LFSR	0x00, 0xf83
000bea   f083
000bec   c000     movff   0x000, 0xfef     	MOVFF	r0x00, INDF0
000bee   ffef
                                           ;	.line	178; lcd.c	BitClr(PORTD,D3);
000bf0   ee0f     lfsr    0x0, 0xf83       	LFSR	0x00, 0xf83
000bf2   f083
000bf4   cfef     movff   0xfef, 0x000     	MOVFF	INDF0, r0x00
000bf6   f000
000bf8   9a00     bcf     0x00, 0x5, 0x0   	BCF	r0x00, 5
000bfa   ee0f     lfsr    0x0, 0xf83       	LFSR	0x00, 0xf83
000bfc   f083
000bfe   c000     movff   0x000, 0xfef     	MOVFF	r0x00, INDF0
000c00   ffef
                                           ;	.line	179; lcd.c	BitClr(PORTD,D2);	
000c02   ee0f     lfsr    0x0, 0xf83       	LFSR	0x00, 0xf83
000c04   f083
000c06   cfef     movff   0xfef, 0x000     	MOVFF	INDF0, r0x00
000c08   f000
000c0a   9c00     bcf     0x00, 0x6, 0x0   	BCF	r0x00, 6
000c0c   ee0f     lfsr    0x0, 0xf83       	LFSR	0x00, 0xf83
000c0e   f083
000c10   c000     movff   0x000, 0xfef     	MOVFF	r0x00, INDF0
000c12   ffef
                                           ;	.line	180; lcd.c	BitClr(PORTD,D1);
000c14   ee0f     lfsr    0x0, 0xf83       	LFSR	0x00, 0xf83
000c16   f083
000c18   cfef     movff   0xfef, 0x000     	MOVFF	INDF0, r0x00
000c1a   f000
000c1c   9e00     bcf     0x00, 0x7, 0x0   	BCF	r0x00, 7
000c1e   ee0f     lfsr    0x0, 0xf83       	LFSR	0x00, 0xf83
000c20   f083
000c22   c000     movff   0x000, 0xfef     	MOVFF	r0x00, INDF0
000c24   ffef
                                           ;	.line	182; lcd.c	PulsoEN();
000c26   ec6f     call    0x0022de, 0x0    	CALL	_PulsoEN
000c28   f011
                                           ;	.line	184; lcd.c	BitSet(PORTD,D4);
000c2a   ee0f     lfsr    0x0, 0xf83       	LFSR	0x00, 0xf83
000c2c   f083
000c2e   cfef     movff   0xfef, 0x000     	MOVFF	INDF0, r0x00
000c30   f000
000c32   8800     bsf     0x00, 0x4, 0x0   	BSF	r0x00, 4
000c34   ee0f     lfsr    0x0, 0xf83       	LFSR	0x00, 0xf83
000c36   f083
000c38   c000     movff   0x000, 0xfef     	MOVFF	r0x00, INDF0
000c3a   ffef
                                           ;	.line	185; lcd.c	BitSet(PORTD,D3);
000c3c   ee0f     lfsr    0x0, 0xf83       	LFSR	0x00, 0xf83
000c3e   f083
000c40   cfef     movff   0xfef, 0x000     	MOVFF	INDF0, r0x00
000c42   f000
000c44   8a00     bsf     0x00, 0x5, 0x0   	BSF	r0x00, 5
000c46   ee0f     lfsr    0x0, 0xf83       	LFSR	0x00, 0xf83
000c48   f083
000c4a   c000     movff   0x000, 0xfef     	MOVFF	r0x00, INDF0
000c4c   ffef
                                           ;	.line	186; lcd.c	BitSet(PORTD,D2);	
000c4e   ee0f     lfsr    0x0, 0xf83       	LFSR	0x00, 0xf83
000c50   f083
000c52   cfef     movff   0xfef, 0x000     	MOVFF	INDF0, r0x00
000c54   f000
000c56   8c00     bsf     0x00, 0x6, 0x0   	BSF	r0x00, 6
000c58   ee0f     lfsr    0x0, 0xf83       	LFSR	0x00, 0xf83
000c5a   f083
000c5c   c000     movff   0x000, 0xfef     	MOVFF	r0x00, INDF0
000c5e   ffef
                                           ;	.line	187; lcd.c	BitSet(PORTD,D1);
000c60   ee0f     lfsr    0x0, 0xf83       	LFSR	0x00, 0xf83
000c62   f083
000c64   cfef     movff   0xfef, 0x000     	MOVFF	INDF0, r0x00
000c66   f000
000c68   8e00     bsf     0x00, 0x7, 0x0   	BSF	r0x00, 7
000c6a   ee0f     lfsr    0x0, 0xf83       	LFSR	0x00, 0xf83
000c6c   f083
000c6e   c000     movff   0x000, 0xfef     	MOVFF	r0x00, INDF0
000c70   ffef
                                           ;	.line	189; lcd.c	PulsoEN();
000c72   ec6f     call    0x0022de, 0x0    	CALL	_PulsoEN
000c74   f011
                                           ;	.line	193; lcd.c	lcdCommand(0x01); //limpa o display
000c76   0e01     movlw   0x01             	MOVLW	0x01
000c78   6ee5     movwf   0xe5, 0x0        	MOVWF	POSTDEC1
000c7a   ec45     call    0x00108a, 0x0    	CALL	_lcdCommand
000c7c   f008
000c7e   52e6     movf    0xe6, 0x1, 0x0   	MOVF	POSTINC1, F
                                           ;	.line	195; lcd.c	lcdCommand(0x2b); //4bits, 2 linhas, 5x8 tamanho
000c80   0e2b     movlw   0x2b             	MOVLW	0x2b
000c82   6ee5     movwf   0xe5, 0x0        	MOVWF	POSTDEC1
000c84   ec45     call    0x00108a, 0x0    	CALL	_lcdCommand
000c86   f008
000c88   52e6     movf    0xe6, 0x1, 0x0   	MOVF	POSTINC1, F
                                           ;	.line	197; lcd.c	lcdCommand(0x0f); //display on, cursor e blink off
000c8a   0e0f     movlw   0x0f             	MOVLW	0x0f
000c8c   6ee5     movwf   0xe5, 0x0        	MOVWF	POSTDEC1
000c8e   ec45     call    0x00108a, 0x0    	CALL	_lcdCommand
000c90   f008
000c92   52e6     movf    0xe6, 0x1, 0x0   	MOVF	POSTINC1, F
                                           ;	.line	199; lcd.c	lcdCommand(0b00000110);	// Entry mode set: Increment, Shift OFF
000c94   0e06     movlw   0x06             	MOVLW	0x06
000c96   6ee5     movwf   0xe5, 0x0        	MOVWF	POSTDEC1
000c98   ec45     call    0x00108a, 0x0    	CALL	_lcdCommand
000c9a   f008
000c9c   52e6     movf    0xe6, 0x1, 0x0   	MOVF	POSTINC1, F
                                           ;	.line	201; lcd.c	lcdCommand(0b00010100);	// Entry mode set         
000c9e   0e14     movlw   0x14             	MOVLW	0x14
000ca0   6ee5     movwf   0xe5, 0x0        	MOVWF	POSTDEC1
000ca2   ec45     call    0x00108a, 0x0    	CALL	_lcdCommand
000ca4   f008
000ca6   52e6     movf    0xe6, 0x1, 0x0   	MOVF	POSTINC1, F
                                           ;	.line	203; lcd.c	lcdCommand(0x80); // Vai para primeira linha
000ca8   0e80     movlw   0x80             	MOVLW	0x80
000caa   6ee5     movwf   0xe5, 0x0        	MOVWF	POSTDEC1
000cac   ec45     call    0x00108a, 0x0    	CALL	_lcdCommand
000cae   f008
000cb0   52e6     movf    0xe6, 0x1, 0x0   	MOVF	POSTINC1, F
000cb2   cfe4     movff   0xfe4, 0x000     	MOVFF	PREINC1, r0x00
000cb4   f000
000cb6   cfe4     movff   0xfe4, 0xfd9     	MOVFF	PREINC1, FSR2L
000cb8   ffd9
000cba   0012     return  0x0              	RETURN	

                                           ; ; Starting pCode block
                                           S_lcd__lcdCommand	code
                                           _lcdCommand:
                                           ;	.line	71; lcd.c	void lcdCommand(unsigned char cmd)
00108a   cfd9     movff   0xfd9, 0xfe5     	MOVFF	FSR2L, POSTDEC1
00108c   ffe5
00108e   cfe1     movff   0xfe1, 0xfd9     	MOVFF	FSR1L, FSR2L
001090   ffd9
001092   c000     movff   0x000, 0xfe5     	MOVFF	r0x00, POSTDEC1
001094   ffe5
001096   c001     movff   0x001, 0xfe5     	MOVFF	r0x01, POSTDEC1
001098   ffe5
00109a   0e02     movlw   0x02             	MOVLW	0x02
00109c   cfdb     movff   0xfdb, 0x000     	MOVFF	PLUSW2, r0x00
00109e   f000
                                           ;	.line	74; lcd.c	Delay2ms();
0010a0   ec20     call    0x002440, 0x0    	CALL	_Delay2ms
0010a2   f012
                                           ;	.line	76; lcd.c	BitClr(PORTA,RS);
0010a4   ee0f     lfsr    0x0, 0xf80       	LFSR	0x00, 0xf80
0010a6   f080
0010a8   cfef     movff   0xfef, 0x001     	MOVFF	INDF0, r0x01
0010aa   f001
0010ac   9001     bcf     0x01, 0x0, 0x0   	BCF	r0x01, 0
0010ae   ee0f     lfsr    0x0, 0xf80       	LFSR	0x00, 0xf80
0010b0   f080
0010b2   c001     movff   0x001, 0xfef     	MOVFF	r0x01, INDF0
0010b4   ffef
                                           ;	.line	77; lcd.c	BitClr(PORTA,EN);	//comando
0010b6   ee0f     lfsr    0x0, 0xf80       	LFSR	0x00, 0xf80
0010b8   f080
0010ba   cfef     movff   0xfef, 0x001     	MOVFF	INDF0, r0x01
0010bc   f001
0010be   9201     bcf     0x01, 0x1, 0x0   	BCF	r0x01, 1
0010c0   ee0f     lfsr    0x0, 0xf80       	LFSR	0x00, 0xf80
0010c2   f080
0010c4   c001     movff   0x001, 0xfef     	MOVFF	r0x01, INDF0
0010c6   ffef
                                           ;	.line	80; lcd.c	Delay2ms();
0010c8   ec20     call    0x002440, 0x0    	CALL	_Delay2ms
0010ca   f012
                                           ;	.line	83; lcd.c	if(cmd&0b00010000){BitSet(PORTD,D1);}
0010cc   a800     btfss   0x00, 0x4, 0x0   	BTFSS	r0x00, 4
0010ce   d00a     bra     0x0010e4         	BRA	_00129_DS_
0010d0   ee0f     lfsr    0x0, 0xf83       	LFSR	0x00, 0xf83
0010d2   f083
0010d4   cfef     movff   0xfef, 0x001     	MOVFF	INDF0, r0x01
0010d6   f001
0010d8   8e01     bsf     0x01, 0x7, 0x0   	BSF	r0x01, 7
0010da   ee0f     lfsr    0x0, 0xf83       	LFSR	0x00, 0xf83
0010dc   f083
0010de   c001     movff   0x001, 0xfef     	MOVFF	r0x01, INDF0
0010e0   ffef
0010e2   d009     bra     0x0010f6         	BRA	_00130_DS_
                                           _00129_DS_:
                                           ;	.line	84; lcd.c	else {BitClr(PORTD,D1);}
0010e4   ee0f     lfsr    0x0, 0xf83       	LFSR	0x00, 0xf83
0010e6   f083
0010e8   cfef     movff   0xfef, 0x001     	MOVFF	INDF0, r0x01
0010ea   f001
0010ec   9e01     bcf     0x01, 0x7, 0x0   	BCF	r0x01, 7
0010ee   ee0f     lfsr    0x0, 0xf83       	LFSR	0x00, 0xf83
0010f0   f083
0010f2   c001     movff   0x001, 0xfef     	MOVFF	r0x01, INDF0
0010f4   ffef
                                           _00130_DS_:
                                           ;	.line	85; lcd.c	if(cmd&0b00100000){BitSet(PORTD,D2);}
0010f6   aa00     btfss   0x00, 0x5, 0x0   	BTFSS	r0x00, 5
0010f8   d00a     bra     0x00110e         	BRA	_00132_DS_
0010fa   ee0f     lfsr    0x0, 0xf83       	LFSR	0x00, 0xf83
0010fc   f083
0010fe   cfef     movff   0xfef, 0x001     	MOVFF	INDF0, r0x01
001100   f001
001102   8c01     bsf     0x01, 0x6, 0x0   	BSF	r0x01, 6
001104   ee0f     lfsr    0x0, 0xf83       	LFSR	0x00, 0xf83
001106   f083
001108   c001     movff   0x001, 0xfef     	MOVFF	r0x01, INDF0
00110a   ffef
00110c   d009     bra     0x001120         	BRA	_00133_DS_
                                           _00132_DS_:
                                           ;	.line	86; lcd.c	else {BitClr(PORTD,D2);}
00110e   ee0f     lfsr    0x0, 0xf83       	LFSR	0x00, 0xf83
001110   f083
001112   cfef     movff   0xfef, 0x001     	MOVFF	INDF0, r0x01
001114   f001
001116   9c01     bcf     0x01, 0x6, 0x0   	BCF	r0x01, 6
001118   ee0f     lfsr    0x0, 0xf83       	LFSR	0x00, 0xf83
00111a   f083
00111c   c001     movff   0x001, 0xfef     	MOVFF	r0x01, INDF0
00111e   ffef
                                           _00133_DS_:
                                           ;	.line	87; lcd.c	if(cmd&0b01000000){BitSet(PORTD,D3);}
001120   ac00     btfss   0x00, 0x6, 0x0   	BTFSS	r0x00, 6
001122   d00a     bra     0x001138         	BRA	_00135_DS_
001124   ee0f     lfsr    0x0, 0xf83       	LFSR	0x00, 0xf83
001126   f083
001128   cfef     movff   0xfef, 0x001     	MOVFF	INDF0, r0x01
00112a   f001
00112c   8a01     bsf     0x01, 0x5, 0x0   	BSF	r0x01, 5
00112e   ee0f     lfsr    0x0, 0xf83       	LFSR	0x00, 0xf83
001130   f083
001132   c001     movff   0x001, 0xfef     	MOVFF	r0x01, INDF0
001134   ffef
001136   d009     bra     0x00114a         	BRA	_00136_DS_
                                           _00135_DS_:
                                           ;	.line	88; lcd.c	else {BitClr(PORTD,D3);}
001138   ee0f     lfsr    0x0, 0xf83       	LFSR	0x00, 0xf83
00113a   f083
00113c   cfef     movff   0xfef, 0x001     	MOVFF	INDF0, r0x01
00113e   f001
001140   9a01     bcf     0x01, 0x5, 0x0   	BCF	r0x01, 5
001142   ee0f     lfsr    0x0, 0xf83       	LFSR	0x00, 0xf83
001144   f083
001146   c001     movff   0x001, 0xfef     	MOVFF	r0x01, INDF0
001148   ffef
                                           _00136_DS_:
                                           ;	.line	89; lcd.c	if(cmd&0b10000000){BitSet(PORTD,D4);}
00114a   ae00     btfss   0x00, 0x7, 0x0   	BTFSS	r0x00, 7
00114c   d00a     bra     0x001162         	BRA	_00138_DS_
00114e   ee0f     lfsr    0x0, 0xf83       	LFSR	0x00, 0xf83
001150   f083
001152   cfef     movff   0xfef, 0x001     	MOVFF	INDF0, r0x01
001154   f001
001156   8801     bsf     0x01, 0x4, 0x0   	BSF	r0x01, 4
001158   ee0f     lfsr    0x0, 0xf83       	LFSR	0x00, 0xf83
00115a   f083
00115c   c001     movff   0x001, 0xfef     	MOVFF	r0x01, INDF0
00115e   ffef
001160   d009     bra     0x001174         	BRA	_00139_DS_
                                           _00138_DS_:
                                           ;	.line	90; lcd.c	else {BitClr(PORTD,D4);}
001162   ee0f     lfsr    0x0, 0xf83       	LFSR	0x00, 0xf83
001164   f083
001166   cfef     movff   0xfef, 0x001     	MOVFF	INDF0, r0x01
001168   f001
00116a   9801     bcf     0x01, 0x4, 0x0   	BCF	r0x01, 4
00116c   ee0f     lfsr    0x0, 0xf83       	LFSR	0x00, 0xf83
00116e   f083
001170   c001     movff   0x001, 0xfef     	MOVFF	r0x01, INDF0
001172   ffef
                                           _00139_DS_:
                                           ;	.line	91; lcd.c	PulsoEN();
001174   ec6f     call    0x0022de, 0x0    	CALL	_PulsoEN
001176   f011
                                           ;	.line	94; lcd.c	if(cmd&0b00000001){BitSet(PORTD,D1);}
001178   a000     btfss   0x00, 0x0, 0x0   	BTFSS	r0x00, 0
00117a   d00a     bra     0x001190         	BRA	_00141_DS_
00117c   ee0f     lfsr    0x0, 0xf83       	LFSR	0x00, 0xf83
00117e   f083
001180   cfef     movff   0xfef, 0x001     	MOVFF	INDF0, r0x01
001182   f001
001184   8e01     bsf     0x01, 0x7, 0x0   	BSF	r0x01, 7
001186   ee0f     lfsr    0x0, 0xf83       	LFSR	0x00, 0xf83
001188   f083
00118a   c001     movff   0x001, 0xfef     	MOVFF	r0x01, INDF0
00118c   ffef
00118e   d009     bra     0x0011a2         	BRA	_00142_DS_
                                           _00141_DS_:
                                           ;	.line	95; lcd.c	else {BitClr(PORTD,D1);}
001190   ee0f     lfsr    0x0, 0xf83       	LFSR	0x00, 0xf83
001192   f083
001194   cfef     movff   0xfef, 0x001     	MOVFF	INDF0, r0x01
001196   f001
001198   9e01     bcf     0x01, 0x7, 0x0   	BCF	r0x01, 7
00119a   ee0f     lfsr    0x0, 0xf83       	LFSR	0x00, 0xf83
00119c   f083
00119e   c001     movff   0x001, 0xfef     	MOVFF	r0x01, INDF0
0011a0   ffef
                                           _00142_DS_:
                                           ;	.line	96; lcd.c	if(cmd&0b00000010){BitSet(PORTD,D2);}
0011a2   a200     btfss   0x00, 0x1, 0x0   	BTFSS	r0x00, 1
0011a4   d00a     bra     0x0011ba         	BRA	_00144_DS_
0011a6   ee0f     lfsr    0x0, 0xf83       	LFSR	0x00, 0xf83
0011a8   f083
0011aa   cfef     movff   0xfef, 0x001     	MOVFF	INDF0, r0x01
0011ac   f001
0011ae   8c01     bsf     0x01, 0x6, 0x0   	BSF	r0x01, 6
0011b0   ee0f     lfsr    0x0, 0xf83       	LFSR	0x00, 0xf83
0011b2   f083
0011b4   c001     movff   0x001, 0xfef     	MOVFF	r0x01, INDF0
0011b6   ffef
0011b8   d009     bra     0x0011cc         	BRA	_00145_DS_
                                           _00144_DS_:
                                           ;	.line	97; lcd.c	else {BitClr(PORTD,D2);}
0011ba   ee0f     lfsr    0x0, 0xf83       	LFSR	0x00, 0xf83
0011bc   f083
0011be   cfef     movff   0xfef, 0x001     	MOVFF	INDF0, r0x01
0011c0   f001
0011c2   9c01     bcf     0x01, 0x6, 0x0   	BCF	r0x01, 6
0011c4   ee0f     lfsr    0x0, 0xf83       	LFSR	0x00, 0xf83
0011c6   f083
0011c8   c001     movff   0x001, 0xfef     	MOVFF	r0x01, INDF0
0011ca   ffef
                                           _00145_DS_:
                                           ;	.line	98; lcd.c	if(cmd&0b00000100){BitSet(PORTD,D3);}
0011cc   a400     btfss   0x00, 0x2, 0x0   	BTFSS	r0x00, 2
0011ce   d00a     bra     0x0011e4         	BRA	_00147_DS_
0011d0   ee0f     lfsr    0x0, 0xf83       	LFSR	0x00, 0xf83
0011d2   f083
0011d4   cfef     movff   0xfef, 0x001     	MOVFF	INDF0, r0x01
0011d6   f001
0011d8   8a01     bsf     0x01, 0x5, 0x0   	BSF	r0x01, 5
0011da   ee0f     lfsr    0x0, 0xf83       	LFSR	0x00, 0xf83
0011dc   f083
0011de   c001     movff   0x001, 0xfef     	MOVFF	r0x01, INDF0
0011e0   ffef
0011e2   d009     bra     0x0011f6         	BRA	_00148_DS_
                                           _00147_DS_:
                                           ;	.line	99; lcd.c	else {BitClr(PORTD,D3);}
0011e4   ee0f     lfsr    0x0, 0xf83       	LFSR	0x00, 0xf83
0011e6   f083
0011e8   cfef     movff   0xfef, 0x001     	MOVFF	INDF0, r0x01
0011ea   f001
0011ec   9a01     bcf     0x01, 0x5, 0x0   	BCF	r0x01, 5
0011ee   ee0f     lfsr    0x0, 0xf83       	LFSR	0x00, 0xf83
0011f0   f083
0011f2   c001     movff   0x001, 0xfef     	MOVFF	r0x01, INDF0
0011f4   ffef
                                           _00148_DS_:
                                           ;	.line	100; lcd.c	if(cmd&0b00001000){BitSet(PORTD,D4);}
0011f6   a600     btfss   0x00, 0x3, 0x0   	BTFSS	r0x00, 3
0011f8   d00a     bra     0x00120e         	BRA	_00150_DS_
0011fa   ee0f     lfsr    0x0, 0xf83       	LFSR	0x00, 0xf83
0011fc   f083
0011fe   cfef     movff   0xfef, 0x000     	MOVFF	INDF0, r0x00
001200   f000
001202   8800     bsf     0x00, 0x4, 0x0   	BSF	r0x00, 4
001204   ee0f     lfsr    0x0, 0xf83       	LFSR	0x00, 0xf83
001206   f083
001208   c000     movff   0x000, 0xfef     	MOVFF	r0x00, INDF0
00120a   ffef
00120c   d009     bra     0x001220         	BRA	_00151_DS_
                                           _00150_DS_:
                                           ;	.line	101; lcd.c	else {BitClr(PORTD,D4);}
00120e   ee0f     lfsr    0x0, 0xf83       	LFSR	0x00, 0xf83
001210   f083
001212   cfef     movff   0xfef, 0x000     	MOVFF	INDF0, r0x00
001214   f000
001216   9800     bcf     0x00, 0x4, 0x0   	BCF	r0x00, 4
001218   ee0f     lfsr    0x0, 0xf83       	LFSR	0x00, 0xf83
00121a   f083
00121c   c000     movff   0x000, 0xfef     	MOVFF	r0x00, INDF0
00121e   ffef
                                           _00151_DS_:
                                           ;	.line	102; lcd.c	PulsoEN();
001220   ec6f     call    0x0022de, 0x0    	CALL	_PulsoEN
001222   f011
001224   cfe4     movff   0xfe4, 0x001     	MOVFF	PREINC1, r0x01
001226   f001
001228   cfe4     movff   0xfe4, 0x000     	MOVFF	PREINC1, r0x00
00122a   f000
00122c   cfe4     movff   0xfe4, 0xfd9     	MOVFF	PREINC1, FSR2L
00122e   ffd9
001230   0012     return  0x0              	RETURN	

                                           ; ; Starting pCode block
                                           S_lcd__PulsoEN	code
                                           _PulsoEN:
                                           ;	.line	57; lcd.c	void PulsoEN(void)
0022de   cfd9     movff   0xfd9, 0xfe5     	MOVFF	FSR2L, POSTDEC1
0022e0   ffe5
0022e2   cfe1     movff   0xfe1, 0xfd9     	MOVFF	FSR1L, FSR2L
0022e4   ffd9
0022e6   c000     movff   0x000, 0xfe5     	MOVFF	r0x00, POSTDEC1
0022e8   ffe5
                                           ;	.line	59; lcd.c	BitClr(PORTA,EN);
0022ea   ee0f     lfsr    0x0, 0xf80       	LFSR	0x00, 0xf80
0022ec   f080
0022ee   cfef     movff   0xfef, 0x000     	MOVFF	INDF0, r0x00
0022f0   f000
0022f2   9200     bcf     0x00, 0x1, 0x0   	BCF	r0x00, 1
0022f4   ee0f     lfsr    0x0, 0xf80       	LFSR	0x00, 0xf80
0022f6   f080
0022f8   c000     movff   0x000, 0xfef     	MOVFF	r0x00, INDF0
0022fa   ffef
                                           ;	.line	60; lcd.c	Delay2ms();
0022fc   ec20     call    0x002440, 0x0    	CALL	_Delay2ms
0022fe   f012
                                           ;	.line	62; lcd.c	BitSet(PORTA,EN);   //Pulso no Enable
002300   ee0f     lfsr    0x0, 0xf80       	LFSR	0x00, 0xf80
002302   f080
002304   cfef     movff   0xfef, 0x000     	MOVFF	INDF0, r0x00
002306   f000
002308   8200     bsf     0x00, 0x1, 0x0   	BSF	r0x00, 1
00230a   ee0f     lfsr    0x0, 0xf80       	LFSR	0x00, 0xf80
00230c   f080
00230e   c000     movff   0x000, 0xfef     	MOVFF	r0x00, INDF0
002310   ffef
                                           ;	.line	63; lcd.c	Delay2ms();
002312   ec20     call    0x002440, 0x0    	CALL	_Delay2ms
002314   f012
                                           ;	.line	65; lcd.c	BitClr(PORTA,EN);
002316   ee0f     lfsr    0x0, 0xf80       	LFSR	0x00, 0xf80
002318   f080
00231a   cfef     movff   0xfef, 0x000     	MOVFF	INDF0, r0x00
00231c   f000
00231e   9200     bcf     0x00, 0x1, 0x0   	BCF	r0x00, 1
002320   ee0f     lfsr    0x0, 0xf80       	LFSR	0x00, 0xf80
002322   f080
002324   c000     movff   0x000, 0xfef     	MOVFF	r0x00, INDF0
002326   ffef
                                           ;	.line	66; lcd.c	Delay2ms();
002328   ec20     call    0x002440, 0x0    	CALL	_Delay2ms
00232a   f012
00232c   cfe4     movff   0xfe4, 0x000     	MOVFF	PREINC1, r0x00
00232e   f000
002330   cfe4     movff   0xfe4, 0xfd9     	MOVFF	PREINC1, FSR2L
002332   ffd9
002334   0012     return  0x0              	RETURN	

                                           ; ; Starting pCode block
                                           S_lcd__Delay2ms	code
                                           _Delay2ms:
                                           ;	.line	46; lcd.c	void Delay2ms(void)
002440   cfd9     movff   0xfd9, 0xfe5     	MOVFF	FSR2L, POSTDEC1
002442   ffe5
002444   cfe1     movff   0xfe1, 0xfd9     	MOVFF	FSR1L, FSR2L
002446   ffd9
002448   c000     movff   0x000, 0xfe5     	MOVFF	r0x00, POSTDEC1
00244a   ffe5
00244c   c001     movff   0x001, 0xfe5     	MOVFF	r0x01, POSTDEC1
00244e   ffe5
                                           ;	.line	49; lcd.c	for(i=0; i < 10; i++)
002450   0e0a     movlw   0x0a             	MOVLW	0x0a
002452   6e00     movwf   0x00, 0x0        	MOVWF	r0x00
                                           _00117_DS_:
                                           ;	.line	51; lcd.c	Delay40us();
002454   ecc5     call    0x00218a, 0x0    	CALL	_Delay40us
002456   f010
002458   0400     decf    0x00, 0x0, 0x0   	DECF	r0x00, W
00245a   6e01     movwf   0x01, 0x0        	MOVWF	r0x01
00245c   c001     movff   0x001, 0x000     	MOVFF	r0x01, r0x00
00245e   f000
                                           ;	.line	49; lcd.c	for(i=0; i < 10; i++)
002460   5001     movf    0x01, 0x0, 0x0   	MOVF	r0x01, W
002462   e1f8     bnz     0x002454         	BNZ	_00117_DS_
002464   cfe4     movff   0xfe4, 0x001     	MOVFF	PREINC1, r0x01
002466   f001
002468   cfe4     movff   0xfe4, 0x000     	MOVFF	PREINC1, r0x00
00246a   f000
00246c   cfe4     movff   0xfe4, 0xfd9     	MOVFF	PREINC1, FSR2L
00246e   ffd9
002470   0012     return  0x0              	RETURN	

                                           ; ; Starting pCode block
                                           S_lcd__Delay40us	code
                                           _Delay40us:
                                           ;	.line	35; lcd.c	void Delay40us(void){
00218a   cfd9     movff   0xfd9, 0xfe5     	MOVFF	FSR2L, POSTDEC1
00218c   ffe5
00218e   cfe1     movff   0xfe1, 0xfd9     	MOVFF	FSR1L, FSR2L
002190   ffd9
002192   c000     movff   0x000, 0xfe5     	MOVFF	r0x00, POSTDEC1
002194   ffe5
002196   c001     movff   0x001, 0xfe5     	MOVFF	r0x01, POSTDEC1
002198   ffe5
                                           ;	.line	37; lcd.c	for(k=0; k < 25; k++); //valor aproximado
00219a   0e19     movlw   0x19             	MOVLW	0x19
00219c   6e00     movwf   0x00, 0x0        	MOVWF	r0x00
                                           _00108_DS_:
00219e   0400     decf    0x00, 0x0, 0x0   	DECF	r0x00, W
0021a0   6e01     movwf   0x01, 0x0        	MOVWF	r0x01
0021a2   c001     movff   0x001, 0x000     	MOVFF	r0x01, r0x00
0021a4   f000
0021a6   5001     movf    0x01, 0x0, 0x0   	MOVF	r0x01, W
0021a8   e1fa     bnz     0x00219e         	BNZ	_00108_DS_
                                           ;	.line	38; lcd.c	BitSet(PORTA,5);
0021aa   ee0f     lfsr    0x0, 0xf80       	LFSR	0x00, 0xf80
0021ac   f080
0021ae   cfef     movff   0xfef, 0x000     	MOVFF	INDF0, r0x00
0021b0   f000
0021b2   8a00     bsf     0x00, 0x5, 0x0   	BSF	r0x00, 5
0021b4   ee0f     lfsr    0x0, 0xf80       	LFSR	0x00, 0xf80
0021b6   f080
0021b8   c000     movff   0x000, 0xfef     	MOVFF	r0x00, INDF0
0021ba   ffef
                                           ;	.line	39; lcd.c	BitSet(PORTA,4);
0021bc   ee0f     lfsr    0x0, 0xf80       	LFSR	0x00, 0xf80
0021be   f080
0021c0   cfef     movff   0xfef, 0x000     	MOVFF	INDF0, r0x00
0021c2   f000
0021c4   8800     bsf     0x00, 0x4, 0x0   	BSF	r0x00, 4
0021c6   ee0f     lfsr    0x0, 0xf80       	LFSR	0x00, 0xf80
0021c8   f080
0021ca   c000     movff   0x000, 0xfef     	MOVFF	r0x00, INDF0
0021cc   ffef
                                           ;	.line	40; lcd.c	BitClr(PORTA,5);
0021ce   ee0f     lfsr    0x0, 0xf80       	LFSR	0x00, 0xf80
0021d0   f080
0021d2   cfef     movff   0xfef, 0x000     	MOVFF	INDF0, r0x00
0021d4   f000
0021d6   9a00     bcf     0x00, 0x5, 0x0   	BCF	r0x00, 5
0021d8   ee0f     lfsr    0x0, 0xf80       	LFSR	0x00, 0xf80
0021da   f080
0021dc   c000     movff   0x000, 0xfef     	MOVFF	r0x00, INDF0
0021de   ffef
                                           ;	.line	41; lcd.c	BitClr(PORTA,4);
0021e0   ee0f     lfsr    0x0, 0xf80       	LFSR	0x00, 0xf80
0021e2   f080
0021e4   cfef     movff   0xfef, 0x000     	MOVFF	INDF0, r0x00
0021e6   f000
0021e8   9800     bcf     0x00, 0x4, 0x0   	BCF	r0x00, 4
0021ea   ee0f     lfsr    0x0, 0xf80       	LFSR	0x00, 0xf80
0021ec   f080
0021ee   c000     movff   0x000, 0xfef     	MOVFF	r0x00, INDF0
0021f0   ffef
0021f2   cfe4     movff   0xfe4, 0x001     	MOVFF	PREINC1, r0x01
0021f4   f001
0021f6   cfe4     movff   0xfe4, 0x000     	MOVFF	PREINC1, r0x00
0021f8   f000
0021fa   cfe4     movff   0xfe4, 0xfd9     	MOVFF	PREINC1, FSR2L
0021fc   ffd9
0021fe   0012     return  0x0              	RETURN	



                                           ; Statistics:
                                           ; code size:	 2190 (0x088e) bytes ( 1.67%)
                                           ;           	 1095 (0x0447) words
                                           ; udata size:	    0 (0x0000) bytes ( 0.00%)
                                           ; access size:	    7 (0x0007) bytes


                                           	end
                                           ;--------------------------------------------------------
                                           ; File Created by SDCC : free open source ANSI-C Compiler
                                           ; Version 3.6.0 #9615 (MINGW64)
                                           ;--------------------------------------------------------
                                           ; PIC16 port for the Microchip 16-bit core micros
                                           ;--------------------------------------------------------
                                           	list	p=18f4550
                                           	radix	dec


                                           ;--------------------------------------------------------
                                           ; public variables in this module
                                           ;--------------------------------------------------------
                                           	global	_pwmSet1
                                           	global	_pwmSet2
                                           	global	_pwmFrequency
                                           	global	_pwmInit

                                           ;--------------------------------------------------------
                                           ; extern variables in this module
                                           ;--------------------------------------------------------
                                           	extern	__mulint
                                           	extern	__divuint
                                           	extern	__divslong

                                           ;--------------------------------------------------------
                                           ;	Equates to used internal registers
                                           ;--------------------------------------------------------
                                           STATUS	equ	0xfd8
                                           FSR0L	equ	0xfe9
                                           FSR1L	equ	0xfe1
                                           FSR2L	equ	0xfd9
                                           INDF0	equ	0xfef
                                           POSTDEC1	equ	0xfe5
                                           PREINC1	equ	0xfe4
                                           PLUSW2	equ	0xfdb
                                           PRODL	equ	0xff3
                                           PRODH	equ	0xff4


                                           ; Internal registers
                                           .registers	udata_ovr	0x0000
                                           r0x00	res	1
                                           r0x01	res	1
                                           r0x02	res	1
                                           r0x03	res	1

                                           ;--------------------------------------------------------
                                           ; global & static initialisations
                                           ;--------------------------------------------------------
                                           ; I code from now on!
                                           ; ; Starting pCode block
                                           S_pwm__pwmInit	code
                                           _pwmInit:
                                           ;	.line	59; pwm.c	void pwmInit(void)
002084   cfd9     movff   0xfd9, 0xfe5     	MOVFF	FSR2L, POSTDEC1
002086   ffe5
002088   cfe1     movff   0xfe1, 0xfd9     	MOVFF	FSR1L, FSR2L
00208a   ffd9
00208c   c000     movff   0x000, 0xfe5     	MOVFF	r0x00, POSTDEC1
00208e   ffe5
                                           ;	.line	61; pwm.c	BitClr(TRISC,1);//configura os pinos correspondentes como saídas
002090   ee0f     lfsr    0x0, 0xf94       	LFSR	0x00, 0xf94
002092   f094
002094   cfef     movff   0xfef, 0x000     	MOVFF	INDF0, r0x00
002096   f000
002098   9200     bcf     0x00, 0x1, 0x0   	BCF	r0x00, 1
00209a   ee0f     lfsr    0x0, 0xf94       	LFSR	0x00, 0xf94
00209c   f094
00209e   c000     movff   0x000, 0xfef     	MOVFF	r0x00, INDF0
0020a0   ffef
                                           ;	.line	62; pwm.c	BitClr(TRISC,2);
0020a2   ee0f     lfsr    0x0, 0xf94       	LFSR	0x00, 0xf94
0020a4   f094
0020a6   cfef     movff   0xfef, 0x000     	MOVFF	INDF0, r0x00
0020a8   f000
0020aa   9400     bcf     0x00, 0x2, 0x0   	BCF	r0x00, 2
0020ac   ee0f     lfsr    0x0, 0xf94       	LFSR	0x00, 0xf94
0020ae   f094
0020b0   c000     movff   0x000, 0xfef     	MOVFF	r0x00, INDF0
0020b2   ffef
                                           ;	.line	64; pwm.c	T2CON |= 0b00000011; //configura o prescale do timer 2 para 1:16
0020b4   ee0f     lfsr    0x0, 0xfca       	LFSR	0x00, 0xfca
0020b6   f0ca
0020b8   cfef     movff   0xfef, 0x000     	MOVFF	INDF0, r0x00
0020ba   f000
0020bc   0e03     movlw   0x03             	MOVLW	0x03
0020be   1200     iorwf   0x00, 0x1, 0x0   	IORWF	r0x00, F
0020c0   ee0f     lfsr    0x0, 0xfca       	LFSR	0x00, 0xfca
0020c2   f0ca
0020c4   c000     movff   0x000, 0xfef     	MOVFF	r0x00, INDF0
0020c6   ffef
                                           ;	.line	65; pwm.c	BitSet(T2CON,2); //Liga o timer 2
0020c8   ee0f     lfsr    0x0, 0xfca       	LFSR	0x00, 0xfca
0020ca   f0ca
0020cc   cfef     movff   0xfef, 0x000     	MOVFF	INDF0, r0x00
0020ce   f000
0020d0   8400     bsf     0x00, 0x2, 0x0   	BSF	r0x00, 2
0020d2   ee0f     lfsr    0x0, 0xfca       	LFSR	0x00, 0xfca
0020d4   f0ca
0020d6   c000     movff   0x000, 0xfef     	MOVFF	r0x00, INDF0
0020d8   ffef
                                           ;	.line	68; pwm.c	CCP1CON |= 0b00001100;	//configura CCP1 como um PWM
0020da   ee0f     lfsr    0x0, 0xfbd       	LFSR	0x00, 0xfbd
0020dc   f0bd
0020de   cfef     movff   0xfef, 0x000     	MOVFF	INDF0, r0x00
0020e0   f000
0020e2   0e0c     movlw   0x0c             	MOVLW	0x0c
0020e4   1200     iorwf   0x00, 0x1, 0x0   	IORWF	r0x00, F
0020e6   ee0f     lfsr    0x0, 0xfbd       	LFSR	0x00, 0xfbd
0020e8   f0bd
0020ea   c000     movff   0x000, 0xfef     	MOVFF	r0x00, INDF0
0020ec   ffef
                                           ;	.line	69; pwm.c	CCP2CON |= 0b00001100;	//configura CCP2 como um PWM
0020ee   ee0f     lfsr    0x0, 0xfba       	LFSR	0x00, 0xfba
0020f0   f0ba
0020f2   cfef     movff   0xfef, 0x000     	MOVFF	INDF0, r0x00
0020f4   f000
0020f6   0e0c     movlw   0x0c             	MOVLW	0x0c
0020f8   1200     iorwf   0x00, 0x1, 0x0   	IORWF	r0x00, F
0020fa   ee0f     lfsr    0x0, 0xfba       	LFSR	0x00, 0xfba
0020fc   f0ba
0020fe   c000     movff   0x000, 0xfef     	MOVFF	r0x00, INDF0
002100   ffef
002102   cfe4     movff   0xfe4, 0x000     	MOVFF	PREINC1, r0x00
002104   f000
002106   cfe4     movff   0xfe4, 0xfd9     	MOVFF	PREINC1, FSR2L
002108   ffd9
00210a   0012     return  0x0              	RETURN	

                                           ; ; Starting pCode block
                                           S_pwm__pwmFrequency	code
                                           _pwmFrequency:
                                           ;	.line	52; pwm.c	void pwmFrequency(unsigned int freq)
00210c   cfd9     movff   0xfd9, 0xfe5     	MOVFF	FSR2L, POSTDEC1
00210e   ffe5
002110   cfe1     movff   0xfe1, 0xfd9     	MOVFF	FSR1L, FSR2L
002112   ffd9
002114   c000     movff   0x000, 0xfe5     	MOVFF	r0x00, POSTDEC1
002116   ffe5
002118   c001     movff   0x001, 0xfe5     	MOVFF	r0x01, POSTDEC1
00211a   ffe5
00211c   c002     movff   0x002, 0xfe5     	MOVFF	r0x02, POSTDEC1
00211e   ffe5
002120   c003     movff   0x003, 0xfe5     	MOVFF	r0x03, POSTDEC1
002122   ffe5
002124   0e02     movlw   0x02             	MOVLW	0x02
002126   cfdb     movff   0xfdb, 0x000     	MOVFF	PLUSW2, r0x00
002128   f000
00212a   0e03     movlw   0x03             	MOVLW	0x03
00212c   cfdb     movff   0xfdb, 0x001     	MOVFF	PLUSW2, r0x01
00212e   f001
                                           ;	.line	56; pwm.c	PR2 = (125000/(freq)) - 1;
002130   6a02     clrf    0x02, 0x0        	CLRF	r0x02
002132   6a03     clrf    0x03, 0x0        	CLRF	r0x03
002134   5003     movf    0x03, 0x0, 0x0   	MOVF	r0x03, W
002136   6ee5     movwf   0xe5, 0x0        	MOVWF	POSTDEC1
002138   5002     movf    0x02, 0x0, 0x0   	MOVF	r0x02, W
00213a   6ee5     movwf   0xe5, 0x0        	MOVWF	POSTDEC1
00213c   5001     movf    0x01, 0x0, 0x0   	MOVF	r0x01, W
00213e   6ee5     movwf   0xe5, 0x0        	MOVWF	POSTDEC1
002140   5000     movf    0x00, 0x0, 0x0   	MOVF	r0x00, W
002142   6ee5     movwf   0xe5, 0x0        	MOVWF	POSTDEC1
002144   0e00     movlw   0x00             	MOVLW	0x00
002146   6ee5     movwf   0xe5, 0x0        	MOVWF	POSTDEC1
002148   0e01     movlw   0x01             	MOVLW	0x01
00214a   6ee5     movwf   0xe5, 0x0        	MOVWF	POSTDEC1
00214c   0ee8     movlw   0xe8             	MOVLW	0xe8
00214e   6ee5     movwf   0xe5, 0x0        	MOVWF	POSTDEC1
002150   0e48     movlw   0x48             	MOVLW	0x48
002152   6ee5     movwf   0xe5, 0x0        	MOVWF	POSTDEC1
002154   ec19     call    0x001232, 0x0    	CALL	__divslong
002156   f009
002158   6e00     movwf   0x00, 0x0        	MOVWF	r0x00
00215a   cff3     movff   0xff3, 0x001     	MOVFF	PRODL, r0x01
00215c   f001
00215e   cff4     movff   0xff4, 0x002     	MOVFF	PRODH, r0x02
002160   f002
002162   cfe9     movff   0xfe9, 0x003     	MOVFF	FSR0L, r0x03
002164   f003
002166   0e08     movlw   0x08             	MOVLW	0x08
002168   26e1     addwf   0xe1, 0x1, 0x0   	ADDWF	FSR1L, F
00216a   0600     decf    0x00, 0x1, 0x0   	DECF	r0x00, F
00216c   ee0f     lfsr    0x0, 0xfcb       	LFSR	0x00, 0xfcb
00216e   f0cb
002170   c000     movff   0x000, 0xfef     	MOVFF	r0x00, INDF0
002172   ffef
002174   cfe4     movff   0xfe4, 0x003     	MOVFF	PREINC1, r0x03
002176   f003
002178   cfe4     movff   0xfe4, 0x002     	MOVFF	PREINC1, r0x02
00217a   f002
00217c   cfe4     movff   0xfe4, 0x001     	MOVFF	PREINC1, r0x01
00217e   f001
002180   cfe4     movff   0xfe4, 0x000     	MOVFF	PREINC1, r0x00
002182   f000
002184   cfe4     movff   0xfe4, 0xfd9     	MOVFF	PREINC1, FSR2L
002186   ffd9
002188   0012     return  0x0              	RETURN	

                                           ; ; Starting pCode block
                                           S_pwm__pwmSet2	code
                                           _pwmSet2:
                                           ;	.line	40; pwm.c	void pwmSet2(unsigned char porcento)
001a20   cfd9     movff   0xfd9, 0xfe5     	MOVFF	FSR2L, POSTDEC1
001a22   ffe5
001a24   cfe1     movff   0xfe1, 0xfd9     	MOVFF	FSR1L, FSR2L
001a26   ffd9
001a28   c000     movff   0x000, 0xfe5     	MOVFF	r0x00, POSTDEC1
001a2a   ffe5
001a2c   c001     movff   0x001, 0xfe5     	MOVFF	r0x01, POSTDEC1
001a2e   ffe5
001a30   c002     movff   0x002, 0xfe5     	MOVFF	r0x02, POSTDEC1
001a32   ffe5
001a34   c003     movff   0x003, 0xfe5     	MOVFF	r0x03, POSTDEC1
001a36   ffe5
001a38   0e02     movlw   0x02             	MOVLW	0x02
001a3a   cfdb     movff   0xfdb, 0x000     	MOVFF	PLUSW2, r0x00
001a3c   f000
                                           ;	.line	42; pwm.c	unsigned int val = ((unsigned int)porcento) *(PR2+1);
001a3e   6a01     clrf    0x01, 0x0        	CLRF	r0x01
001a40   ee0f     lfsr    0x0, 0xfcb       	LFSR	0x00, 0xfcb
001a42   f0cb
001a44   cfef     movff   0xfef, 0x002     	MOVFF	INDF0, r0x02
001a46   f002
001a48   6a03     clrf    0x03, 0x0        	CLRF	r0x03
001a4a   4a02     infsnz  0x02, 0x1, 0x0   	INFSNZ	r0x02, F
001a4c   2a03     incf    0x03, 0x1, 0x0   	INCF	r0x03, F
001a4e   5003     movf    0x03, 0x0, 0x0   	MOVF	r0x03, W
001a50   6ee5     movwf   0xe5, 0x0        	MOVWF	POSTDEC1
001a52   5002     movf    0x02, 0x0, 0x0   	MOVF	r0x02, W
001a54   6ee5     movwf   0xe5, 0x0        	MOVWF	POSTDEC1
001a56   5001     movf    0x01, 0x0, 0x0   	MOVF	r0x01, W
001a58   6ee5     movwf   0xe5, 0x0        	MOVWF	POSTDEC1
001a5a   5000     movf    0x00, 0x0, 0x0   	MOVF	r0x00, W
001a5c   6ee5     movwf   0xe5, 0x0        	MOVWF	POSTDEC1
001a5e   ecd7     call    0x001dae, 0x0    	CALL	__mulint
001a60   f00e
001a62   6e00     movwf   0x00, 0x0        	MOVWF	r0x00
001a64   cff3     movff   0xff3, 0x001     	MOVFF	PRODL, r0x01
001a66   f001
001a68   0e04     movlw   0x04             	MOVLW	0x04
001a6a   26e1     addwf   0xe1, 0x1, 0x0   	ADDWF	FSR1L, F
                                           ;	.line	43; pwm.c	val /= 25;
001a6c   0e00     movlw   0x00             	MOVLW	0x00
001a6e   6ee5     movwf   0xe5, 0x0        	MOVWF	POSTDEC1
001a70   0e19     movlw   0x19             	MOVLW	0x19
001a72   6ee5     movwf   0xe5, 0x0        	MOVWF	POSTDEC1
001a74   5001     movf    0x01, 0x0, 0x0   	MOVF	r0x01, W
001a76   6ee5     movwf   0xe5, 0x0        	MOVWF	POSTDEC1
001a78   5000     movf    0x00, 0x0, 0x0   	MOVF	r0x00, W
001a7a   6ee5     movwf   0xe5, 0x0        	MOVWF	POSTDEC1
001a7c   ec29     call    0x001c52, 0x0    	CALL	__divuint
001a7e   f00e
001a80   6e00     movwf   0x00, 0x0        	MOVWF	r0x00
001a82   cff3     movff   0xff3, 0x001     	MOVFF	PRODL, r0x01
001a84   f001
001a86   0e04     movlw   0x04             	MOVLW	0x04
001a88   26e1     addwf   0xe1, 0x1, 0x0   	ADDWF	FSR1L, F
                                           ;	.line	45; pwm.c	val &= 0x03ff;
001a8a   0e03     movlw   0x03             	MOVLW	0x03
001a8c   1601     andwf   0x01, 0x1, 0x0   	ANDWF	r0x01, F
                                           ;	.line	47; pwm.c	CCPR2L = val >> 2;
001a8e   90d8     bcf     0xd8, 0x0, 0x0   	BCF	STATUS, 0
001a90   3001     rrcf    0x01, 0x0, 0x0   	RRCF	r0x01, W
001a92   6e03     movwf   0x03, 0x0        	MOVWF	r0x03
001a94   3000     rrcf    0x00, 0x0, 0x0   	RRCF	r0x00, W
001a96   6e02     movwf   0x02, 0x0        	MOVWF	r0x02
001a98   90d8     bcf     0xd8, 0x0, 0x0   	BCF	STATUS, 0
001a9a   3203     rrcf    0x03, 0x1, 0x0   	RRCF	r0x03, F
001a9c   3202     rrcf    0x02, 0x1, 0x0   	RRCF	r0x02, F
001a9e   ee0f     lfsr    0x0, 0xfbb       	LFSR	0x00, 0xfbb
001aa0   f0bb
001aa2   c002     movff   0x002, 0xfef     	MOVFF	r0x02, INDF0
001aa4   ffef
                                           ;	.line	49; pwm.c	CCP2CON |= (val & 0x0003) << 4;
001aa6   ee0f     lfsr    0x0, 0xfba       	LFSR	0x00, 0xfba
001aa8   f0ba
001aaa   cfef     movff   0xfef, 0x002     	MOVFF	INDF0, r0x02
001aac   f002
001aae   0e03     movlw   0x03             	MOVLW	0x03
001ab0   1600     andwf   0x00, 0x1, 0x0   	ANDWF	r0x00, F
001ab2   6a01     clrf    0x01, 0x0        	CLRF	r0x01
001ab4   3800     swapf   0x00, 0x0, 0x0   	SWAPF	r0x00, W
001ab6   0bf0     andlw   0xf0             	ANDLW	0xf0
001ab8   6e01     movwf   0x01, 0x0        	MOVWF	r0x01
001aba   5001     movf    0x01, 0x0, 0x0   	MOVF	r0x01, W
001abc   1202     iorwf   0x02, 0x1, 0x0   	IORWF	r0x02, F
001abe   ee0f     lfsr    0x0, 0xfba       	LFSR	0x00, 0xfba
001ac0   f0ba
001ac2   c002     movff   0x002, 0xfef     	MOVFF	r0x02, INDF0
001ac4   ffef
001ac6   cfe4     movff   0xfe4, 0x003     	MOVFF	PREINC1, r0x03
001ac8   f003
001aca   cfe4     movff   0xfe4, 0x002     	MOVFF	PREINC1, r0x02
001acc   f002
001ace   cfe4     movff   0xfe4, 0x001     	MOVFF	PREINC1, r0x01
001ad0   f001
001ad2   cfe4     movff   0xfe4, 0x000     	MOVFF	PREINC1, r0x00
001ad4   f000
001ad6   cfe4     movff   0xfe4, 0xfd9     	MOVFF	PREINC1, FSR2L
001ad8   ffd9
001ada   0012     return  0x0              	RETURN	

                                           ; ; Starting pCode block
                                           S_pwm__pwmSet1	code
                                           _pwmSet1:
                                           ;	.line	23; pwm.c	void pwmSet1(unsigned char porcento)
001adc   cfd9     movff   0xfd9, 0xfe5     	MOVFF	FSR2L, POSTDEC1
001ade   ffe5
001ae0   cfe1     movff   0xfe1, 0xfd9     	MOVFF	FSR1L, FSR2L
001ae2   ffd9
001ae4   c000     movff   0x000, 0xfe5     	MOVFF	r0x00, POSTDEC1
001ae6   ffe5
001ae8   c001     movff   0x001, 0xfe5     	MOVFF	r0x01, POSTDEC1
001aea   ffe5
001aec   c002     movff   0x002, 0xfe5     	MOVFF	r0x02, POSTDEC1
001aee   ffe5
001af0   c003     movff   0x003, 0xfe5     	MOVFF	r0x03, POSTDEC1
001af2   ffe5
001af4   0e02     movlw   0x02             	MOVLW	0x02
001af6   cfdb     movff   0xfdb, 0x000     	MOVFF	PLUSW2, r0x00
001af8   f000
                                           ;	.line	30; pwm.c	unsigned int val = ((unsigned int)porcento) *(PR2+1);
001afa   6a01     clrf    0x01, 0x0        	CLRF	r0x01
001afc   ee0f     lfsr    0x0, 0xfcb       	LFSR	0x00, 0xfcb
001afe   f0cb
001b00   cfef     movff   0xfef, 0x002     	MOVFF	INDF0, r0x02
001b02   f002
001b04   6a03     clrf    0x03, 0x0        	CLRF	r0x03
001b06   4a02     infsnz  0x02, 0x1, 0x0   	INFSNZ	r0x02, F
001b08   2a03     incf    0x03, 0x1, 0x0   	INCF	r0x03, F
001b0a   5003     movf    0x03, 0x0, 0x0   	MOVF	r0x03, W
001b0c   6ee5     movwf   0xe5, 0x0        	MOVWF	POSTDEC1
001b0e   5002     movf    0x02, 0x0, 0x0   	MOVF	r0x02, W
001b10   6ee5     movwf   0xe5, 0x0        	MOVWF	POSTDEC1
001b12   5001     movf    0x01, 0x0, 0x0   	MOVF	r0x01, W
001b14   6ee5     movwf   0xe5, 0x0        	MOVWF	POSTDEC1
001b16   5000     movf    0x00, 0x0, 0x0   	MOVF	r0x00, W
001b18   6ee5     movwf   0xe5, 0x0        	MOVWF	POSTDEC1
001b1a   ecd7     call    0x001dae, 0x0    	CALL	__mulint
001b1c   f00e
001b1e   6e00     movwf   0x00, 0x0        	MOVWF	r0x00
001b20   cff3     movff   0xff3, 0x001     	MOVFF	PRODL, r0x01
001b22   f001
001b24   0e04     movlw   0x04             	MOVLW	0x04
001b26   26e1     addwf   0xe1, 0x1, 0x0   	ADDWF	FSR1L, F
                                           ;	.line	31; pwm.c	val = val / 25;
001b28   0e00     movlw   0x00             	MOVLW	0x00
001b2a   6ee5     movwf   0xe5, 0x0        	MOVWF	POSTDEC1
001b2c   0e19     movlw   0x19             	MOVLW	0x19
001b2e   6ee5     movwf   0xe5, 0x0        	MOVWF	POSTDEC1
001b30   5001     movf    0x01, 0x0, 0x0   	MOVF	r0x01, W
001b32   6ee5     movwf   0xe5, 0x0        	MOVWF	POSTDEC1
001b34   5000     movf    0x00, 0x0, 0x0   	MOVF	r0x00, W
001b36   6ee5     movwf   0xe5, 0x0        	MOVWF	POSTDEC1
001b38   ec29     call    0x001c52, 0x0    	CALL	__divuint
001b3a   f00e
001b3c   6e00     movwf   0x00, 0x0        	MOVWF	r0x00
001b3e   cff3     movff   0xff3, 0x001     	MOVFF	PRODL, r0x01
001b40   f001
001b42   0e04     movlw   0x04             	MOVLW	0x04
001b44   26e1     addwf   0xe1, 0x1, 0x0   	ADDWF	FSR1L, F
                                           ;	.line	33; pwm.c	val &= 0x03ff;
001b46   0e03     movlw   0x03             	MOVLW	0x03
001b48   1601     andwf   0x01, 0x1, 0x0   	ANDWF	r0x01, F
                                           ;	.line	35; pwm.c	CCPR1L = val >> 2;
001b4a   90d8     bcf     0xd8, 0x0, 0x0   	BCF	STATUS, 0
001b4c   3001     rrcf    0x01, 0x0, 0x0   	RRCF	r0x01, W
001b4e   6e03     movwf   0x03, 0x0        	MOVWF	r0x03
001b50   3000     rrcf    0x00, 0x0, 0x0   	RRCF	r0x00, W
001b52   6e02     movwf   0x02, 0x0        	MOVWF	r0x02
001b54   90d8     bcf     0xd8, 0x0, 0x0   	BCF	STATUS, 0
001b56   3203     rrcf    0x03, 0x1, 0x0   	RRCF	r0x03, F
001b58   3202     rrcf    0x02, 0x1, 0x0   	RRCF	r0x02, F
001b5a   ee0f     lfsr    0x0, 0xfbe       	LFSR	0x00, 0xfbe
001b5c   f0be
001b5e   c002     movff   0x002, 0xfef     	MOVFF	r0x02, INDF0
001b60   ffef
                                           ;	.line	37; pwm.c	CCP1CON |= (val & 0x0003) << 4;
001b62   ee0f     lfsr    0x0, 0xfbd       	LFSR	0x00, 0xfbd
001b64   f0bd
001b66   cfef     movff   0xfef, 0x002     	MOVFF	INDF0, r0x02
001b68   f002
001b6a   0e03     movlw   0x03             	MOVLW	0x03
001b6c   1600     andwf   0x00, 0x1, 0x0   	ANDWF	r0x00, F
001b6e   6a01     clrf    0x01, 0x0        	CLRF	r0x01
001b70   3800     swapf   0x00, 0x0, 0x0   	SWAPF	r0x00, W
001b72   0bf0     andlw   0xf0             	ANDLW	0xf0
001b74   6e01     movwf   0x01, 0x0        	MOVWF	r0x01
001b76   5001     movf    0x01, 0x0, 0x0   	MOVF	r0x01, W
001b78   1202     iorwf   0x02, 0x1, 0x0   	IORWF	r0x02, F
001b7a   ee0f     lfsr    0x0, 0xfbd       	LFSR	0x00, 0xfbd
001b7c   f0bd
001b7e   c002     movff   0x002, 0xfef     	MOVFF	r0x02, INDF0
001b80   ffef
001b82   cfe4     movff   0xfe4, 0x003     	MOVFF	PREINC1, r0x03
001b84   f003
001b86   cfe4     movff   0xfe4, 0x002     	MOVFF	PREINC1, r0x02
001b88   f002
001b8a   cfe4     movff   0xfe4, 0x001     	MOVFF	PREINC1, r0x01
001b8c   f001
001b8e   cfe4     movff   0xfe4, 0x000     	MOVFF	PREINC1, r0x00
001b90   f000
001b92   cfe4     movff   0xfe4, 0xfd9     	MOVFF	PREINC1, FSR2L
001b94   ffd9
001b96   0012     return  0x0              	RETURN	



                                           ; Statistics:
                                           ; code size:	  638 (0x027e) bytes ( 0.49%)
                                           ;           	  319 (0x013f) words
                                           ; udata size:	    0 (0x0000) bytes ( 0.00%)
                                           ; access size:	    4 (0x0004) bytes


                                           	end
                                           ;--------------------------------------------------------
                                           ; File Created by SDCC : free open source ANSI-C Compiler
                                           ; Version 3.6.0 #9615 (MINGW64)
                                           ;--------------------------------------------------------
                                           ; PIC16 port for the Microchip 16-bit core micros
                                           ;--------------------------------------------------------
                                           	list	p=18f4550
                                           	radix	dec


                                           ;--------------------------------------------------------
                                           ; public variables in this module
                                           ;--------------------------------------------------------
                                           	global	_dac_i2c

                                           ;--------------------------------------------------------
                                           ; extern variables in this module
                                           ;--------------------------------------------------------
                                           	extern	_I2C_Start
                                           	extern	_I2C_Stop
                                           	extern	_I2C_Send

                                           ;--------------------------------------------------------
                                           ;	Equates to used internal registers
                                           ;--------------------------------------------------------
                                           FSR1L	equ	0xfe1
                                           FSR2L	equ	0xfd9
                                           POSTINC1	equ	0xfe6
                                           POSTDEC1	equ	0xfe5
                                           PREINC1	equ	0xfe4
                                           PLUSW2	equ	0xfdb


                                           ; Internal registers
                                           .registers	udata_ovr	0x0000
                                           r0x00	res	1
                                           r0x01	res	1
                                           r0x02	res	1
                                           r0x03	res	1

                                           ;--------------------------------------------------------
                                           ; global & static initialisations
                                           ;--------------------------------------------------------
                                           ; I code from now on!
                                           ; ; Starting pCode block
                                           S_dac__dac_i2c	code
                                           _dac_i2c:
                                           ;	.line	3; dac.c	void dac_i2c(unsigned int sample){
001e4e   cfd9     movff   0xfd9, 0xfe5     	MOVFF	FSR2L, POSTDEC1
001e50   ffe5
001e52   cfe1     movff   0xfe1, 0xfd9     	MOVFF	FSR1L, FSR2L
001e54   ffd9
001e56   c000     movff   0x000, 0xfe5     	MOVFF	r0x00, POSTDEC1
001e58   ffe5
001e5a   c001     movff   0x001, 0xfe5     	MOVFF	r0x01, POSTDEC1
001e5c   ffe5
001e5e   c002     movff   0x002, 0xfe5     	MOVFF	r0x02, POSTDEC1
001e60   ffe5
001e62   c003     movff   0x003, 0xfe5     	MOVFF	r0x03, POSTDEC1
001e64   ffe5
001e66   0e02     movlw   0x02             	MOVLW	0x02
001e68   cfdb     movff   0xfdb, 0x000     	MOVFF	PLUSW2, r0x00
001e6a   f000
001e6c   0e03     movlw   0x03             	MOVLW	0x03
001e6e   cfdb     movff   0xfdb, 0x001     	MOVFF	PLUSW2, r0x01
001e70   f001
                                           ;	.line	4; dac.c	I2C_Start();    
001e72   ecd0     call    0x0025a0, 0x0    	CALL	_I2C_Start
001e74   f012
                                           ;	.line	5; dac.c	I2C_Send(0xC0);
001e76   0ec0     movlw   0xc0             	MOVLW	0xc0
001e78   6ee5     movwf   0xe5, 0x0        	MOVWF	POSTDEC1
001e7a   ec03     call    0x002606, 0x0    	CALL	_I2C_Send
001e7c   f013
001e7e   52e6     movf    0xe6, 0x1, 0x0   	MOVF	POSTINC1, F
                                           ;	.line	6; dac.c	I2C_Send(0x40);
001e80   0e40     movlw   0x40             	MOVLW	0x40
001e82   6ee5     movwf   0xe5, 0x0        	MOVWF	POSTDEC1
001e84   ec03     call    0x002606, 0x0    	CALL	_I2C_Send
001e86   f013
001e88   52e6     movf    0xe6, 0x1, 0x0   	MOVF	POSTINC1, F
                                           ;	.line	7; dac.c	I2C_Send((sample & 0xFF0) >> 4);
001e8a   0ef0     movlw   0xf0             	MOVLW	0xf0
001e8c   1400     andwf   0x00, 0x0, 0x0   	ANDWF	r0x00, W
001e8e   6e02     movwf   0x02, 0x0        	MOVWF	r0x02
001e90   0e0f     movlw   0x0f             	MOVLW	0x0f
001e92   1401     andwf   0x01, 0x0, 0x0   	ANDWF	r0x01, W
001e94   6e03     movwf   0x03, 0x0        	MOVWF	r0x03
001e96   0ef0     movlw   0xf0             	MOVLW	0xf0
001e98   1602     andwf   0x02, 0x1, 0x0   	ANDWF	r0x02, F
001e9a   3a02     swapf   0x02, 0x1, 0x0   	SWAPF	r0x02, F
001e9c   3a03     swapf   0x03, 0x1, 0x0   	SWAPF	r0x03, F
001e9e   1403     andwf   0x03, 0x0, 0x0   	ANDWF	r0x03, W
001ea0   1a03     xorwf   0x03, 0x1, 0x0   	XORWF	r0x03, F
001ea2   2602     addwf   0x02, 0x1, 0x0   	ADDWF	r0x02, F
001ea4   5002     movf    0x02, 0x0, 0x0   	MOVF	r0x02, W
001ea6   6ee5     movwf   0xe5, 0x0        	MOVWF	POSTDEC1
001ea8   ec03     call    0x002606, 0x0    	CALL	_I2C_Send
001eaa   f013
001eac   52e6     movf    0xe6, 0x1, 0x0   	MOVF	POSTINC1, F
                                           ;	.line	8; dac.c	I2C_Send((sample & 0xF) << 4);
001eae   0e0f     movlw   0x0f             	MOVLW	0x0f
001eb0   1600     andwf   0x00, 0x1, 0x0   	ANDWF	r0x00, F
001eb2   6a01     clrf    0x01, 0x0        	CLRF	r0x01
001eb4   3800     swapf   0x00, 0x0, 0x0   	SWAPF	r0x00, W
001eb6   0bf0     andlw   0xf0             	ANDLW	0xf0
001eb8   6e01     movwf   0x01, 0x0        	MOVWF	r0x01
001eba   5001     movf    0x01, 0x0, 0x0   	MOVF	r0x01, W
001ebc   6ee5     movwf   0xe5, 0x0        	MOVWF	POSTDEC1
001ebe   ec03     call    0x002606, 0x0    	CALL	_I2C_Send
001ec0   f013
001ec2   52e6     movf    0xe6, 0x1, 0x0   	MOVF	POSTINC1, F
                                           ;	.line	9; dac.c	I2C_Stop();
001ec4   ecac     call    0x002558, 0x0    	CALL	_I2C_Stop
001ec6   f012
001ec8   cfe4     movff   0xfe4, 0x003     	MOVFF	PREINC1, r0x03
001eca   f003
001ecc   cfe4     movff   0xfe4, 0x002     	MOVFF	PREINC1, r0x02
001ece   f002
001ed0   cfe4     movff   0xfe4, 0x001     	MOVFF	PREINC1, r0x01
001ed2   f001
001ed4   cfe4     movff   0xfe4, 0x000     	MOVFF	PREINC1, r0x00
001ed6   f000
001ed8   cfe4     movff   0xfe4, 0xfd9     	MOVFF	PREINC1, FSR2L
001eda   ffd9
001edc   0012     return  0x0              	RETURN	



                                           ; Statistics:
                                           ; code size:	  144 (0x0090) bytes ( 0.11%)
                                           ;           	   72 (0x0048) words
                                           ; udata size:	    0 (0x0000) bytes ( 0.00%)
                                           ; access size:	    4 (0x0004) bytes


                                           	end
